Certificate:
    Data:
        Version: 3 (0x2)
        Serial Number: 0 (0x0)
    Signature Algorithm: sha1WithRSAEncryption
        Issuer: C=CN, ST=BEIJING, O=PKU, OU=MicroSoftware, CN=LIHAO/emailAddress=i@digva.com
        Validity
            Not Before: Jul 12 16:40:56 2013 GMT
            Not After : Jul 12 16:40:56 2014 GMT
        Subject: C=HL, ST=Heilongjiang, L=24 JinYuan Road, O=SSPKU, OU=Peking University, CN=Zengtianning/emailAddress=sanpuyouyou@163.com
        Subject Public Key Info:
            Public Key Algorithm: rsaEncryption
                Public-Key: (512 bit)
                Modulus:
                    00:b0:7f:1a:78:6e:10:05:94:c7:ee:d9:17:5c:ba:
                    b5:a7:25:92:a6:31:bd:d4:46:0c:7f:03:32:ce:09:
                    2b:0c:8b:4d:b0:ca:26:a8:f0:c2:bd:95:d4:b9:4e:
                    d7:c1:bf:47:75:76:c1:e6:9c:ad:23:1d:42:3f:9e:
                    f7:11:64:e4:c5
                Exponent: 3 (0x3)
        X509v3 extensions:
            X509v3 Basic Constraints: 
                CA:FALSE
            Netscape Comment: 
                OpenSSL Generated Certificate
            X509v3 Subject Key Identifier: 
                40:05:83:71:44:DE:2F:63:1C:41:AF:28:79:15:E9:68:08:91:F3:2A
            X509v3 Authority Key Identifier: 
                keyid:79:02:16:CF:4A:A4:4B:68:14:15:80:F1:CA:4E:B0:2F:8E:B4:BA:5E

    Signature Algorithm: sha1WithRSAEncryption
         14:bd:1e:53:9f:bf:bf:1e:6d:a3:ed:b6:7d:ca:88:2a:ab:e9:
         94:cd:e9:15:62:bf:a2:bb:34:85:3b:f0:69:4d:b8:35:f5:cf:
         82:85:d3:91:69:5f:7f:6a:7c:2a:51:16:52:c4:73:f8:f3:11:
         86:9d:66:9a:3e:ce:c6:9d:b7:cd:cf:83:6c:85:f4:92:87:44:
         fa:54:6f:4a:33:49:4b:6a:e0:20:f8:3f:44:b3:6d:cf:e2:75:
         fc:44:5e:d8:4e:58:48:44:e3:fd:4d:68:76:e9:8f:0b:43:a2:
         9c:ad:f3:8d:1b:75:aa:e4:86:08:6e:61:a9:fc:87:dc:bb:96:
         b5:b2:f8:42:9a:f7:13:e4:99:15:5d:0c:a0:4f:e4:3e:cc:c8:
         f8:c9:58:54:48:a6:bd:a2:d6:9d:7a:be:88:c3:35:dd:1a:8a:
         e2:12:d1:fb:7d:23:f1:53:78:fe:1b:b9:46:d9:04:ff:ec:de:
         5e:66:d8:9e:e6:85:6a:0e:5b:dd:13:02:78:61:60:a4:5e:ef:
         19:db:d9:60:4c:f6:6c:2f:7f:82:80:3e:35:f4:6b:51:70:41:
         2a:79:3e:33:6a:2e:2e:4a:7d:91:2c:29:5b:51:08:bd:7a:98:
         ec:39:27:0d:ea:e4:0a:08:7d:63:80:3e:03:8d:36:93:9a:1b:
         70:7e:f7:1b
-----BEGIN CERTIFICATE-----
MIIDQzCCAiugAwIBAgIBADANBgkqhkiG9w0BAQUFADBxMQswCQYDVQQGEwJDTjEQ
MA4GA1UECAwHQkVJSklORzEMMAoGA1UECgwDUEtVMRYwFAYDVQQLDA1NaWNyb1Nv
ZnR3YXJlMQ4wDAYDVQQDDAVMSUhBTzEaMBgGCSqGSIb3DQEJARYLaUBkaWd2YS5j
b20wHhcNMTMwNzEyMTY0MDU2WhcNMTQwNzEyMTY0MDU2WjCBpTELMAkGA1UEBgwC
SEwxFTATBgNVBAgMDEhlaWxvbmdqaWFuZzEYMBYGA1UEBwwPMjQgSmluWXVhbiBS
b2FkMQ4wDAYDVQQKDAVTU1BLVTEaMBgGA1UECwwRUGVraW5nIFVuaXZlcnNpdHkx
FTATBgNVBAMMDFplbmd0aWFubmluZzEiMCAGCSqGSIb3DQEJARYTc2FucHV5b3V5
b3VAMTYzLmNvbTBaMA0GCSqGSIb3DQEBAQUAA0kAMEYCQQCwfxp4bhAFlMfu2Rdc
urWnJZKmMb3URgx/AzLOCSsMi02wyiao8MK9ldS5TtfBv0d1dsHmnK0jHUI/nvcR
ZOTFAgEDo3sweTAJBgNVHRMEAjAAMCwGCWCGSAGG+EIBDQQfFh1PcGVuU1NMIEdl
bmVyYXRlZCBDZXJ0aWZpY2F0ZTAdBgNVHQ4EFgQUQAWDcUTeL2McQa8oeRXpaAiR
8yowHwYDVR0jBBgwFoAUeQIWz0qkS2gUFYDxyk6wL460ul4wDQYJKoZIhvcNAQEF
BQADggEBABS9HlOfv78ebaPttn3KiCqr6ZTN6RViv6K7NIU78GlNuDX1z4KF05Fp
X39qfCpRFlLEc/jzEYadZpo+zsadt83Pg2yF9JKHRPpUb0ozSUtq4CD4P0Szbc/i
dfxEXthOWEhE4/1NaHbpjwtDopyt840bdarkhghuYan8h9y7lrWy+EKa9xPkmRVd
DKBP5D7MyPjJWFRIpr2i1p16vojDNd0aiuIS0ft9I/FTeP4buUbZBP/s3l5m2J7m
hWoOW90TAnhhYKRe7xnb2WBM9mwvf4KAPjX0a1FwQSp5PjNqLi5KfZEsKVtRCL16
mOw5Jw3q5AoIfWOAPgONNpOaG3B+9xs=
-----END CERTIFICATE-----
