Certificate:
    Data:
        Version: 3 (0x2)
        Serial Number: 1 (0x1)
    Signature Algorithm: sha1WithRSAEncryption
        Issuer: C=CN, ST=BEIJING, O=PKU, OU=MicroSoftware, CN=LIHAO/emailAddress=i@digva.com
        Validity
            Not Before: Jul 15 10:18:07 2013 GMT
            Not After : Jul 15 10:18:07 2014 GMT
        Subject: C=CN, ST=Heilongjiang, L=24 JinYuan Road, O=SSPKU, OU=Peking University, CN=HelloWOrld/emailAddress=sanpuyouyou@163.com
        Subject Public Key Info:
            Public Key Algorithm: rsaEncryption
                Public-Key: (512 bit)
                Modulus:
                    00:bf:d6:ae:c3:cc:38:14:cd:42:7f:12:13:24:bb:
                    58:51:e7:bf:20:c6:d8:93:32:02:83:89:cf:aa:7c:
                    cf:aa:9d:c7:dd:a7:14:76:c6:76:dd:0c:ea:50:ac:
                    9d:48:a0:60:ea:bc:9c:d8:77:78:23:3f:5a:73:bc:
                    7d:34:f5:b7:25
                Exponent: 3 (0x3)
        X509v3 extensions:
            X509v3 Basic Constraints: 
                CA:FALSE
            Netscape Comment: 
                OpenSSL Generated Certificate
            X509v3 Subject Key Identifier: 
                38:5A:F5:A1:03:B5:A0:1C:12:35:95:41:A5:41:EF:4F:BA:9A:90:7A
            X509v3 Authority Key Identifier: 
                keyid:79:02:16:CF:4A:A4:4B:68:14:15:80:F1:CA:4E:B0:2F:8E:B4:BA:5E

    Signature Algorithm: sha1WithRSAEncryption
         2d:4e:f5:00:0a:81:3c:e9:01:d9:7a:b6:16:56:4b:fd:02:60:
         fb:30:f2:9d:94:2a:82:a1:a7:1f:78:1c:2a:e9:8d:28:05:82:
         b1:90:6d:63:73:dd:f0:04:05:2f:d8:dc:46:31:11:3b:89:f8:
         8e:93:be:56:5b:91:1e:4c:a7:5e:7c:07:d8:8d:f3:8d:63:ef:
         b2:9b:87:05:5a:69:33:8c:49:01:98:b7:28:1e:be:4a:05:be:
         23:2f:36:af:fc:be:91:62:fb:fa:fe:8f:6a:75:20:43:ad:62:
         84:52:9c:8e:c7:ea:9c:d2:99:b4:bd:c7:09:67:b1:35:fc:b7:
         e9:ed:3a:4a:ee:1b:d8:3c:1e:77:fa:72:fb:78:2d:c6:a0:85:
         72:1f:39:51:3a:73:46:4f:e9:df:7f:fc:16:83:2e:10:0e:97:
         98:5a:3f:96:26:cc:62:f3:78:15:c9:76:b9:55:4d:17:dd:ed:
         23:3b:9e:39:f2:3e:f8:f4:9d:62:b1:8e:73:be:1e:d3:a0:5f:
         c2:d5:4d:54:ae:26:cd:a8:a7:59:5b:00:eb:00:99:fb:42:45:
         e3:56:1c:c7:33:fb:a1:45:3b:28:79:83:38:61:f6:f9:38:30:
         34:05:07:bb:34:7b:c7:4d:7e:cc:29:1d:fc:b9:20:ee:fd:11:
         29:a7:7a:7b
-----BEGIN CERTIFICATE-----
MIIDQTCCAimgAwIBAgIBATANBgkqhkiG9w0BAQUFADBxMQswCQYDVQQGEwJDTjEQ
MA4GA1UECAwHQkVJSklORzEMMAoGA1UECgwDUEtVMRYwFAYDVQQLDA1NaWNyb1Nv
ZnR3YXJlMQ4wDAYDVQQDDAVMSUhBTzEaMBgGCSqGSIb3DQEJARYLaUBkaWd2YS5j
b20wHhcNMTMwNzE1MTAxODA3WhcNMTQwNzE1MTAxODA3WjCBozELMAkGA1UEBgwC
Q04xFTATBgNVBAgMDEhlaWxvbmdqaWFuZzEYMBYGA1UEBwwPMjQgSmluWXVhbiBS
b2FkMQ4wDAYDVQQKDAVTU1BLVTEaMBgGA1UECwwRUGVraW5nIFVuaXZlcnNpdHkx
EzARBgNVBAMMCkhlbGxvV09ybGQxIjAgBgkqhkiG9w0BCQEWE3NhbnB1eW91eW91
QDE2My5jb20wWjANBgkqhkiG9w0BAQEFAANJADBGAkEAv9auw8w4FM1CfxITJLtY
Uee/IMbYkzICg4nPqnzPqp3H3acUdsZ23QzqUKydSKBg6ryc2Hd4Iz9ac7x9NPW3
JQIBA6N7MHkwCQYDVR0TBAIwADAsBglghkgBhvhCAQ0EHxYdT3BlblNTTCBHZW5l
cmF0ZWQgQ2VydGlmaWNhdGUwHQYDVR0OBBYEFDha9aEDtaAcEjWVQaVB70+6mpB6
MB8GA1UdIwQYMBaAFHkCFs9KpEtoFBWA8cpOsC+OtLpeMA0GCSqGSIb3DQEBBQUA
A4IBAQAtTvUACoE86QHZerYWVkv9AmD7MPKdlCqCoacfeBwq6Y0oBYKxkG1jc93w
BAUv2NxGMRE7ifiOk75WW5EeTKdefAfYjfONY++ym4cFWmkzjEkBmLcoHr5KBb4j
Lzav/L6RYvv6/o9qdSBDrWKEUpyOx+qc0pm0vccJZ7E1/Lfp7TpK7hvYPB53+nL7
eC3GoIVyHzlROnNGT+nff/wWgy4QDpeYWj+WJsxi83gVyXa5VU0X3e0jO5458j74
9J1isY5zvh7ToF/C1U1UribNqKdZWwDrAJn7QkXjVhzHM/uhRTsoeYM4Yfb5ODA0
BQe7NHvHTX7MKR38uSDu/REpp3p7
-----END CERTIFICATE-----
