Certificate:
    Data:
        Version: 3 (0x2)
        Serial Number: 2 (0x2)
    Signature Algorithm: sha1WithRSAEncryption
        Issuer: C=CN, ST=BEIJING, O=PKU, OU=MicroSoftware, CN=LIHAO/emailAddress=i@digva.com
        Validity
            Not Before: Jul 16 12:47:47 2013 GMT
            Not After : Jul 16 12:47:47 2014 GMT
        Subject: C=cn, ST=fj, L=rain, O=PKU, OU=SSPKU, CN=REF/emailAddress=smallbadgirl@163.com
        Subject Public Key Info:
            Public Key Algorithm: rsaEncryption
                Public-Key: (512 bit)
                Modulus:
                    00:d6:27:aa:e1:b5:f1:25:22:63:61:ca:02:9a:75:
                    2d:c0:d7:01:f4:fb:84:d7:dd:5d:3a:23:8f:90:76:
                    9d:e0:c8:53:95:01:66:5b:0a:26:36:29:99:f5:63:
                    8c:de:d8:bd:2c:b2:ab:4d:40:ac:8b:b8:de:94:b6:
                    e7:59:98:45:63
                Exponent: 3 (0x3)
        X509v3 extensions:
            X509v3 Basic Constraints: 
                CA:FALSE
            Netscape Comment: 
                OpenSSL Generated Certificate
            X509v3 Subject Key Identifier: 
                57:99:A3:EF:D5:96:C0:20:23:39:F1:E5:7A:B4:56:10:6D:B5:A9:7D
            X509v3 Authority Key Identifier: 
                keyid:79:02:16:CF:4A:A4:4B:68:14:15:80:F1:CA:4E:B0:2F:8E:B4:BA:5E

    Signature Algorithm: sha1WithRSAEncryption
         2e:16:e6:0d:e0:9c:53:ca:32:db:ae:50:de:bd:08:03:6a:83:
         01:9a:79:90:05:9c:16:d8:c1:96:c7:1a:57:04:9b:49:83:c4:
         4f:7b:26:93:6a:aa:5c:ea:96:a6:da:0c:99:e4:e0:f1:e3:fb:
         7f:cb:a8:c5:f8:33:65:02:46:85:8e:aa:54:64:17:e6:15:ee:
         d3:2c:35:f1:af:42:36:ef:f6:3b:4f:16:68:81:32:a6:6e:b2:
         57:87:37:17:45:5f:24:d7:20:15:ef:6c:f4:77:86:55:75:57:
         57:dd:a3:28:66:3c:09:ef:21:af:a4:e2:ce:99:1e:93:db:2c:
         a9:6d:82:46:0b:d0:ae:e6:c4:5f:40:64:eb:a5:94:e0:71:d9:
         fc:4e:51:5c:a9:ff:29:a1:54:81:59:ab:fd:3b:7e:3b:c4:13:
         03:1d:c4:83:33:73:fc:75:c2:21:82:05:9d:bf:d1:92:1b:4d:
         b6:d2:62:75:0a:8b:ef:25:60:9f:60:cb:64:08:40:c8:b6:3d:
         40:ff:ce:93:2c:65:e7:8a:ba:35:e5:5c:70:7f:24:9a:e1:b2:
         5a:0b:c6:6b:23:0e:39:bf:28:a6:58:43:00:e6:81:0d:38:60:
         aa:df:ec:85:6e:ed:c7:b7:e7:74:f0:16:f1:89:b6:11:cf:21:
         97:86:4f:f0
-----BEGIN CERTIFICATE-----
MIIDFzCCAf+gAwIBAgIBAjANBgkqhkiG9w0BAQUFADBxMQswCQYDVQQGEwJDTjEQ
MA4GA1UECAwHQkVJSklORzEMMAoGA1UECgwDUEtVMRYwFAYDVQQLDA1NaWNyb1Nv
ZnR3YXJlMQ4wDAYDVQQDDAVMSUhBTzEaMBgGCSqGSIb3DQEJARYLaUBkaWd2YS5j
b20wHhcNMTMwNzE2MTI0NzQ3WhcNMTQwNzE2MTI0NzQ3WjB6MQswCQYDVQQGDAJj
bjELMAkGA1UECAwCZmoxDTALBgNVBAcMBHJhaW4xDDAKBgNVBAoMA1BLVTEOMAwG
A1UECwwFU1NQS1UxDDAKBgNVBAMMA1JFRjEjMCEGCSqGSIb3DQEJARYUc21hbGxi
YWRnaXJsQDE2My5jb20wWjANBgkqhkiG9w0BAQEFAANJADBGAkEA1ieq4bXxJSJj
YcoCmnUtwNcB9PuE191dOiOPkHad4MhTlQFmWwomNimZ9WOM3ti9LLKrTUCsi7je
lLbnWZhFYwIBA6N7MHkwCQYDVR0TBAIwADAsBglghkgBhvhCAQ0EHxYdT3BlblNT
TCBHZW5lcmF0ZWQgQ2VydGlmaWNhdGUwHQYDVR0OBBYEFFeZo+/VlsAgIznx5Xq0
VhBttal9MB8GA1UdIwQYMBaAFHkCFs9KpEtoFBWA8cpOsC+OtLpeMA0GCSqGSIb3
DQEBBQUAA4IBAQAuFuYN4JxTyjLbrlDevQgDaoMBmnmQBZwW2MGWxxpXBJtJg8RP
eyaTaqpc6pam2gyZ5ODx4/t/y6jF+DNlAkaFjqpUZBfmFe7TLDXxr0I27/Y7TxZo
gTKmbrJXhzcXRV8k1yAV72z0d4ZVdVdX3aMoZjwJ7yGvpOLOmR6T2yypbYJGC9Cu
5sRfQGTrpZTgcdn8TlFcqf8poVSBWav9O347xBMDHcSDM3P8dcIhggWdv9GSG022
0mJ1CovvJWCfYMtkCEDItj1A/86TLGXniro15VxwfySa4bJaC8ZrIw45vyimWEMA
5oENOGCq3+yFbu3Ht+d08BbxibYRzyGXhk/w
-----END CERTIFICATE-----
