Certificate:
    Data:
        Version: 3 (0x2)
        Serial Number: 4 (0x4)
    Signature Algorithm: sha1WithRSAEncryption
        Issuer: C=CN, ST=BEIJING, O=PKU, OU=MicroSoftware, CN=LIHAO/emailAddress=i@digva.com
        Validity
            Not Before: Jul 17 04:30:18 2013 GMT
            Not After : Jul 17 04:30:18 2014 GMT
        Subject: C=CN, ST=LN, L=DL, O=PKU, OU=SSPKU, CN=SFER/emailAddress=sanyou@163.com
        Subject Public Key Info:
            Public Key Algorithm: rsaEncryption
                Public-Key: (512 bit)
                Modulus:
                    00:b2:e6:25:04:7c:56:4e:f3:bb:7c:2b:18:cb:8a:
                    3e:30:62:1b:25:ad:2f:24:a4:67:be:0a:e7:6b:d0:
                    c8:2c:03:a9:4d:c4:49:9b:13:5c:45:2f:3b:cd:49:
                    1f:f5:5f:67:fb:10:19:62:41:c2:d8:c8:3f:2c:93:
                    ed:ff:d1:c4:7b
                Exponent: 3 (0x3)
        X509v3 extensions:
            X509v3 Basic Constraints: 
                CA:FALSE
            Netscape Comment: 
                OpenSSL Generated Certificate
            X509v3 Subject Key Identifier: 
                5A:0D:DC:13:96:EA:9B:F4:A8:2A:49:38:8C:07:73:D7:C6:FD:42:11
            X509v3 Authority Key Identifier: 
                keyid:79:02:16:CF:4A:A4:4B:68:14:15:80:F1:CA:4E:B0:2F:8E:B4:BA:5E

    Signature Algorithm: sha1WithRSAEncryption
         21:50:8d:05:a7:67:2e:ea:cf:f9:0f:98:30:eb:ad:62:60:70:
         7f:9e:51:55:6a:09:5d:db:83:6c:5a:49:2d:30:23:01:be:e3:
         24:0c:e3:86:3c:9a:51:97:09:65:97:83:f3:5a:77:71:13:d1:
         3f:a1:0c:c0:46:8e:71:c7:20:35:12:f4:e7:26:16:28:2b:a9:
         b2:56:85:e9:f5:9b:59:bb:b9:1a:98:13:86:bf:7f:d9:6d:0c:
         99:fb:5e:bb:7c:fd:70:4e:f5:3f:da:a0:e1:f5:7f:0a:62:20:
         38:05:79:94:a1:82:d1:60:3f:8c:50:8c:89:f4:c8:0a:5d:05:
         11:5a:71:a8:a5:b5:07:a7:62:e5:02:bb:f1:35:d8:2f:92:6d:
         28:80:95:29:14:65:4d:b0:59:1c:8a:50:d5:0c:f4:47:75:ce:
         0c:6b:9e:46:78:41:26:f9:ad:0b:60:f0:1a:0e:57:c9:30:4f:
         c0:ef:32:88:0a:65:1d:1a:70:6d:91:8e:0e:fd:80:01:bd:4c:
         15:21:b2:15:d6:12:2d:61:54:f0:5a:67:63:73:fa:37:29:1f:
         f5:94:fd:ae:8a:e2:f3:6e:fc:af:9d:e5:63:eb:f3:ab:67:f8:
         d2:f0:c7:c2:2a:0c:05:a7:07:03:a8:ab:6f:bb:b8:f2:20:a6:
         f6:c0:02:9c
-----BEGIN CERTIFICATE-----
MIIDEDCCAfigAwIBAgIBBDANBgkqhkiG9w0BAQUFADBxMQswCQYDVQQGEwJDTjEQ
MA4GA1UECAwHQkVJSklORzEMMAoGA1UECgwDUEtVMRYwFAYDVQQLDA1NaWNyb1Nv
ZnR3YXJlMQ4wDAYDVQQDDAVMSUhBTzEaMBgGCSqGSIb3DQEJARYLaUBkaWd2YS5j
b20wHhcNMTMwNzE3MDQzMDE4WhcNMTQwNzE3MDQzMDE4WjBzMQswCQYDVQQGDAJD
TjELMAkGA1UECAwCTE4xCzAJBgNVBAcMAkRMMQwwCgYDVQQKDANQS1UxDjAMBgNV
BAsMBVNTUEtVMQ0wCwYDVQQDDARTRkVSMR0wGwYJKoZIhvcNAQkBFg5zYW55b3VA
MTYzLmNvbTBaMA0GCSqGSIb3DQEBAQUAA0kAMEYCQQCy5iUEfFZO87t8KxjLij4w
YhslrS8kpGe+Cudr0MgsA6lNxEmbE1xFLzvNSR/1X2f7EBliQcLYyD8sk+3/0cR7
AgEDo3sweTAJBgNVHRMEAjAAMCwGCWCGSAGG+EIBDQQfFh1PcGVuU1NMIEdlbmVy
YXRlZCBDZXJ0aWZpY2F0ZTAdBgNVHQ4EFgQUWg3cE5bqm/SoKkk4jAdz18b9QhEw
HwYDVR0jBBgwFoAUeQIWz0qkS2gUFYDxyk6wL460ul4wDQYJKoZIhvcNAQEFBQAD
ggEBACFQjQWnZy7qz/kPmDDrrWJgcH+eUVVqCV3bg2xaSS0wIwG+4yQM44Y8mlGX
CWWXg/Nad3ET0T+hDMBGjnHHIDUS9OcmFigrqbJWhen1m1m7uRqYE4a/f9ltDJn7
Xrt8/XBO9T/aoOH1fwpiIDgFeZShgtFgP4xQjIn0yApdBRFacailtQenYuUCu/E1
2C+SbSiAlSkUZU2wWRyKUNUM9Ed1zgxrnkZ4QSb5rQtg8BoOV8kwT8DvMogKZR0a
cG2Rjg79gAG9TBUhshXWEi1hVPBaZ2Nz+jcpH/WU/a6K4vNu/K+d5WPr86tn+NLw
x8IqDAWnBwOoq2+7uPIgpvbAApw=
-----END CERTIFICATE-----
