Certificate:
    Data:
        Version: 3 (0x2)
        Serial Number: 5 (0x5)
    Signature Algorithm: sha1WithRSAEncryption
        Issuer: C=CN, ST=BEIJING, O=PKU, OU=MicroSoftware, CN=LIHAO/emailAddress=i@digva.com
        Validity
            Not Before: Jul 17 08:40:03 2013 GMT
            Not After : Jul 17 08:40:03 2014 GMT
        Subject: C=CN, ST=DF, L=EF, O=PKU, OU=SSPKU, CN=DE/emailAddress=123HU@163.com
        Subject Public Key Info:
            Public Key Algorithm: rsaEncryption
                Public-Key: (512 bit)
                Modulus:
                    00:c9:2e:15:5c:5d:51:8c:c8:3c:7e:a9:c9:d2:ed:
                    be:b7:c4:34:f8:e7:44:1d:34:e6:74:d5:63:3c:ff:
                    8a:d2:5c:dc:0c:f8:46:3e:fb:23:ef:33:ee:66:6e:
                    ec:55:2a:1f:0a:0c:3c:94:6e:ad:fa:4a:62:6c:fc:
                    08:f6:bc:b4:0f
                Exponent: 3 (0x3)
        X509v3 extensions:
            X509v3 Basic Constraints: 
                CA:FALSE
            Netscape Comment: 
                OpenSSL Generated Certificate
            X509v3 Subject Key Identifier: 
                77:AD:41:3A:F8:66:CB:C8:9E:E9:CD:B8:06:A4:65:56:B1:76:BF:E9
            X509v3 Authority Key Identifier: 
                keyid:79:02:16:CF:4A:A4:4B:68:14:15:80:F1:CA:4E:B0:2F:8E:B4:BA:5E

    Signature Algorithm: sha1WithRSAEncryption
         00:d8:47:b1:19:c2:ad:a6:62:7f:a5:0f:44:fc:c0:c6:f2:b6:
         7f:89:20:c7:e3:5b:01:92:ba:13:b1:0e:ad:6f:60:7d:92:8f:
         d2:56:f1:56:e0:d9:27:fd:3d:11:11:70:d6:39:43:8b:a1:3a:
         68:26:62:a0:37:4e:ca:1b:95:f9:38:5f:b8:6e:2c:a5:d2:f5:
         56:2b:8e:2c:32:98:bc:69:fe:55:c4:bb:8c:8f:15:dd:15:94:
         8d:da:9e:35:f6:1a:84:46:87:9e:6c:35:ea:6e:b2:7c:02:a3:
         bf:c6:80:aa:13:35:db:ad:b2:b4:2a:75:8c:3b:ca:d8:bc:10:
         66:d3:64:8f:2d:cd:69:a0:38:96:fa:7d:db:4b:1f:74:51:6b:
         1f:28:ec:ae:1b:8b:59:de:24:8e:7e:68:54:41:69:a5:14:5d:
         28:df:c6:0d:c9:ee:fb:db:e2:5d:a3:59:c4:1f:61:fd:c0:20:
         c7:94:f8:57:6a:f6:ce:72:05:93:de:90:8e:fa:ee:1c:87:74:
         2b:f4:a4:0f:fd:b4:cf:43:71:52:c9:ce:5f:92:55:67:68:43:
         92:3c:a9:14:6a:4d:4f:fe:cf:71:96:bd:31:3f:7b:dc:f3:01:
         7f:52:21:5d:25:e4:f7:47:49:67:c2:0c:47:28:0e:ad:8e:8d:
         8c:a8:06:28
-----BEGIN CERTIFICATE-----
MIIDDTCCAfWgAwIBAgIBBTANBgkqhkiG9w0BAQUFADBxMQswCQYDVQQGEwJDTjEQ
MA4GA1UECAwHQkVJSklORzEMMAoGA1UECgwDUEtVMRYwFAYDVQQLDA1NaWNyb1Nv
ZnR3YXJlMQ4wDAYDVQQDDAVMSUhBTzEaMBgGCSqGSIb3DQEJARYLaUBkaWd2YS5j
b20wHhcNMTMwNzE3MDg0MDAzWhcNMTQwNzE3MDg0MDAzWjBwMQswCQYDVQQGDAJD
TjELMAkGA1UECAwCREYxCzAJBgNVBAcMAkVGMQwwCgYDVQQKDANQS1UxDjAMBgNV
BAsMBVNTUEtVMQswCQYDVQQDDAJERTEcMBoGCSqGSIb3DQEJARYNMTIzSFVAMTYz
LmNvbTBaMA0GCSqGSIb3DQEBAQUAA0kAMEYCQQDJLhVcXVGMyDx+qcnS7b63xDT4
50QdNOZ01WM8/4rSXNwM+EY++yPvM+5mbuxVKh8KDDyUbq36SmJs/Aj2vLQPAgED
o3sweTAJBgNVHRMEAjAAMCwGCWCGSAGG+EIBDQQfFh1PcGVuU1NMIEdlbmVyYXRl
ZCBDZXJ0aWZpY2F0ZTAdBgNVHQ4EFgQUd61BOvhmy8ie6c24BqRlVrF2v+kwHwYD
VR0jBBgwFoAUeQIWz0qkS2gUFYDxyk6wL460ul4wDQYJKoZIhvcNAQEFBQADggEB
AADYR7EZwq2mYn+lD0T8wMbytn+JIMfjWwGSuhOxDq1vYH2Sj9JW8Vbg2Sf9PRER
cNY5Q4uhOmgmYqA3Tsoblfk4X7huLKXS9VYrjiwymLxp/lXEu4yPFd0VlI3anjX2
GoRGh55sNepusnwCo7/GgKoTNdutsrQqdYw7yti8EGbTZI8tzWmgOJb6fdtLH3RR
ax8o7K4bi1neJI5+aFRBaaUUXSjfxg3J7vvb4l2jWcQfYf3AIMeU+Fdq9s5yBZPe
kI767hyHdCv0pA/9tM9DcVLJzl+SVWdoQ5I8qRRqTU/+z3GWvTE/e9zzAX9SIV0l
5PdHSWfCDEcoDq2OjYyoBig=
-----END CERTIFICATE-----
