Certificate:
    Data:
        Version: 3 (0x2)
        Serial Number: 3 (0x3)
    Signature Algorithm: sha1WithRSAEncryption
        Issuer: C=CN, ST=BEIJING, O=PKU, OU=MicroSoftware, CN=LIHAO/emailAddress=i@digva.com
        Validity
            Not Before: Jul 16 13:05:28 2013 GMT
            Not After : Jul 16 13:05:28 2014 GMT
        Subject: C=CN, ST=FJ, L=AX, O=PKU, OU=SSPKU, CN=REDR/emailAddress=zuomi@163.com
        Subject Public Key Info:
            Public Key Algorithm: rsaEncryption
                Public-Key: (512 bit)
                Modulus:
                    00:b9:c3:63:b8:93:0c:51:9b:5a:24:ab:1b:88:72:
                    c7:25:71:b4:69:02:f3:84:fe:e7:28:d0:30:d6:65:
                    65:5c:14:79:d0:e9:7d:ab:0e:9c:50:23:7c:4a:4e:
                    5d:50:db:7c:fd:c0:44:d8:33:dc:5e:ed:e3:7a:ec:
                    96:60:aa:23:93
                Exponent: 3 (0x3)
        X509v3 extensions:
            X509v3 Basic Constraints: 
                CA:FALSE
            Netscape Comment: 
                OpenSSL Generated Certificate
            X509v3 Subject Key Identifier: 
                C1:7A:1A:DA:08:0D:FD:8C:E5:7A:F9:5C:06:08:57:FE:8E:E2:CA:F2
            X509v3 Authority Key Identifier: 
                keyid:79:02:16:CF:4A:A4:4B:68:14:15:80:F1:CA:4E:B0:2F:8E:B4:BA:5E

    Signature Algorithm: sha1WithRSAEncryption
         7a:02:32:de:d6:36:4a:eb:6c:17:a6:04:9f:67:a3:4d:f2:a0:
         73:48:d2:c6:b9:a4:10:05:f9:22:96:33:fa:9b:94:3a:07:2e:
         26:d6:23:0a:8d:16:6f:23:b0:87:1f:65:d1:e2:7b:d2:11:6f:
         ab:05:cb:0b:8f:72:48:82:ad:dd:4c:da:b3:23:be:16:36:d7:
         7a:c7:e3:60:a3:f8:32:e0:58:c5:87:11:06:de:f8:dd:1a:7d:
         43:f2:c0:81:3d:a5:69:1a:60:2e:84:cb:c1:56:6f:d1:67:b6:
         21:5d:b6:ad:68:de:5b:b4:1d:3c:ee:27:e1:52:13:b8:2a:0a:
         06:2b:45:3b:b6:2b:aa:75:31:ab:08:b6:7e:a4:95:0e:6d:38:
         d7:a7:9e:90:92:37:8b:7a:52:58:88:b2:bb:e0:2e:55:67:0a:
         31:d3:54:18:3a:36:43:1a:b3:c2:2c:ff:08:ab:b9:8b:b4:14:
         db:a8:77:e1:94:45:71:22:7c:f8:3d:5e:bf:90:38:31:44:32:
         54:bf:fe:2b:ee:2a:08:9e:8b:16:11:a1:11:08:21:1d:fa:30:
         f4:3e:b9:f4:5c:7f:be:9f:44:c1:cd:d8:a3:67:2f:c6:d3:14:
         29:1c:7b:b2:65:49:74:e9:d2:19:85:57:10:49:9b:b0:8d:c5:
         46:ba:ca:3e
-----BEGIN CERTIFICATE-----
MIIDDzCCAfegAwIBAgIBAzANBgkqhkiG9w0BAQUFADBxMQswCQYDVQQGEwJDTjEQ
MA4GA1UECAwHQkVJSklORzEMMAoGA1UECgwDUEtVMRYwFAYDVQQLDA1NaWNyb1Nv
ZnR3YXJlMQ4wDAYDVQQDDAVMSUhBTzEaMBgGCSqGSIb3DQEJARYLaUBkaWd2YS5j
b20wHhcNMTMwNzE2MTMwNTI4WhcNMTQwNzE2MTMwNTI4WjByMQswCQYDVQQGDAJD
TjELMAkGA1UECAwCRkoxCzAJBgNVBAcMAkFYMQwwCgYDVQQKDANQS1UxDjAMBgNV
BAsMBVNTUEtVMQ0wCwYDVQQDDARSRURSMRwwGgYJKoZIhvcNAQkBFg16dW9taUAx
NjMuY29tMFowDQYJKoZIhvcNAQEBBQADSQAwRgJBALnDY7iTDFGbWiSrG4hyxyVx
tGkC84T+5yjQMNZlZVwUedDpfasOnFAjfEpOXVDbfP3ARNgz3F7t43rslmCqI5MC
AQOjezB5MAkGA1UdEwQCMAAwLAYJYIZIAYb4QgENBB8WHU9wZW5TU0wgR2VuZXJh
dGVkIENlcnRpZmljYXRlMB0GA1UdDgQWBBTBehraCA39jOV6+VwGCFf+juLK8jAf
BgNVHSMEGDAWgBR5AhbPSqRLaBQVgPHKTrAvjrS6XjANBgkqhkiG9w0BAQUFAAOC
AQEAegIy3tY2SutsF6YEn2ejTfKgc0jSxrmkEAX5IpYz+puUOgcuJtYjCo0WbyOw
hx9l0eJ70hFvqwXLC49ySIKt3UzasyO+FjbXesfjYKP4MuBYxYcRBt743Rp9Q/LA
gT2laRpgLoTLwVZv0We2IV22rWjeW7QdPO4n4VITuCoKBitFO7YrqnUxqwi2fqSV
Dm0416eekJI3i3pSWIiyu+AuVWcKMdNUGDo2Qxqzwiz/CKu5i7QU26h34ZRFcSJ8
+D1ev5A4MUQyVL/+K+4qCJ6LFhGhEQghHfow9D659Fx/vp9Ewc3Yo2cvxtMUKRx7
smVJdOnSGYVXEEmbsI3FRrrKPg==
-----END CERTIFICATE-----
