Certificate:
    Data:
        Version: 3 (0x2)
        Serial Number: 6 (0x6)
    Signature Algorithm: sha1WithRSAEncryption
        Issuer: C=CN, ST=BEIJING, O=PKU, OU=MicroSoftware, CN=LIHAO/emailAddress=i@digva.com
        Validity
            Not Before: Jul 21 05:19:40 2013 GMT
            Not After : Jul 21 05:19:40 2014 GMT
        Subject: C=CN, ST=ZheJiang, L=24 JinYuan Road, O=SSPKU, OU=Peking University, CN=Danny/emailAddress=dannylsl@sina.com
        Subject Public Key Info:
            Public Key Algorithm: rsaEncryption
                Public-Key: (512 bit)
                Modulus:
                    00:e4:4a:78:dc:69:15:72:fa:17:71:3d:5e:dd:0c:
                    0c:b8:4f:c4:48:06:5c:5c:8e:83:d6:b9:a0:d2:72:
                    d1:01:92:d0:50:65:8f:29:75:e2:4d:3f:f9:13:ba:
                    ee:99:d5:06:53:a7:43:9c:65:b7:ea:d5:53:84:25:
                    9b:5d:2e:2e:fb
                Exponent: 3 (0x3)
        X509v3 extensions:
            X509v3 Basic Constraints: 
                CA:FALSE
            Netscape Comment: 
                OpenSSL Generated Certificate
            X509v3 Subject Key Identifier: 
                E5:4E:89:DE:B5:F9:14:86:90:74:24:50:8E:03:EE:3A:8A:F0:51:B2
            X509v3 Authority Key Identifier: 
                keyid:79:02:16:CF:4A:A4:4B:68:14:15:80:F1:CA:4E:B0:2F:8E:B4:BA:5E

    Signature Algorithm: sha1WithRSAEncryption
         78:99:fc:26:5e:52:2a:74:3b:64:d3:09:00:78:e7:c7:70:d1:
         8b:5f:0f:fc:7a:f8:30:dd:52:e3:03:09:10:e6:1b:3f:00:fd:
         34:cf:ab:55:c8:6f:cc:0b:61:2a:85:23:36:5b:8b:9b:38:62:
         93:e1:1b:15:ce:4b:5f:e5:b9:f6:76:a6:5e:11:42:b9:2e:04:
         1e:9c:79:c5:3f:96:82:2c:7a:a0:8f:95:cb:ee:63:35:e3:0c:
         4d:7f:62:3e:9e:50:92:16:c7:15:51:ee:e0:f6:49:16:48:4d:
         51:58:db:58:13:5f:29:63:37:0f:e2:ef:67:8e:2d:03:1b:f7:
         a4:96:49:69:74:5e:a7:e0:fa:4c:5e:62:88:ec:bc:0d:67:27:
         16:c8:12:12:3e:e0:10:8a:87:54:6d:aa:36:3a:38:e6:81:96:
         96:8b:70:00:a4:b6:d6:40:c8:28:d2:60:f8:10:cd:c0:01:7c:
         79:b5:02:23:74:ab:89:e8:24:77:1a:de:26:37:97:60:cb:0e:
         4d:70:de:0e:bb:80:d1:98:60:c5:43:dc:fb:86:18:b7:6f:98:
         1b:c4:ec:1e:51:12:af:01:bf:85:6f:0a:a4:25:5c:9b:ea:06:
         f2:7e:cb:b6:f5:c1:af:c1:16:be:d6:f1:83:2b:88:43:c5:fa:
         23:6a:e3:19
-----BEGIN CERTIFICATE-----
MIIDNjCCAh6gAwIBAgIBBjANBgkqhkiG9w0BAQUFADBxMQswCQYDVQQGEwJDTjEQ
MA4GA1UECAwHQkVJSklORzEMMAoGA1UECgwDUEtVMRYwFAYDVQQLDA1NaWNyb1Nv
ZnR3YXJlMQ4wDAYDVQQDDAVMSUhBTzEaMBgGCSqGSIb3DQEJARYLaUBkaWd2YS5j
b20wHhcNMTMwNzIxMDUxOTQwWhcNMTQwNzIxMDUxOTQwWjCBmDELMAkGA1UEBgwC
Q04xETAPBgNVBAgMCFpoZUppYW5nMRgwFgYDVQQHDA8yNCBKaW5ZdWFuIFJvYWQx
DjAMBgNVBAoMBVNTUEtVMRowGAYDVQQLDBFQZWtpbmcgVW5pdmVyc2l0eTEOMAwG
A1UEAwwFRGFubnkxIDAeBgkqhkiG9w0BCQEWEWRhbm55bHNsQHNpbmEuY29tMFow
DQYJKoZIhvcNAQEBBQADSQAwRgJBAORKeNxpFXL6F3E9Xt0MDLhPxEgGXFyOg9a5
oNJy0QGS0FBljyl14k0/+RO67pnVBlOnQ5xlt+rVU4Qlm10uLvsCAQOjezB5MAkG
A1UdEwQCMAAwLAYJYIZIAYb4QgENBB8WHU9wZW5TU0wgR2VuZXJhdGVkIENlcnRp
ZmljYXRlMB0GA1UdDgQWBBTlTonetfkUhpB0JFCOA+46ivBRsjAfBgNVHSMEGDAW
gBR5AhbPSqRLaBQVgPHKTrAvjrS6XjANBgkqhkiG9w0BAQUFAAOCAQEAeJn8Jl5S
KnQ7ZNMJAHjnx3DRi18P/Hr4MN1S4wMJEOYbPwD9NM+rVchvzAthKoUjNluLmzhi
k+EbFc5LX+W59namXhFCuS4EHpx5xT+Wgix6oI+Vy+5jNeMMTX9iPp5QkhbHFVHu
4PZJFkhNUVjbWBNfKWM3D+LvZ44tAxv3pJZJaXRep+D6TF5iiOy8DWcnFsgSEj7g
EIqHVG2qNjo45oGWlotwAKS21kDIKNJg+BDNwAF8ebUCI3SriegkdxreJjeXYMsO
TXDeDruA0ZhgxUPc+4YYt2+YG8TsHlESrwG/hW8KpCVcm+oG8n7LtvXBr8EWvtbx
gyuIQ8X6I2rjGQ==
-----END CERTIFICATE-----
