Certificate:
    Data:
        Version: 3 (0x2)
        Serial Number: 7 (0x7)
    Signature Algorithm: sha1WithRSAEncryption
        Issuer: C=CN, ST=BEIJING, O=PKU, OU=MicroSoftware, CN=LIHAO/emailAddress=i@digva.com
        Validity
            Not Before: Jul 21 11:01:16 2013 GMT
            Not After : Jul 21 11:01:16 2014 GMT
        Subject: C=CN, ST=Beijing, L=24 JinYuan Road, O=SSPKU, OU=Peking University, CN=Server/emailAddress=SafeServ@sina.com
        Subject Public Key Info:
            Public Key Algorithm: rsaEncryption
                Public-Key: (1024 bit)
                Modulus:
                    00:b0:13:e1:83:e5:9c:9a:9e:36:cc:90:71:4f:ff:
                    d4:a2:b3:87:ad:e9:91:f4:b9:93:44:5d:2e:48:4e:
                    8a:4e:a6:58:6d:94:69:6f:de:ee:b8:87:73:04:1c:
                    ad:b3:03:6a:97:f9:97:5c:a9:db:34:34:53:e4:ce:
                    f4:5c:be:31:58:66:f8:66:c0:fd:11:1f:2c:cf:2e:
                    58:23:6f:0a:7a:ea:59:c7:05:73:35:96:73:05:e6:
                    61:96:01:50:c5:2d:2a:01:1f:86:a8:24:8d:5c:1c:
                    00:ca:66:9e:47:a3:68:7c:2c:84:3b:59:b8:ef:5f:
                    97:71:97:0e:ef:41:95:66:fb
                Exponent: 3 (0x3)
        X509v3 extensions:
            X509v3 Basic Constraints: 
                CA:FALSE
            Netscape Comment: 
                OpenSSL Generated Certificate
            X509v3 Subject Key Identifier: 
                81:3E:B1:E2:C8:86:59:F5:06:40:5B:AE:D3:12:4F:88:D6:52:76:42
            X509v3 Authority Key Identifier: 
                keyid:79:02:16:CF:4A:A4:4B:68:14:15:80:F1:CA:4E:B0:2F:8E:B4:BA:5E

    Signature Algorithm: sha1WithRSAEncryption
         0d:e2:f6:a4:ff:4c:0a:81:32:4d:95:66:5d:d4:e6:99:39:95:
         27:dd:9f:0e:96:0f:53:29:5f:a3:e1:5f:e1:42:4e:af:bb:c6:
         29:7f:e5:db:df:0e:62:87:bf:0a:eb:2a:4f:88:16:b9:63:b6:
         64:bc:23:d3:4b:de:b2:51:91:db:d3:3b:69:23:f9:4b:ab:8e:
         1f:83:b2:a9:93:df:f7:a5:01:98:2d:b9:67:a9:75:f4:2f:ba:
         dd:f9:c7:f8:89:3e:79:b5:5d:e5:31:20:2f:05:93:6f:2f:d7:
         d3:2a:93:60:1b:68:e2:57:dd:a3:97:9c:30:3a:d5:0b:b4:d1:
         f9:2e:44:75:41:67:44:df:21:de:b2:98:6a:5f:a1:55:b0:02:
         10:3d:44:e6:36:d1:a6:b6:66:f3:09:13:bb:cd:9a:ed:cd:a9:
         5f:1b:1b:aa:89:97:d0:1e:76:80:29:d4:a8:7e:d4:8c:07:8a:
         cc:63:8f:00:ce:6a:0b:97:c3:46:0a:59:0d:7b:3e:b1:60:67:
         8d:3b:a8:20:b2:68:cb:24:e8:78:98:58:56:81:e2:b7:7e:5e:
         e1:3a:71:d2:5e:a4:22:19:f5:0f:d8:4b:be:23:c5:db:2c:c4:
         fa:c1:bb:3c:e9:c3:3a:53:d1:a5:21:f2:b7:3f:7c:9f:72:13:
         91:31:3c:69
-----BEGIN CERTIFICATE-----
MIIDejCCAmKgAwIBAgIBBzANBgkqhkiG9w0BAQUFADBxMQswCQYDVQQGEwJDTjEQ
MA4GA1UECAwHQkVJSklORzEMMAoGA1UECgwDUEtVMRYwFAYDVQQLDA1NaWNyb1Nv
ZnR3YXJlMQ4wDAYDVQQDDAVMSUhBTzEaMBgGCSqGSIb3DQEJARYLaUBkaWd2YS5j
b20wHhcNMTMwNzIxMTEwMTE2WhcNMTQwNzIxMTEwMTE2WjCBmDELMAkGA1UEBgwC
Q04xEDAOBgNVBAgMB0JlaWppbmcxGDAWBgNVBAcMDzI0IEppbll1YW4gUm9hZDEO
MAwGA1UECgwFU1NQS1UxGjAYBgNVBAsMEVBla2luZyBVbml2ZXJzaXR5MQ8wDQYD
VQQDDAZTZXJ2ZXIxIDAeBgkqhkiG9w0BCQEWEVNhZmVTZXJ2QHNpbmEuY29tMIGd
MA0GCSqGSIb3DQEBAQUAA4GLADCBhwKBgQCwE+GD5ZyanjbMkHFP/9Sis4et6ZH0
uZNEXS5ITopOplhtlGlv3u64h3MEHK2zA2qX+Zdcqds0NFPkzvRcvjFYZvhmwP0R
HyzPLlgjbwp66lnHBXM1lnMF5mGWAVDFLSoBH4aoJI1cHADKZp5Ho2h8LIQ7Wbjv
X5dxlw7vQZVm+wIBA6N7MHkwCQYDVR0TBAIwADAsBglghkgBhvhCAQ0EHxYdT3Bl
blNTTCBHZW5lcmF0ZWQgQ2VydGlmaWNhdGUwHQYDVR0OBBYEFIE+seLIhln1BkBb
rtMST4jWUnZCMB8GA1UdIwQYMBaAFHkCFs9KpEtoFBWA8cpOsC+OtLpeMA0GCSqG
SIb3DQEBBQUAA4IBAQAN4vak/0wKgTJNlWZd1OaZOZUn3Z8Olg9TKV+j4V/hQk6v
u8Ypf+Xb3w5ih78K6ypPiBa5Y7ZkvCPTS96yUZHb0ztpI/lLq44fg7Kpk9/3pQGY
LblnqXX0L7rd+cf4iT55tV3lMSAvBZNvL9fTKpNgG2jiV92jl5wwOtULtNH5LkR1
QWdE3yHesphqX6FVsAIQPUTmNtGmtmbzCRO7zZrtzalfGxuqiZfQHnaAKdSoftSM
B4rMY48AzmoLl8NGClkNez6xYGeNO6ggsmjLJOh4mFhWgeK3fl7hOnHSXqQiGfUP
2Eu+I8XbLMT6wbs86cM6U9GlIfK3P3yfchORMTxp
-----END CERTIFICATE-----
