Certificate:
    Data:
        Version: 3 (0x2)
        Serial Number: 8 (0x8)
    Signature Algorithm: sha1WithRSAEncryption
        Issuer: C=CN, ST=BEIJING, O=PKU, OU=MicroSoftware, CN=LIHAO/emailAddress=i@digva.com
        Validity
            Not Before: Jul 21 11:03:26 2013 GMT
            Not After : Jul 21 11:03:26 2014 GMT
        Subject: C=CN, ST=Beijing, L=24 JinYuan Road, O=SSPKU, OU=Peking University, CN=SafeClient/emailAddress=SafeClient@sina.com
        Subject Public Key Info:
            Public Key Algorithm: rsaEncryption
                Public-Key: (1024 bit)
                Modulus:
                    00:c4:c1:43:90:9f:92:9f:67:de:fa:04:89:d1:8f:
                    f7:9c:b2:0b:d1:40:ac:a3:9c:95:5c:e0:fc:4d:d4:
                    bf:99:2f:9f:1e:e1:db:d8:b2:c0:d4:d0:d0:48:ea:
                    9a:15:d3:ab:41:a2:ea:83:bd:34:99:da:65:11:fb:
                    42:db:5f:f4:aa:bb:a2:6e:b9:a3:c9:0f:39:a3:93:
                    be:d3:05:eb:a2:52:ba:15:b6:fb:d6:d4:c9:59:c4:
                    75:91:6e:ff:5a:8e:ed:a0:a4:8b:17:2c:82:34:87:
                    b8:62:fd:b7:f7:8c:a0:67:cc:74:d2:3b:22:99:09:
                    cd:87:5d:7a:61:20:10:28:93
                Exponent: 3 (0x3)
        X509v3 extensions:
            X509v3 Basic Constraints: 
                CA:FALSE
            Netscape Comment: 
                OpenSSL Generated Certificate
            X509v3 Subject Key Identifier: 
                62:E7:2B:76:12:5A:4E:C4:01:41:AB:48:12:F1:78:87:B9:7A:74:33
            X509v3 Authority Key Identifier: 
                keyid:79:02:16:CF:4A:A4:4B:68:14:15:80:F1:CA:4E:B0:2F:8E:B4:BA:5E

    Signature Algorithm: sha1WithRSAEncryption
         a2:89:e8:4a:66:a4:2a:99:4c:6f:39:f7:e9:ca:6d:68:76:14:
         d3:61:a8:24:1e:03:fd:e2:99:b4:70:81:f6:91:cd:67:63:98:
         7e:0c:62:59:36:b7:51:77:5c:d8:3c:1e:b0:08:ff:53:56:38:
         5e:54:a6:24:36:5f:5d:c6:d0:e0:4d:b3:c5:e4:5f:14:06:7e:
         f4:9e:c3:18:26:68:f8:11:77:48:ee:b9:ca:56:f6:3a:13:31:
         24:73:09:b8:24:12:d6:60:e4:0b:06:2c:15:eb:d5:17:d1:34:
         18:72:05:f3:2d:d0:fa:29:ea:53:6a:a1:78:3d:3f:e4:82:72:
         c0:ec:55:a8:2f:19:95:22:9a:76:a9:90:9b:64:6a:b3:43:43:
         89:ef:51:00:c0:5f:b0:ea:66:fd:b0:68:89:2c:e6:75:0c:c0:
         81:4a:eb:4f:03:2f:9c:83:c3:94:b5:d6:fd:93:3c:88:59:05:
         a7:fa:80:91:5b:7b:2f:90:3f:05:b4:76:6f:9c:68:c4:52:4c:
         7d:7d:c5:1e:6b:a8:3e:0e:34:6b:64:9e:a1:5c:43:92:c8:30:
         be:97:bb:c1:00:fd:48:3a:c2:a0:6b:4e:73:a0:06:ff:6b:4b:
         44:2b:53:66:44:b0:ec:c8:bc:f6:38:0c:74:bf:bc:3e:a6:fd:
         bc:65:65:ab
-----BEGIN CERTIFICATE-----
MIIDgDCCAmigAwIBAgIBCDANBgkqhkiG9w0BAQUFADBxMQswCQYDVQQGEwJDTjEQ
MA4GA1UECAwHQkVJSklORzEMMAoGA1UECgwDUEtVMRYwFAYDVQQLDA1NaWNyb1Nv
ZnR3YXJlMQ4wDAYDVQQDDAVMSUhBTzEaMBgGCSqGSIb3DQEJARYLaUBkaWd2YS5j
b20wHhcNMTMwNzIxMTEwMzI2WhcNMTQwNzIxMTEwMzI2WjCBnjELMAkGA1UEBgwC
Q04xEDAOBgNVBAgMB0JlaWppbmcxGDAWBgNVBAcMDzI0IEppbll1YW4gUm9hZDEO
MAwGA1UECgwFU1NQS1UxGjAYBgNVBAsMEVBla2luZyBVbml2ZXJzaXR5MRMwEQYD
VQQDDApTYWZlQ2xpZW50MSIwIAYJKoZIhvcNAQkBFhNTYWZlQ2xpZW50QHNpbmEu
Y29tMIGdMA0GCSqGSIb3DQEBAQUAA4GLADCBhwKBgQDEwUOQn5KfZ976BInRj/ec
sgvRQKyjnJVc4PxN1L+ZL58e4dvYssDU0NBI6poV06tBouqDvTSZ2mUR+0LbX/Sq
u6JuuaPJDzmjk77TBeuiUroVtvvW1MlZxHWRbv9aju2gpIsXLII0h7hi/bf3jKBn
zHTSOyKZCc2HXXphIBAokwIBA6N7MHkwCQYDVR0TBAIwADAsBglghkgBhvhCAQ0E
HxYdT3BlblNTTCBHZW5lcmF0ZWQgQ2VydGlmaWNhdGUwHQYDVR0OBBYEFGLnK3YS
Wk7EAUGrSBLxeIe5enQzMB8GA1UdIwQYMBaAFHkCFs9KpEtoFBWA8cpOsC+OtLpe
MA0GCSqGSIb3DQEBBQUAA4IBAQCiiehKZqQqmUxvOffpym1odhTTYagkHgP94pm0
cIH2kc1nY5h+DGJZNrdRd1zYPB6wCP9TVjheVKYkNl9dxtDgTbPF5F8UBn70nsMY
Jmj4EXdI7rnKVvY6EzEkcwm4JBLWYOQLBiwV69UX0TQYcgXzLdD6KepTaqF4PT/k
gnLA7FWoLxmVIpp2qZCbZGqzQ0OJ71EAwF+w6mb9sGiJLOZ1DMCBSutPAy+cg8OU
tdb9kzyIWQWn+oCRW3svkD8FtHZvnGjEUkx9fcUea6g+DjRrZJ6hXEOSyDC+l7vB
AP1IOsKga05zoAb/a0tEK1NmRLDsyLz2OAx0v7w+pv28ZWWr
-----END CERTIFICATE-----
