Certificate:
    Data:
        Version: 3 (0x2)
        Serial Number: 9 (0x9)
    Signature Algorithm: sha1WithRSAEncryption
        Issuer: C=CN, ST=BEIJING, O=PKU, OU=MicroSoftware, CN=LIHAO/emailAddress=i@digva.com
        Validity
            Not Before: Jul 21 11:07:16 2013 GMT
            Not After : Jul 21 11:07:16 2014 GMT
        Subject: C=CN, ST=Beijing, L=24 JinYuan Road, O=SSPKU, OU=Peking University, CN=SafeClient/emailAddress=SafeClient@sina.com
        Subject Public Key Info:
            Public Key Algorithm: rsaEncryption
                Public-Key: (1024 bit)
                Modulus:
                    00:e5:05:d5:52:c2:7c:ef:fc:6b:db:b3:93:7d:2a:
                    74:59:e3:74:6b:bc:c2:5f:a5:9c:6f:db:45:dc:0f:
                    16:02:f1:89:87:69:f7:cd:af:3b:81:6c:d8:59:b6:
                    52:50:49:2a:e6:fa:ce:75:df:4d:ca:97:68:92:79:
                    55:d3:3b:dd:ce:56:4b:a5:d0:06:4c:75:04:53:ba:
                    f7:82:d9:70:09:63:0e:38:2b:43:d5:3d:ff:1b:8d:
                    75:2a:3c:0f:78:cb:c4:3c:56:5e:82:52:63:63:74:
                    59:a3:bf:c6:fc:bd:7e:67:b5:e4:b0:dc:f4:fa:6a:
                    3b:b8:4d:41:03:cf:26:db:e7
                Exponent: 3 (0x3)
        X509v3 extensions:
            X509v3 Basic Constraints: 
                CA:FALSE
            Netscape Comment: 
                OpenSSL Generated Certificate
            X509v3 Subject Key Identifier: 
                98:B2:88:14:84:7F:22:5E:DF:39:BF:37:DE:4C:E0:89:56:F7:F6:0E
            X509v3 Authority Key Identifier: 
                keyid:79:02:16:CF:4A:A4:4B:68:14:15:80:F1:CA:4E:B0:2F:8E:B4:BA:5E

    Signature Algorithm: sha1WithRSAEncryption
         ae:07:6a:90:17:10:67:3f:f3:05:6b:4a:b6:42:0d:32:79:9e:
         be:a9:76:6f:7f:37:9c:fa:ee:ad:48:25:51:66:5f:11:63:be:
         54:31:45:47:d5:73:44:de:93:9b:06:06:5d:73:21:ee:43:36:
         0b:4a:33:2d:2c:08:cf:61:f3:65:0b:68:45:25:bc:09:50:6a:
         ae:0d:ad:e5:0b:04:41:db:62:0f:f9:a8:d6:c1:c6:5b:fd:42:
         d6:16:0c:81:cd:ff:79:ba:b5:8c:bd:e0:60:24:97:48:78:8a:
         70:a7:1e:6a:ab:58:6b:8f:cf:60:9a:97:11:ce:95:97:a1:e0:
         e2:37:3b:3f:0c:1f:95:3e:0f:06:96:65:fd:02:2d:8a:ac:b9:
         52:c7:fb:58:89:fd:10:2d:d8:51:41:3c:39:1c:3a:79:a8:37:
         52:6c:de:53:c3:cb:26:8d:4d:81:be:7d:cd:1e:58:35:89:04:
         6a:f1:59:b5:c5:8c:bf:5e:29:b5:27:e9:31:8a:db:9a:c9:70:
         64:08:4f:b8:79:d0:77:f4:83:40:4f:f4:7a:b4:4c:74:46:51:
         e5:6f:b0:16:16:2f:4d:e1:dc:57:b2:4b:ce:b2:69:50:72:13:
         8a:72:3b:2b:c8:f8:3e:4f:93:6d:fe:e1:8f:62:4e:b5:23:6e:
         82:95:c4:a5
-----BEGIN CERTIFICATE-----
MIIDgDCCAmigAwIBAgIBCTANBgkqhkiG9w0BAQUFADBxMQswCQYDVQQGEwJDTjEQ
MA4GA1UECAwHQkVJSklORzEMMAoGA1UECgwDUEtVMRYwFAYDVQQLDA1NaWNyb1Nv
ZnR3YXJlMQ4wDAYDVQQDDAVMSUhBTzEaMBgGCSqGSIb3DQEJARYLaUBkaWd2YS5j
b20wHhcNMTMwNzIxMTEwNzE2WhcNMTQwNzIxMTEwNzE2WjCBnjELMAkGA1UEBgwC
Q04xEDAOBgNVBAgMB0JlaWppbmcxGDAWBgNVBAcMDzI0IEppbll1YW4gUm9hZDEO
MAwGA1UECgwFU1NQS1UxGjAYBgNVBAsMEVBla2luZyBVbml2ZXJzaXR5MRMwEQYD
VQQDDApTYWZlQ2xpZW50MSIwIAYJKoZIhvcNAQkBFhNTYWZlQ2xpZW50QHNpbmEu
Y29tMIGdMA0GCSqGSIb3DQEBAQUAA4GLADCBhwKBgQDlBdVSwnzv/Gvbs5N9KnRZ
43RrvMJfpZxv20XcDxYC8YmHaffNrzuBbNhZtlJQSSrm+s51303Kl2iSeVXTO93O
Vkul0AZMdQRTuveC2XAJYw44K0PVPf8bjXUqPA94y8Q8Vl6CUmNjdFmjv8b8vX5n
teSw3PT6aju4TUEDzybb5wIBA6N7MHkwCQYDVR0TBAIwADAsBglghkgBhvhCAQ0E
HxYdT3BlblNTTCBHZW5lcmF0ZWQgQ2VydGlmaWNhdGUwHQYDVR0OBBYEFJiyiBSE
fyJe3zm/N95M4IlW9/YOMB8GA1UdIwQYMBaAFHkCFs9KpEtoFBWA8cpOsC+OtLpe
MA0GCSqGSIb3DQEBBQUAA4IBAQCuB2qQFxBnP/MFa0q2Qg0yeZ6+qXZvfzec+u6t
SCVRZl8RY75UMUVH1XNE3pObBgZdcyHuQzYLSjMtLAjPYfNlC2hFJbwJUGquDa3l
CwRB22IP+ajWwcZb/ULWFgyBzf95urWMveBgJJdIeIpwpx5qq1hrj89gmpcRzpWX
oeDiNzs/DB+VPg8GlmX9Ai2KrLlSx/tYif0QLdhRQTw5HDp5qDdSbN5Tw8smjU2B
vn3NHlg1iQRq8Vm1xYy/Xim1J+kxituayXBkCE+4edB39INAT/R6tEx0RlHlb7AW
Fi9N4dxXskvOsmlQchOKcjsryPg+T5Nt/uGPYk61I26ClcSl
-----END CERTIFICATE-----
