Certificate:
    Data:
        Version: 3 (0x2)
        Serial Number: 10 (0xa)
    Signature Algorithm: sha1WithRSAEncryption
        Issuer: C=CN, ST=BEIJING, O=PKU, OU=MicroSoftware, CN=LIHAO/emailAddress=i@digva.com
        Validity
            Not Before: Jul 21 11:32:55 2013 GMT
            Not After : Jul 21 11:32:55 2014 GMT
        Subject: C=CN, ST=Beijing, L=24 JinYuan Road, O=SSPKU, OU=Peking University, CN=SafeClient/emailAddress=SafeClient@sina.com
        Subject Public Key Info:
            Public Key Algorithm: rsaEncryption
                Public-Key: (1024 bit)
                Modulus:
                    00:d6:6d:3f:d1:48:4b:e1:8e:c3:71:b3:0d:40:97:
                    c7:8f:71:9b:d6:3a:8c:26:dc:ef:20:ca:59:fd:ee:
                    62:11:92:e8:43:d4:94:e0:f2:e8:36:4d:92:81:23:
                    66:ab:90:5b:05:85:a3:fd:4f:e2:bc:b5:6c:39:fc:
                    50:8d:64:b6:20:a7:9e:5d:d7:0b:c9:fa:2d:bb:bb:
                    45:e3:13:fe:db:7f:15:72:e0:06:85:7b:29:b1:74:
                    4f:11:27:e3:c8:18:49:c4:b8:2a:fe:e0:12:97:53:
                    0b:9a:45:ec:42:12:93:2f:c5:c6:01:7e:62:95:f1:
                    cd:0d:56:e4:84:72:f1:ac:83
                Exponent: 3 (0x3)
        X509v3 extensions:
            X509v3 Basic Constraints: 
                CA:FALSE
            Netscape Comment: 
                OpenSSL Generated Certificate
            X509v3 Subject Key Identifier: 
                1F:65:D6:A0:D3:F7:20:1D:AE:E3:20:AC:EF:8B:FB:73:9D:97:BC:07
            X509v3 Authority Key Identifier: 
                keyid:79:02:16:CF:4A:A4:4B:68:14:15:80:F1:CA:4E:B0:2F:8E:B4:BA:5E

    Signature Algorithm: sha1WithRSAEncryption
         75:a2:d9:f6:fc:ac:6a:5c:71:4a:bf:f7:a7:f5:8b:0a:5f:e0:
         54:81:cf:0f:52:f6:5c:c4:84:ea:da:74:6b:23:b7:19:42:8f:
         5a:d6:56:e7:5c:c5:33:84:10:1e:68:f6:fc:5d:86:5e:cc:e7:
         5d:6e:34:62:d5:7d:4d:b8:7d:b3:96:a0:2c:50:2c:fe:14:76:
         f9:4c:28:9c:bb:77:5f:ab:1b:25:fb:2c:cc:cd:40:9d:81:70:
         17:3a:b0:cd:79:4e:34:66:67:eb:f3:22:28:73:4e:0b:ae:f2:
         9d:aa:59:c7:ee:e8:df:07:a6:b4:ce:c4:03:1b:34:6d:39:8e:
         20:9f:b3:b9:bc:bf:ad:ee:87:f0:9a:bf:21:b6:18:4e:cb:84:
         40:1f:40:ae:12:75:0f:af:22:67:29:6e:48:d8:96:e8:48:f8:
         6b:f8:94:61:d2:d2:c8:c9:1a:9c:b4:4a:04:4a:93:42:67:e5:
         1a:e8:db:a6:f7:a9:8b:e1:e7:6a:10:65:40:79:8c:35:4f:28:
         a7:7d:d0:9b:1e:75:4d:ea:ab:16:01:11:70:23:9f:bc:d3:cc:
         1f:fc:e6:b1:9d:a3:3d:81:51:c7:05:a9:a8:99:2d:d2:a8:41:
         43:c0:11:31:e6:8a:b6:69:21:9a:25:d9:13:2f:c1:e2:8e:bc:
         1f:47:5c:e7
-----BEGIN CERTIFICATE-----
MIIDgDCCAmigAwIBAgIBCjANBgkqhkiG9w0BAQUFADBxMQswCQYDVQQGEwJDTjEQ
MA4GA1UECAwHQkVJSklORzEMMAoGA1UECgwDUEtVMRYwFAYDVQQLDA1NaWNyb1Nv
ZnR3YXJlMQ4wDAYDVQQDDAVMSUhBTzEaMBgGCSqGSIb3DQEJARYLaUBkaWd2YS5j
b20wHhcNMTMwNzIxMTEzMjU1WhcNMTQwNzIxMTEzMjU1WjCBnjELMAkGA1UEBgwC
Q04xEDAOBgNVBAgMB0JlaWppbmcxGDAWBgNVBAcMDzI0IEppbll1YW4gUm9hZDEO
MAwGA1UECgwFU1NQS1UxGjAYBgNVBAsMEVBla2luZyBVbml2ZXJzaXR5MRMwEQYD
VQQDDApTYWZlQ2xpZW50MSIwIAYJKoZIhvcNAQkBFhNTYWZlQ2xpZW50QHNpbmEu
Y29tMIGdMA0GCSqGSIb3DQEBAQUAA4GLADCBhwKBgQDWbT/RSEvhjsNxsw1Al8eP
cZvWOowm3O8gyln97mIRkuhD1JTg8ug2TZKBI2arkFsFhaP9T+K8tWw5/FCNZLYg
p55d1wvJ+i27u0XjE/7bfxVy4AaFeymxdE8RJ+PIGEnEuCr+4BKXUwuaRexCEpMv
xcYBfmKV8c0NVuSEcvGsgwIBA6N7MHkwCQYDVR0TBAIwADAsBglghkgBhvhCAQ0E
HxYdT3BlblNTTCBHZW5lcmF0ZWQgQ2VydGlmaWNhdGUwHQYDVR0OBBYEFB9l1qDT
9yAdruMgrO+L+3Odl7wHMB8GA1UdIwQYMBaAFHkCFs9KpEtoFBWA8cpOsC+OtLpe
MA0GCSqGSIb3DQEBBQUAA4IBAQB1otn2/KxqXHFKv/en9YsKX+BUgc8PUvZcxITq
2nRrI7cZQo9a1lbnXMUzhBAeaPb8XYZezOddbjRi1X1NuH2zlqAsUCz+FHb5TCic
u3dfqxsl+yzMzUCdgXAXOrDNeU40Zmfr8yIoc04LrvKdqlnH7ujfB6a0zsQDGzRt
OY4gn7O5vL+t7ofwmr8hthhOy4RAH0CuEnUPryJnKW5I2JboSPhr+JRh0tLIyRqc
tEoESpNCZ+Ua6Num96mL4edqEGVAeYw1TyinfdCbHnVN6qsWARFwI5+808wf/Oax
naM9gVHHBamomS3SqEFDwBEx5oq2aSGaJdkTL8HijrwfR1zn
-----END CERTIFICATE-----
