Certificate:
    Data:
        Version: 3 (0x2)
        Serial Number: 11 (0xb)
    Signature Algorithm: sha1WithRSAEncryption
        Issuer: C=CN, ST=BEIJING, O=PKU, OU=MicroSoftware, CN=LIHAO/emailAddress=i@digva.com
        Validity
            Not Before: Jul 31 02:26:18 2013 GMT
            Not After : Jul 31 02:26:18 2014 GMT
        Subject: C=CN, ST=BEIJING, L=BEIJING, O=PKU, OU=SSPKU, CN=TEST2/emailAddress=TEST2@TEST.COM
        Subject Public Key Info:
            Public Key Algorithm: rsaEncryption
                Public-Key: (512 bit)
                Modulus:
                    00:b6:7e:48:0b:89:a0:81:d8:01:16:5e:13:01:d4:
                    26:62:4f:29:81:08:e6:15:1c:70:60:38:ad:f9:2d:
                    89:0b:33:5e:22:7d:e8:ce:ae:fd:d4:69:50:13:30:
                    4e:48:1b:23:8f:72:e6:06:d5:e3:33:d1:b1:b9:3b:
                    be:a5:74:b8:01
                Exponent: 3 (0x3)
        X509v3 extensions:
            X509v3 Basic Constraints: 
                CA:FALSE
            Netscape Comment: 
                OpenSSL Generated Certificate
            X509v3 Subject Key Identifier: 
                3C:77:38:36:B6:46:FC:70:47:8D:FC:C9:FF:75:DC:D1:5A:7A:78:FE
            X509v3 Authority Key Identifier: 
                keyid:79:02:16:CF:4A:A4:4B:68:14:15:80:F1:CA:4E:B0:2F:8E:B4:BA:5E

    Signature Algorithm: sha1WithRSAEncryption
         2c:75:a7:87:cc:f3:27:43:fb:10:9d:e1:65:90:4d:db:e5:0f:
         db:d5:4f:aa:e7:d0:bc:dc:0d:38:e1:98:ba:40:c9:fa:2f:f0:
         c7:33:fc:f9:12:c8:50:b8:ab:2d:7e:7a:60:0d:53:45:32:10:
         5f:bb:8f:71:62:b3:a5:b7:7e:76:34:53:fb:63:15:a1:79:cd:
         1a:b9:2a:b5:c3:9d:b7:6e:bd:aa:e8:44:8a:7b:b2:14:fe:e1:
         16:13:1f:1d:08:65:5f:9f:e7:b0:b4:01:12:9c:4a:47:5c:8d:
         3f:df:86:e2:6f:5b:80:69:8f:d4:d3:a9:90:be:59:30:4b:48:
         20:56:e5:c8:fb:c7:4c:d6:c4:29:2c:29:c5:89:5f:0e:a0:2e:
         ad:39:35:e2:b4:e7:e0:b1:40:cc:e8:b5:f1:b8:b6:c9:0c:7d:
         17:81:df:cb:09:d9:84:83:64:6a:dc:4b:cf:b3:56:8f:94:82:
         2c:53:ee:60:e2:32:4c:b6:88:f9:8f:26:b7:a2:9b:6f:2c:89:
         ee:0d:99:72:ee:fd:79:12:66:46:b9:98:7c:a6:bb:64:dd:70:
         01:db:d7:d5:5b:6b:63:65:a1:38:ef:23:52:73:3f:e9:83:18:
         e7:1e:91:11:01:9a:86:fe:f8:83:6f:57:e7:0f:5e:24:21:c1:
         1d:6c:4e:42
-----BEGIN CERTIFICATE-----
MIIDGzCCAgOgAwIBAgIBCzANBgkqhkiG9w0BAQUFADBxMQswCQYDVQQGEwJDTjEQ
MA4GA1UECAwHQkVJSklORzEMMAoGA1UECgwDUEtVMRYwFAYDVQQLDA1NaWNyb1Nv
ZnR3YXJlMQ4wDAYDVQQDDAVMSUhBTzEaMBgGCSqGSIb3DQEJARYLaUBkaWd2YS5j
b20wHhcNMTMwNzMxMDIyNjE4WhcNMTQwNzMxMDIyNjE4WjB+MQswCQYDVQQGDAJD
TjEQMA4GA1UECAwHQkVJSklORzEQMA4GA1UEBwwHQkVJSklORzEMMAoGA1UECgwD
UEtVMQ4wDAYDVQQLDAVTU1BLVTEOMAwGA1UEAwwFVEVTVDIxHTAbBgkqhkiG9w0B
CQEWDlRFU1QyQFRFU1QuQ09NMFowDQYJKoZIhvcNAQEBBQADSQAwRgJBALZ+SAuJ
oIHYARZeEwHUJmJPKYEI5hUccGA4rfktiQszXiJ96M6u/dRpUBMwTkgbI49y5gbV
4zPRsbk7vqV0uAECAQOjezB5MAkGA1UdEwQCMAAwLAYJYIZIAYb4QgENBB8WHU9w
ZW5TU0wgR2VuZXJhdGVkIENlcnRpZmljYXRlMB0GA1UdDgQWBBQ8dzg2tkb8cEeN
/Mn/ddzRWnp4/jAfBgNVHSMEGDAWgBR5AhbPSqRLaBQVgPHKTrAvjrS6XjANBgkq
hkiG9w0BAQUFAAOCAQEALHWnh8zzJ0P7EJ3hZZBN2+UP29VPqufQvNwNOOGYukDJ
+i/wxzP8+RLIULirLX56YA1TRTIQX7uPcWKzpbd+djRT+2MVoXnNGrkqtcOdt269
quhEinuyFP7hFhMfHQhlX5/nsLQBEpxKR1yNP9+G4m9bgGmP1NOpkL5ZMEtIIFbl
yPvHTNbEKSwpxYlfDqAurTk14rTn4LFAzOi18bi2yQx9F4HfywnZhINkatxLz7NW
j5SCLFPuYOIyTLaI+Y8mt6KbbyyJ7g2Zcu79eRJmRrmYfKa7ZN1wAdvX1VtrY2Wh
OO8jUnM/6YMY5x6REQGahv74g29X5w9eJCHBHWxOQg==
-----END CERTIFICATE-----
