Certificate:
    Data:
        Version: 3 (0x2)
        Serial Number: 12 (0xc)
    Signature Algorithm: sha1WithRSAEncryption
        Issuer: C=CN, ST=BEIJING, O=PKU, OU=MicroSoftware, CN=LIHAO/emailAddress=i@digva.com
        Validity
            Not Before: Jul 31 02:36:02 2013 GMT
            Not After : Jul 31 02:36:02 2014 GMT
        Subject: C=CN, ST=BEIJING, L=BEIJING, O=PKU, OU=SSPKU, CN=TEST3/emailAddress=TEST2@TEST.COM
        Subject Public Key Info:
            Public Key Algorithm: rsaEncryption
                Public-Key: (512 bit)
                Modulus:
                    00:e9:1f:19:e4:e9:c3:0e:67:22:e7:e3:e2:f8:b7:
                    f6:5d:80:a5:6c:ac:05:db:40:5c:20:64:98:4d:df:
                    98:a0:c0:95:f1:b7:1a:85:83:3b:aa:8f:45:68:50:
                    b2:d0:66:db:c3:e3:31:32:cc:58:39:75:d1:e0:f5:
                    94:bd:f5:1c:21
                Exponent: 3 (0x3)
        X509v3 extensions:
            X509v3 Basic Constraints: 
                CA:FALSE
            Netscape Comment: 
                OpenSSL Generated Certificate
            X509v3 Subject Key Identifier: 
                57:5B:F6:82:06:F7:9E:01:24:9D:3E:4F:2D:12:DF:E1:10:75:C5:65
            X509v3 Authority Key Identifier: 
                keyid:79:02:16:CF:4A:A4:4B:68:14:15:80:F1:CA:4E:B0:2F:8E:B4:BA:5E

    Signature Algorithm: sha1WithRSAEncryption
         07:59:4b:fa:36:4c:9b:ab:29:bf:8f:dc:86:4e:7f:91:98:c9:
         c2:e3:1b:4c:8c:e4:52:18:9a:50:09:71:47:94:90:e0:de:0e:
         05:99:e2:af:59:ff:5e:20:82:52:74:9a:13:80:4c:44:ba:fa:
         69:59:d0:b1:0e:84:15:df:bc:5d:c2:a0:67:2c:5d:07:25:ea:
         f1:b3:d6:31:6d:85:24:12:0d:5a:65:7f:f8:28:70:f7:ad:aa:
         ef:74:31:ba:d1:ce:8f:de:ad:6c:72:4a:ea:dc:ba:71:93:b1:
         07:67:4e:f3:51:37:3c:15:47:82:81:e6:06:b1:be:a5:1f:50:
         90:90:8f:87:7a:06:df:7f:cc:46:18:8a:82:2b:c6:a6:5f:f3:
         dd:9f:4e:25:d3:ed:98:21:e6:7b:26:25:3b:1b:e1:62:39:d8:
         88:88:bb:1b:9d:42:07:05:46:6a:a6:74:a8:86:65:7c:bd:fd:
         8c:dd:46:7f:25:9f:f8:dc:b5:f6:02:c4:2b:28:82:97:c3:53:
         d8:0f:4f:94:ab:a7:5e:76:57:09:a7:e2:d0:c1:51:53:4f:47:
         33:a6:77:74:10:18:89:8d:94:1b:e1:93:7d:12:83:84:a2:fb:
         12:13:5e:e0:c1:b9:23:c5:94:52:e4:1c:96:07:bb:9a:cc:db:
         54:c8:f9:e0
-----BEGIN CERTIFICATE-----
MIIDGzCCAgOgAwIBAgIBDDANBgkqhkiG9w0BAQUFADBxMQswCQYDVQQGEwJDTjEQ
MA4GA1UECAwHQkVJSklORzEMMAoGA1UECgwDUEtVMRYwFAYDVQQLDA1NaWNyb1Nv
ZnR3YXJlMQ4wDAYDVQQDDAVMSUhBTzEaMBgGCSqGSIb3DQEJARYLaUBkaWd2YS5j
b20wHhcNMTMwNzMxMDIzNjAyWhcNMTQwNzMxMDIzNjAyWjB+MQswCQYDVQQGDAJD
TjEQMA4GA1UECAwHQkVJSklORzEQMA4GA1UEBwwHQkVJSklORzEMMAoGA1UECgwD
UEtVMQ4wDAYDVQQLDAVTU1BLVTEOMAwGA1UEAwwFVEVTVDMxHTAbBgkqhkiG9w0B
CQEWDlRFU1QyQFRFU1QuQ09NMFowDQYJKoZIhvcNAQEBBQADSQAwRgJBAOkfGeTp
ww5nIufj4vi39l2ApWysBdtAXCBkmE3fmKDAlfG3GoWDO6qPRWhQstBm28PjMTLM
WDl10eD1lL31HCECAQOjezB5MAkGA1UdEwQCMAAwLAYJYIZIAYb4QgENBB8WHU9w
ZW5TU0wgR2VuZXJhdGVkIENlcnRpZmljYXRlMB0GA1UdDgQWBBRXW/aCBveeASSd
Pk8tEt/hEHXFZTAfBgNVHSMEGDAWgBR5AhbPSqRLaBQVgPHKTrAvjrS6XjANBgkq
hkiG9w0BAQUFAAOCAQEAB1lL+jZMm6spv4/chk5/kZjJwuMbTIzkUhiaUAlxR5SQ
4N4OBZnir1n/XiCCUnSaE4BMRLr6aVnQsQ6EFd+8XcKgZyxdByXq8bPWMW2FJBIN
WmV/+Chw962q73QxutHOj96tbHJK6ty6cZOxB2dO81E3PBVHgoHmBrG+pR9QkJCP
h3oG33/MRhiKgivGpl/z3Z9OJdPtmCHmeyYlOxvhYjnYiIi7G51CBwVGaqZ0qIZl
fL39jN1GfyWf+Ny19gLEKyiCl8NT2A9PlKunXnZXCafi0MFRU09HM6Z3dBAYiY2U
G+GTfRKDhKL7EhNe4MG5I8WUUuQclge7mszbVMj54A==
-----END CERTIFICATE-----
