Certificate:
    Data:
        Version: 3 (0x2)
        Serial Number: 13 (0xd)
    Signature Algorithm: sha1WithRSAEncryption
        Issuer: C=CN, ST=BEIJING, O=PKU, OU=MicroSoftware, CN=LIHAO/emailAddress=i@digva.com
        Validity
            Not Before: Jul 31 02:41:55 2013 GMT
            Not After : Jul 31 02:41:55 2014 GMT
        Subject: C=CN, ST=BEIJING, L=BEIJING, O=PKU, OU=SSPKU, CN=TEST4/emailAddress=TEST4@TEST.COM
        Subject Public Key Info:
            Public Key Algorithm: rsaEncryption
                Public-Key: (1024 bit)
                Modulus:
                    00:d9:30:f3:ba:8f:30:47:86:91:ea:01:13:39:6b:
                    3a:f2:69:82:de:4b:d7:8c:36:11:6a:4a:24:c5:93:
                    48:a3:68:36:8a:15:b7:2a:30:94:02:3f:ab:6e:04:
                    ee:81:ef:95:34:04:d7:bc:cd:d3:40:e7:17:b9:bd:
                    78:6b:fd:17:e4:9f:a0:10:55:ac:0c:b0:02:f8:7f:
                    bf:a6:eb:d4:c9:58:6c:89:51:6d:47:6d:0b:f2:d8:
                    80:90:da:86:e4:28:50:00:8f:25:23:50:4d:fa:e6:
                    65:16:d6:38:f0:e0:9a:14:81:bb:56:1c:e1:64:bf:
                    c6:fa:4e:6c:f3:51:50:5c:b3
                Exponent: 3 (0x3)
        X509v3 extensions:
            X509v3 Basic Constraints: 
                CA:FALSE
            Netscape Comment: 
                OpenSSL Generated Certificate
            X509v3 Subject Key Identifier: 
                3D:E4:85:6D:62:E7:44:9A:66:9C:40:D8:CF:53:0C:E1:24:E6:DD:CF
            X509v3 Authority Key Identifier: 
                keyid:79:02:16:CF:4A:A4:4B:68:14:15:80:F1:CA:4E:B0:2F:8E:B4:BA:5E

    Signature Algorithm: sha1WithRSAEncryption
         52:a3:1c:1f:dc:e9:3e:1f:5a:28:3f:68:fa:48:2b:32:93:0f:
         15:dc:d0:b8:01:dc:a0:0f:1f:d3:7e:c8:6f:7a:56:b5:a5:e6:
         74:04:0e:5d:64:d5:e6:23:54:71:2b:6f:56:b5:a8:79:f8:2a:
         c2:7e:3b:ff:9f:bb:6a:43:c6:01:5b:1c:85:b6:df:3a:5a:1d:
         de:cd:5b:15:64:e4:29:62:14:2b:a0:33:94:b7:d9:6f:48:04:
         81:2b:a5:a5:26:04:10:aa:e0:a8:36:47:8a:df:30:bc:dc:d0:
         eb:97:31:06:bc:18:41:27:ab:0a:f8:f5:ff:92:79:28:4a:c6:
         94:b4:75:ea:6b:99:d4:5a:14:dd:e2:d4:38:e5:73:39:8d:f2:
         d0:1b:f0:e1:16:61:6c:ca:4a:5d:06:aa:44:a1:96:c8:5c:c5:
         37:13:06:85:ea:a2:e7:ba:b2:27:f1:98:b2:56:8b:2c:de:bc:
         f3:3a:95:0a:b7:85:1a:c3:16:ae:f7:ac:f2:95:78:12:6a:f7:
         88:69:e4:0d:78:dc:5a:26:0a:64:01:10:72:2a:ca:0e:e6:2e:
         32:fe:e2:78:3c:aa:68:68:25:d2:ac:60:fe:ff:db:11:91:d3:
         05:3f:a8:6b:cc:cb:7c:4c:e5:0f:02:7f:19:b7:7b:53:b2:b7:
         ac:d3:9b:61
-----BEGIN CERTIFICATE-----
MIIDXzCCAkegAwIBAgIBDTANBgkqhkiG9w0BAQUFADBxMQswCQYDVQQGEwJDTjEQ
MA4GA1UECAwHQkVJSklORzEMMAoGA1UECgwDUEtVMRYwFAYDVQQLDA1NaWNyb1Nv
ZnR3YXJlMQ4wDAYDVQQDDAVMSUhBTzEaMBgGCSqGSIb3DQEJARYLaUBkaWd2YS5j
b20wHhcNMTMwNzMxMDI0MTU1WhcNMTQwNzMxMDI0MTU1WjB+MQswCQYDVQQGDAJD
TjEQMA4GA1UECAwHQkVJSklORzEQMA4GA1UEBwwHQkVJSklORzEMMAoGA1UECgwD
UEtVMQ4wDAYDVQQLDAVTU1BLVTEOMAwGA1UEAwwFVEVTVDQxHTAbBgkqhkiG9w0B
CQEWDlRFU1Q0QFRFU1QuQ09NMIGdMA0GCSqGSIb3DQEBAQUAA4GLADCBhwKBgQDZ
MPO6jzBHhpHqARM5azryaYLeS9eMNhFqSiTFk0ijaDaKFbcqMJQCP6tuBO6B75U0
BNe8zdNA5xe5vXhr/Rfkn6AQVawMsAL4f7+m69TJWGyJUW1HbQvy2ICQ2obkKFAA
jyUjUE365mUW1jjw4JoUgbtWHOFkv8b6TmzzUVBcswIBA6N7MHkwCQYDVR0TBAIw
ADAsBglghkgBhvhCAQ0EHxYdT3BlblNTTCBHZW5lcmF0ZWQgQ2VydGlmaWNhdGUw
HQYDVR0OBBYEFD3khW1i50SaZpxA2M9TDOEk5t3PMB8GA1UdIwQYMBaAFHkCFs9K
pEtoFBWA8cpOsC+OtLpeMA0GCSqGSIb3DQEBBQUAA4IBAQBSoxwf3Ok+H1ooP2j6
SCsykw8V3NC4AdygDx/Tfshvela1peZ0BA5dZNXmI1RxK29Wtah5+CrCfjv/n7tq
Q8YBWxyFtt86Wh3ezVsVZOQpYhQroDOUt9lvSASBK6WlJgQQquCoNkeK3zC83NDr
lzEGvBhBJ6sK+PX/knkoSsaUtHXqa5nUWhTd4tQ45XM5jfLQG/DhFmFsykpdBqpE
oZbIXMU3EwaF6qLnurIn8ZiyVoss3rzzOpUKt4Uawxau96zylXgSaveIaeQNeNxa
JgpkARByKsoO5i4y/uJ4PKpoaCXSrGD+/9sRkdMFP6hrzMt8TOUPAn8Zt3tTsres
05th
-----END CERTIFICATE-----
