Certificate:
    Data:
        Version: 3 (0x2)
        Serial Number: 14 (0xe)
    Signature Algorithm: sha1WithRSAEncryption
        Issuer: C=CN, ST=BEIJING, O=PKU, OU=MicroSoftware, CN=LIHAO/emailAddress=i@digva.com
        Validity
            Not Before: Jul 31 08:08:32 2013 GMT
            Not After : Jul 31 08:08:32 2014 GMT
        Subject: C=CN, ST=Beijing, L=24 JinYuan Road, O=SSPKU, OU=Peking University, CN=SafeClientqt/emailAddress=SafeClient@sina.com
        Subject Public Key Info:
            Public Key Algorithm: rsaEncryption
                Public-Key: (1024 bit)
                Modulus:
                    00:da:0c:6f:ac:92:33:f4:b4:76:97:63:54:30:c5:
                    0f:fc:e1:42:0d:a3:59:5b:82:60:45:04:86:9a:2f:
                    32:74:d6:44:5e:5b:fe:55:b9:0d:68:56:99:43:4f:
                    9f:13:88:3a:43:7e:3d:47:6f:95:c3:c0:c5:a4:a2:
                    9a:ec:5b:ff:f7:a7:ae:15:d0:c3:4c:ce:82:bd:a0:
                    b9:ce:2e:30:5e:ad:00:c1:a0:cb:2a:11:e7:4f:42:
                    69:76:33:78:00:3b:53:67:42:01:44:ba:98:a0:80:
                    f6:fa:20:8a:aa:3c:5a:d7:8d:8c:cc:41:e9:ca:bf:
                    3b:1a:71:46:5e:4c:c6:17:23
                Exponent: 3 (0x3)
        X509v3 extensions:
            X509v3 Basic Constraints: 
                CA:FALSE
            Netscape Comment: 
                OpenSSL Generated Certificate
            X509v3 Subject Key Identifier: 
                3B:5C:65:F1:16:C7:9F:75:88:8E:6A:5F:F3:9B:9D:6E:FA:E4:5A:A9
            X509v3 Authority Key Identifier: 
                keyid:79:02:16:CF:4A:A4:4B:68:14:15:80:F1:CA:4E:B0:2F:8E:B4:BA:5E

    Signature Algorithm: sha1WithRSAEncryption
         05:7f:55:6b:7a:89:b4:0b:e4:db:d3:9c:42:2a:5b:d8:43:39:
         ae:54:19:4e:35:81:e3:ba:3f:c8:67:2f:0d:ad:c1:88:62:44:
         4a:7f:e2:31:25:ad:2d:36:4f:3a:b4:96:1f:44:8a:31:87:f5:
         f7:75:e2:8d:6e:06:59:e2:86:1b:4e:ca:d2:4b:c0:c8:5a:4f:
         e3:0b:29:78:2a:f5:23:55:6c:3f:0b:78:7a:87:f1:bc:7c:3b:
         23:e8:4e:a6:bd:83:12:2a:51:46:ea:fc:4c:23:83:e0:e2:ac:
         5c:a0:38:f5:1b:b4:cb:c4:da:bc:4f:43:b7:02:94:25:96:3a:
         fe:02:2e:15:d7:6f:e3:49:32:1b:fb:f8:1c:d3:12:8c:c5:eb:
         e4:a8:ea:23:d4:e7:3b:96:e0:25:f5:9a:fb:35:6c:ef:9a:82:
         a9:9d:5b:3a:4e:32:00:38:d1:f3:88:73:c0:81:83:7e:c6:7c:
         35:96:ec:84:63:2e:ba:70:d8:af:44:ee:de:4b:d4:68:08:72:
         df:63:3d:30:5e:c1:0a:fa:51:70:a6:ec:4b:b8:9c:36:d4:d3:
         2e:ba:cc:54:15:86:d7:10:39:93:1e:a8:b3:b0:a6:ba:17:b6:
         e0:4e:be:d5:32:c0:45:bc:e2:cd:1b:b4:b4:46:35:52:3a:8f:
         10:f5:66:43
-----BEGIN CERTIFICATE-----
MIIDgjCCAmqgAwIBAgIBDjANBgkqhkiG9w0BAQUFADBxMQswCQYDVQQGEwJDTjEQ
MA4GA1UECAwHQkVJSklORzEMMAoGA1UECgwDUEtVMRYwFAYDVQQLDA1NaWNyb1Nv
ZnR3YXJlMQ4wDAYDVQQDDAVMSUhBTzEaMBgGCSqGSIb3DQEJARYLaUBkaWd2YS5j
b20wHhcNMTMwNzMxMDgwODMyWhcNMTQwNzMxMDgwODMyWjCBoDELMAkGA1UEBgwC
Q04xEDAOBgNVBAgMB0JlaWppbmcxGDAWBgNVBAcMDzI0IEppbll1YW4gUm9hZDEO
MAwGA1UECgwFU1NQS1UxGjAYBgNVBAsMEVBla2luZyBVbml2ZXJzaXR5MRUwEwYD
VQQDDAxTYWZlQ2xpZW50cXQxIjAgBgkqhkiG9w0BCQEWE1NhZmVDbGllbnRAc2lu
YS5jb20wgZ0wDQYJKoZIhvcNAQEBBQADgYsAMIGHAoGBANoMb6ySM/S0dpdjVDDF
D/zhQg2jWVuCYEUEhpovMnTWRF5b/lW5DWhWmUNPnxOIOkN+PUdvlcPAxaSimuxb
//enrhXQw0zOgr2guc4uMF6tAMGgyyoR509CaXYzeAA7U2dCAUS6mKCA9vogiqo8
WteNjMxB6cq/OxpxRl5MxhcjAgEDo3sweTAJBgNVHRMEAjAAMCwGCWCGSAGG+EIB
DQQfFh1PcGVuU1NMIEdlbmVyYXRlZCBDZXJ0aWZpY2F0ZTAdBgNVHQ4EFgQUO1xl
8RbHn3WIjmpf85udbvrkWqkwHwYDVR0jBBgwFoAUeQIWz0qkS2gUFYDxyk6wL460
ul4wDQYJKoZIhvcNAQEFBQADggEBAAV/VWt6ibQL5NvTnEIqW9hDOa5UGU41geO6
P8hnLw2twYhiREp/4jElrS02Tzq0lh9EijGH9fd14o1uBlnihhtOytJLwMhaT+ML
KXgq9SNVbD8LeHqH8bx8OyPoTqa9gxIqUUbq/Ewjg+DirFygOPUbtMvE2rxPQ7cC
lCWWOv4CLhXXb+NJMhv7+BzTEozF6+So6iPU5zuW4CX1mvs1bO+agqmdWzpOMgA4
0fOIc8CBg37GfDWW7IRjLrpw2K9E7t5L1GgIct9jPTBewQr6UXCm7Eu4nDbU0y66
zFQVhtcQOZMeqLOwproXtuBOvtUywEW84s0btLRGNVI6jxD1ZkM=
-----END CERTIFICATE-----
