Certificate:
    Data:
        Version: 3 (0x2)
        Serial Number: 15 (0xf)
    Signature Algorithm: sha1WithRSAEncryption
        Issuer: C=CN, ST=BEIJING, O=PKU, OU=MicroSoftware, CN=LIHAO/emailAddress=i@digva.com
        Validity
            Not Before: Jul 31 08:20:43 2013 GMT
            Not After : Jul 31 08:20:43 2014 GMT
        Subject: C=CN, ST=Beijing, L=24 JinYuan Road, O=SSPKU, OU=Peking University, CN=SafeClientqtx/emailAddress=SafeClient@sina.com
        Subject Public Key Info:
            Public Key Algorithm: rsaEncryption
                Public-Key: (1024 bit)
                Modulus:
                    00:e0:34:ac:58:c8:11:44:d2:1e:4b:db:15:08:d6:
                    f0:b8:ce:20:34:c9:fb:b3:fb:27:4d:89:f8:83:f4:
                    2f:eb:0d:36:a7:f9:cd:63:89:ed:62:47:d6:38:82:
                    5e:bd:ea:e5:28:a2:68:c9:2d:ff:dc:df:63:18:36:
                    16:a0:9c:9f:cc:05:86:3f:64:59:8d:b3:82:e4:f6:
                    b3:b5:29:6a:6a:a7:48:c5:82:e0:08:17:72:0e:3b:
                    dc:90:0a:50:21:a6:7b:ea:87:97:33:f0:d1:bd:9d:
                    89:c4:5d:14:42:c6:67:3d:6a:9b:e9:38:2c:86:88:
                    c8:5a:14:89:f8:c5:97:74:cb
                Exponent: 3 (0x3)
        X509v3 extensions:
            X509v3 Basic Constraints: 
                CA:FALSE
            Netscape Comment: 
                OpenSSL Generated Certificate
            X509v3 Subject Key Identifier: 
                35:55:C5:A3:0E:11:42:B1:62:3D:8B:40:28:FC:7F:D2:D9:7F:DF:AF
            X509v3 Authority Key Identifier: 
                keyid:79:02:16:CF:4A:A4:4B:68:14:15:80:F1:CA:4E:B0:2F:8E:B4:BA:5E

    Signature Algorithm: sha1WithRSAEncryption
         1b:7f:d1:05:d4:8f:49:a3:07:6e:c9:e8:14:69:13:31:41:4f:
         e0:9b:0f:d6:37:ba:ce:5d:74:8f:25:23:76:e4:12:26:3d:9b:
         e7:52:79:fd:d8:91:b9:b3:45:70:24:75:90:d6:0e:ee:1f:97:
         61:51:88:50:fc:10:0b:d4:b6:9f:0e:44:ca:c0:93:bd:be:75:
         9c:0c:ea:3b:84:98:aa:34:9a:f7:ca:17:67:b6:69:15:27:4b:
         74:e3:8f:a3:a9:87:3b:c6:06:3d:f0:67:40:96:23:87:c1:d5:
         af:ca:9a:dd:dc:4c:c2:f1:f0:eb:87:4e:bd:5a:97:9c:b4:b9:
         64:44:15:49:ad:62:ea:f6:2a:85:92:9d:4b:63:aa:34:22:5d:
         0b:61:d2:18:93:b8:73:f4:86:f3:56:06:5c:d6:30:dc:2d:37:
         2f:1b:59:fe:89:70:cf:04:85:29:f4:8e:c8:f9:a0:33:6c:8c:
         bd:39:55:d5:55:01:38:2d:54:06:46:97:37:6d:a9:ee:ef:2e:
         3f:cb:35:7a:e0:2b:4e:8f:74:f6:39:64:68:f9:d9:09:7d:51:
         17:89:d8:92:91:d4:6f:00:67:46:2f:20:74:d6:cd:70:cc:67:
         10:58:69:54:89:5f:60:35:67:05:a3:40:5a:0b:99:af:f4:f6:
         41:d9:7d:99
-----BEGIN CERTIFICATE-----
MIIDgzCCAmugAwIBAgIBDzANBgkqhkiG9w0BAQUFADBxMQswCQYDVQQGEwJDTjEQ
MA4GA1UECAwHQkVJSklORzEMMAoGA1UECgwDUEtVMRYwFAYDVQQLDA1NaWNyb1Nv
ZnR3YXJlMQ4wDAYDVQQDDAVMSUhBTzEaMBgGCSqGSIb3DQEJARYLaUBkaWd2YS5j
b20wHhcNMTMwNzMxMDgyMDQzWhcNMTQwNzMxMDgyMDQzWjCBoTELMAkGA1UEBgwC
Q04xEDAOBgNVBAgMB0JlaWppbmcxGDAWBgNVBAcMDzI0IEppbll1YW4gUm9hZDEO
MAwGA1UECgwFU1NQS1UxGjAYBgNVBAsMEVBla2luZyBVbml2ZXJzaXR5MRYwFAYD
VQQDDA1TYWZlQ2xpZW50cXR4MSIwIAYJKoZIhvcNAQkBFhNTYWZlQ2xpZW50QHNp
bmEuY29tMIGdMA0GCSqGSIb3DQEBAQUAA4GLADCBhwKBgQDgNKxYyBFE0h5L2xUI
1vC4ziA0yfuz+ydNifiD9C/rDTan+c1jie1iR9Y4gl696uUoomjJLf/c32MYNhag
nJ/MBYY/ZFmNs4Lk9rO1KWpqp0jFguAIF3IOO9yQClAhpnvqh5cz8NG9nYnEXRRC
xmc9apvpOCyGiMhaFIn4xZd0ywIBA6N7MHkwCQYDVR0TBAIwADAsBglghkgBhvhC
AQ0EHxYdT3BlblNTTCBHZW5lcmF0ZWQgQ2VydGlmaWNhdGUwHQYDVR0OBBYEFDVV
xaMOEUKxYj2LQCj8f9LZf9+vMB8GA1UdIwQYMBaAFHkCFs9KpEtoFBWA8cpOsC+O
tLpeMA0GCSqGSIb3DQEBBQUAA4IBAQAbf9EF1I9JowduyegUaRMxQU/gmw/WN7rO
XXSPJSN25BImPZvnUnn92JG5s0VwJHWQ1g7uH5dhUYhQ/BAL1LafDkTKwJO9vnWc
DOo7hJiqNJr3yhdntmkVJ0t044+jqYc7xgY98GdAliOHwdWvyprd3EzC8fDrh069
WpectLlkRBVJrWLq9iqFkp1LY6o0Il0LYdIYk7hz9IbzVgZc1jDcLTcvG1n+iXDP
BIUp9I7I+aAzbIy9OVXVVQE4LVQGRpc3banu7y4/yzV64CtOj3T2OWRo+dkJfVEX
idiSkdRvAGdGLyB01s1wzGcQWGlUiV9gNWcFo0BaC5mv9PZB2X2Z
-----END CERTIFICATE-----
