Certificate:
    Data:
        Version: 3 (0x2)
        Serial Number: 16 (0x10)
    Signature Algorithm: sha1WithRSAEncryption
        Issuer: C=CN, ST=BEIJING, O=PKU, OU=MicroSoftware, CN=LIHAO/emailAddress=i@digva.com
        Validity
            Not Before: Jul 31 08:21:35 2013 GMT
            Not After : Jul 31 08:21:35 2014 GMT
        Subject: C=CN, ST=Beijing, L=24 JinYuan Road, O=SSPKU, OU=Peking University, CN=SafeClientqtx1/emailAddress=SafeClient@sina.com
        Subject Public Key Info:
            Public Key Algorithm: rsaEncryption
                Public-Key: (1024 bit)
                Modulus:
                    00:a3:ed:e4:0b:0b:26:26:ae:d3:2a:6c:31:21:18:
                    11:2c:ed:3e:98:20:50:7a:af:fa:d8:61:09:8b:9f:
                    6d:86:f8:84:c7:ea:b0:68:2d:e6:9c:5a:2e:92:c3:
                    83:e5:7e:f5:43:fe:4d:ac:ee:00:67:28:7b:84:95:
                    17:51:04:de:0d:fd:27:8a:38:25:9e:91:ea:d2:f9:
                    99:42:28:f4:d2:71:17:5c:9b:65:73:39:d1:6b:e0:
                    df:60:da:4d:b2:cb:5e:f1:f1:ba:5b:63:97:19:ba:
                    06:c5:ce:9b:c4:d2:fd:2e:49:b9:ab:d1:d0:dd:06:
                    87:19:e0:6e:3d:40:db:c4:55
                Exponent: 3 (0x3)
        X509v3 extensions:
            X509v3 Basic Constraints: 
                CA:FALSE
            Netscape Comment: 
                OpenSSL Generated Certificate
            X509v3 Subject Key Identifier: 
                20:ED:39:93:4D:42:5F:51:A2:CC:A6:B7:A1:A1:A5:90:31:92:1F:05
            X509v3 Authority Key Identifier: 
                keyid:79:02:16:CF:4A:A4:4B:68:14:15:80:F1:CA:4E:B0:2F:8E:B4:BA:5E

    Signature Algorithm: sha1WithRSAEncryption
         89:50:f0:3d:ab:51:2e:18:3e:73:58:06:04:d8:b1:f8:2d:85:
         df:99:3e:57:91:3b:8f:e1:ee:ad:d0:47:f8:ee:67:ea:08:93:
         70:86:08:e6:92:c4:6f:93:85:4b:4f:70:e9:a3:af:40:8d:79:
         f2:98:11:8f:90:98:ff:9a:5b:83:ea:39:c4:00:2a:09:1d:86:
         5a:09:fc:12:36:d1:ae:c7:df:7b:9d:c1:f4:73:e4:04:74:b6:
         c1:34:c8:84:6b:cc:43:8a:8c:c4:6a:c0:5a:58:c6:e0:ff:94:
         4f:58:e5:cc:98:3e:f9:cd:7a:41:49:6e:de:e9:65:41:6a:a8:
         ef:94:80:3b:0d:5d:b8:18:0e:17:53:bc:b3:25:44:54:61:73:
         76:50:85:ea:50:4d:4a:9c:79:91:b7:fb:3c:e5:bb:34:80:a6:
         db:54:83:86:b3:d3:06:f5:1b:52:ac:a2:b2:e8:e8:48:d1:c0:
         48:a1:1b:8f:5e:24:98:2b:54:1b:41:9e:c8:82:d2:7f:b0:c0:
         f0:83:83:22:ee:51:84:5e:7d:de:49:90:5a:1a:81:5f:f3:66:
         06:68:1a:d2:fa:fc:99:cc:f7:36:81:6b:9b:03:3f:21:10:9e:
         62:3e:9c:37:36:86:81:19:02:af:e1:13:c5:9f:bc:d7:c2:96:
         ed:26:69:4d
-----BEGIN CERTIFICATE-----
MIIDhDCCAmygAwIBAgIBEDANBgkqhkiG9w0BAQUFADBxMQswCQYDVQQGEwJDTjEQ
MA4GA1UECAwHQkVJSklORzEMMAoGA1UECgwDUEtVMRYwFAYDVQQLDA1NaWNyb1Nv
ZnR3YXJlMQ4wDAYDVQQDDAVMSUhBTzEaMBgGCSqGSIb3DQEJARYLaUBkaWd2YS5j
b20wHhcNMTMwNzMxMDgyMTM1WhcNMTQwNzMxMDgyMTM1WjCBojELMAkGA1UEBgwC
Q04xEDAOBgNVBAgMB0JlaWppbmcxGDAWBgNVBAcMDzI0IEppbll1YW4gUm9hZDEO
MAwGA1UECgwFU1NQS1UxGjAYBgNVBAsMEVBla2luZyBVbml2ZXJzaXR5MRcwFQYD
VQQDDA5TYWZlQ2xpZW50cXR4MTEiMCAGCSqGSIb3DQEJARYTU2FmZUNsaWVudEBz
aW5hLmNvbTCBnTANBgkqhkiG9w0BAQEFAAOBiwAwgYcCgYEAo+3kCwsmJq7TKmwx
IRgRLO0+mCBQeq/62GEJi59thviEx+qwaC3mnFouksOD5X71Q/5NrO4AZyh7hJUX
UQTeDf0nijglnpHq0vmZQij00nEXXJtlcznRa+DfYNpNsste8fG6W2OXGboGxc6b
xNL9Lkm5q9HQ3QaHGeBuPUDbxFUCAQOjezB5MAkGA1UdEwQCMAAwLAYJYIZIAYb4
QgENBB8WHU9wZW5TU0wgR2VuZXJhdGVkIENlcnRpZmljYXRlMB0GA1UdDgQWBBQg
7TmTTUJfUaLMprehoaWQMZIfBTAfBgNVHSMEGDAWgBR5AhbPSqRLaBQVgPHKTrAv
jrS6XjANBgkqhkiG9w0BAQUFAAOCAQEAiVDwPatRLhg+c1gGBNix+C2F35k+V5E7
j+HurdBH+O5n6giTcIYI5pLEb5OFS09w6aOvQI158pgRj5CY/5pbg+o5xAAqCR2G
Wgn8EjbRrsffe53B9HPkBHS2wTTIhGvMQ4qMxGrAWljG4P+UT1jlzJg++c16QUlu
3ullQWqo75SAOw1duBgOF1O8syVEVGFzdlCF6lBNSpx5kbf7POW7NICm21SDhrPT
BvUbUqyisujoSNHASKEbj14kmCtUG0GeyILSf7DA8IODIu5RhF593kmQWhqBX/Nm
Bmga0vr8mcz3NoFrmwM/IRCeYj6cNzaGgRkCr+ETxZ+818KW7SZpTQ==
-----END CERTIFICATE-----
