Certificate:
    Data:
        Version: 3 (0x2)
        Serial Number: 17 (0x11)
    Signature Algorithm: sha1WithRSAEncryption
        Issuer: C=CN, ST=BEIJING, O=PKU, OU=MicroSoftware, CN=LIHAO/emailAddress=i@digva.com
        Validity
            Not Before: Jul 31 08:25:16 2013 GMT
            Not After : Jul 31 08:25:16 2014 GMT
        Subject: C=CN, ST=Beijing, L=24 JinYuan Road, O=SSPKU, OU=Peking University, CN=SafeClientqtx2/emailAddress=SafeClient@sina.com
        Subject Public Key Info:
            Public Key Algorithm: rsaEncryption
                Public-Key: (1024 bit)
                Modulus:
                    00:c5:f7:f9:a4:a6:ef:3a:d5:1c:5a:23:e7:2a:f1:
                    bc:2d:d2:37:52:d5:5e:e3:98:6e:1d:1f:a0:e1:6a:
                    72:c8:b8:18:2b:32:7c:d2:e6:cb:f0:0c:31:d0:55:
                    85:38:8a:9a:5d:5d:1b:46:86:2d:19:09:bc:18:6a:
                    27:c5:10:af:1c:29:ba:6c:80:3c:c2:ef:b4:75:6f:
                    55:18:b6:49:4c:70:4f:22:c3:ef:6a:7d:21:48:15:
                    9f:55:57:51:08:3c:e2:96:11:5d:dd:bb:86:a5:8d:
                    98:62:b0:94:7f:01:d8:9d:04:d1:34:ab:1d:a1:28:
                    52:f0:78:28:63:95:9c:d9:51
                Exponent: 3 (0x3)
        X509v3 extensions:
            X509v3 Basic Constraints: 
                CA:FALSE
            Netscape Comment: 
                OpenSSL Generated Certificate
            X509v3 Subject Key Identifier: 
                E3:60:3B:86:69:25:89:6E:73:D2:F3:D2:3D:CA:9C:C4:DD:D3:CA:50
            X509v3 Authority Key Identifier: 
                keyid:79:02:16:CF:4A:A4:4B:68:14:15:80:F1:CA:4E:B0:2F:8E:B4:BA:5E

    Signature Algorithm: sha1WithRSAEncryption
         7f:aa:00:2f:61:79:5c:3c:30:c3:b9:fa:e6:3e:ae:42:08:d8:
         78:ac:54:4c:eb:1b:04:72:ac:a2:22:52:5d:84:a2:fd:62:0c:
         cd:75:13:cb:54:6e:29:ce:24:e6:bc:c3:03:71:f6:60:8e:aa:
         8d:c2:32:90:17:7f:8f:c2:a1:d6:aa:fc:7b:a0:2b:95:0e:6e:
         7b:09:fa:db:db:77:ea:da:31:94:e6:71:07:62:65:03:f3:72:
         0e:5e:2c:b0:97:79:f0:bb:2f:8a:7e:93:5d:00:a2:27:48:0a:
         9f:74:93:ca:5e:17:68:12:73:71:0e:62:b7:16:1c:06:6e:63:
         2d:21:5b:83:70:86:04:fd:80:26:e8:a4:90:05:a6:b8:83:ea:
         be:9f:c0:72:c9:60:fe:0d:24:a6:7a:46:47:2c:c1:69:e7:31:
         6e:7e:84:7c:fe:d8:ea:1f:96:6c:d2:ab:c8:c3:0e:b9:f3:a1:
         93:d1:77:e6:e3:e5:01:ba:c0:be:cb:ce:51:d8:b3:42:c1:19:
         51:c9:a8:ad:ab:91:53:23:8e:b6:4a:e4:41:8b:45:7e:32:b1:
         93:09:46:b8:4b:9c:aa:44:a2:44:b4:19:0c:fb:fe:3c:4a:f5:
         85:ac:44:b8:ae:c6:33:ed:bb:e4:41:0b:9d:f9:55:2f:94:58:
         d4:0a:6c:a9
-----BEGIN CERTIFICATE-----
MIIDhDCCAmygAwIBAgIBETANBgkqhkiG9w0BAQUFADBxMQswCQYDVQQGEwJDTjEQ
MA4GA1UECAwHQkVJSklORzEMMAoGA1UECgwDUEtVMRYwFAYDVQQLDA1NaWNyb1Nv
ZnR3YXJlMQ4wDAYDVQQDDAVMSUhBTzEaMBgGCSqGSIb3DQEJARYLaUBkaWd2YS5j
b20wHhcNMTMwNzMxMDgyNTE2WhcNMTQwNzMxMDgyNTE2WjCBojELMAkGA1UEBgwC
Q04xEDAOBgNVBAgMB0JlaWppbmcxGDAWBgNVBAcMDzI0IEppbll1YW4gUm9hZDEO
MAwGA1UECgwFU1NQS1UxGjAYBgNVBAsMEVBla2luZyBVbml2ZXJzaXR5MRcwFQYD
VQQDDA5TYWZlQ2xpZW50cXR4MjEiMCAGCSqGSIb3DQEJARYTU2FmZUNsaWVudEBz
aW5hLmNvbTCBnTANBgkqhkiG9w0BAQEFAAOBiwAwgYcCgYEAxff5pKbvOtUcWiPn
KvG8LdI3UtVe45huHR+g4WpyyLgYKzJ80ubL8Awx0FWFOIqaXV0bRoYtGQm8GGon
xRCvHCm6bIA8wu+0dW9VGLZJTHBPIsPvan0hSBWfVVdRCDzilhFd3buGpY2YYrCU
fwHYnQTRNKsdoShS8HgoY5Wc2VECAQOjezB5MAkGA1UdEwQCMAAwLAYJYIZIAYb4
QgENBB8WHU9wZW5TU0wgR2VuZXJhdGVkIENlcnRpZmljYXRlMB0GA1UdDgQWBBTj
YDuGaSWJbnPS89I9ypzE3dPKUDAfBgNVHSMEGDAWgBR5AhbPSqRLaBQVgPHKTrAv
jrS6XjANBgkqhkiG9w0BAQUFAAOCAQEAf6oAL2F5XDwww7n65j6uQgjYeKxUTOsb
BHKsoiJSXYSi/WIMzXUTy1RuKc4k5rzDA3H2YI6qjcIykBd/j8Kh1qr8e6ArlQ5u
ewn629t36toxlOZxB2JlA/NyDl4ssJd58Lsvin6TXQCiJ0gKn3STyl4XaBJzcQ5i
txYcBm5jLSFbg3CGBP2AJuikkAWmuIPqvp/Acslg/g0kpnpGRyzBaecxbn6EfP7Y
6h+WbNKryMMOufOhk9F35uPlAbrAvsvOUdizQsEZUcmorauRUyOOtkrkQYtFfjKx
kwlGuEucqkSiRLQZDPv+PEr1haxEuK7GM+275EELnflVL5RY1ApsqQ==
-----END CERTIFICATE-----
