Certificate:
    Data:
        Version: 3 (0x2)
        Serial Number: 18 (0x12)
    Signature Algorithm: sha1WithRSAEncryption
        Issuer: C=CN, ST=BEIJING, O=PKU, OU=MicroSoftware, CN=LIHAO/emailAddress=i@digva.com
        Validity
            Not Before: Jul 31 08:28:55 2013 GMT
            Not After : Jul 31 08:28:55 2014 GMT
        Subject: C=CN, ST=Beijing, L=24 JinYuan Road, O=SSPKU, OU=Peking University, CN=SafeClient0/emailAddress=SafeClient@sina.com
        Subject Public Key Info:
            Public Key Algorithm: rsaEncryption
                Public-Key: (1024 bit)
                Modulus:
                    00:a4:4f:39:e7:81:24:e2:e9:d0:88:09:68:3d:a3:
                    9b:05:b8:92:b7:3e:d3:53:f5:01:ef:8f:a4:81:31:
                    b1:c8:c5:67:08:41:79:f0:f8:78:4a:20:53:6e:d7:
                    aa:c7:c6:15:25:1c:84:b6:f4:4c:4f:59:92:16:c4:
                    78:59:51:46:37:90:f8:ac:36:44:99:2b:46:0a:48:
                    73:8d:56:8c:37:a2:42:94:0f:ea:56:5c:27:c6:76:
                    e0:a6:f3:6f:49:ea:78:dd:b1:30:70:12:5f:65:27:
                    56:ba:59:35:e5:ff:ef:f0:da:e4:4b:48:1f:a8:3f:
                    31:51:87:13:d2:46:6f:e5:d9
                Exponent: 3 (0x3)
        X509v3 extensions:
            X509v3 Basic Constraints: 
                CA:FALSE
            Netscape Comment: 
                OpenSSL Generated Certificate
            X509v3 Subject Key Identifier: 
                72:85:EB:A7:92:E3:D9:E2:D0:33:34:2B:81:DA:2E:CD:E0:C6:6D:3E
            X509v3 Authority Key Identifier: 
                keyid:79:02:16:CF:4A:A4:4B:68:14:15:80:F1:CA:4E:B0:2F:8E:B4:BA:5E

    Signature Algorithm: sha1WithRSAEncryption
         b4:35:3e:57:e6:97:fc:57:5d:8a:e2:90:f4:c4:2a:96:6f:80:
         59:5a:ad:39:87:12:7a:52:05:15:96:ca:ef:af:1f:0c:ef:90:
         76:56:03:e5:47:c4:b8:66:3e:b8:24:9f:f9:b5:b1:e1:54:3b:
         34:02:39:c6:a0:e1:6b:5c:05:56:67:b8:6f:1e:75:f3:c6:d2:
         ed:df:fa:e1:bf:f2:2d:7d:c9:8f:20:78:7f:1d:fb:ba:89:8d:
         f5:3b:e8:f0:06:86:a5:4d:b2:e9:47:eb:d2:41:7e:17:73:59:
         45:b4:bf:5a:f0:06:15:2f:e4:40:51:46:54:fc:48:ea:52:56:
         4d:eb:01:fe:74:fc:13:81:56:cb:5d:bd:b4:91:47:ed:ce:12:
         ef:f4:34:d7:02:8d:12:c0:48:f0:36:fd:98:ca:62:8d:51:0c:
         2b:48:8c:60:18:c5:84:81:fa:9f:c5:0b:9b:be:92:b9:42:26:
         7d:97:8d:14:91:9d:f0:62:76:8e:6d:71:04:82:42:bf:e2:cd:
         3c:41:e1:62:c7:fb:0b:76:27:0f:50:b2:f0:4f:6f:ba:bd:97:
         49:8c:24:92:1f:33:43:91:4a:ec:32:b6:2d:27:41:06:a8:dd:
         63:f7:f9:c1:6a:88:5a:a4:49:69:e1:ee:c6:05:81:50:7a:a4:
         15:b0:70:ce
-----BEGIN CERTIFICATE-----
MIIDgTCCAmmgAwIBAgIBEjANBgkqhkiG9w0BAQUFADBxMQswCQYDVQQGEwJDTjEQ
MA4GA1UECAwHQkVJSklORzEMMAoGA1UECgwDUEtVMRYwFAYDVQQLDA1NaWNyb1Nv
ZnR3YXJlMQ4wDAYDVQQDDAVMSUhBTzEaMBgGCSqGSIb3DQEJARYLaUBkaWd2YS5j
b20wHhcNMTMwNzMxMDgyODU1WhcNMTQwNzMxMDgyODU1WjCBnzELMAkGA1UEBgwC
Q04xEDAOBgNVBAgMB0JlaWppbmcxGDAWBgNVBAcMDzI0IEppbll1YW4gUm9hZDEO
MAwGA1UECgwFU1NQS1UxGjAYBgNVBAsMEVBla2luZyBVbml2ZXJzaXR5MRQwEgYD
VQQDDAtTYWZlQ2xpZW50MDEiMCAGCSqGSIb3DQEJARYTU2FmZUNsaWVudEBzaW5h
LmNvbTCBnTANBgkqhkiG9w0BAQEFAAOBiwAwgYcCgYEApE8554Ek4unQiAloPaOb
BbiStz7TU/UB74+kgTGxyMVnCEF58Ph4SiBTbteqx8YVJRyEtvRMT1mSFsR4WVFG
N5D4rDZEmStGCkhzjVaMN6JClA/qVlwnxnbgpvNvSep43bEwcBJfZSdWulk15f/v
8NrkS0gfqD8xUYcT0kZv5dkCAQOjezB5MAkGA1UdEwQCMAAwLAYJYIZIAYb4QgEN
BB8WHU9wZW5TU0wgR2VuZXJhdGVkIENlcnRpZmljYXRlMB0GA1UdDgQWBBRyheun
kuPZ4tAzNCuB2i7N4MZtPjAfBgNVHSMEGDAWgBR5AhbPSqRLaBQVgPHKTrAvjrS6
XjANBgkqhkiG9w0BAQUFAAOCAQEAtDU+V+aX/FddiuKQ9MQqlm+AWVqtOYcSelIF
FZbK768fDO+QdlYD5UfEuGY+uCSf+bWx4VQ7NAI5xqDha1wFVme4bx5188bS7d/6
4b/yLX3JjyB4fx37uomN9Tvo8AaGpU2y6Ufr0kF+F3NZRbS/WvAGFS/kQFFGVPxI
6lJWTesB/nT8E4FWy129tJFH7c4S7/Q01wKNEsBI8Db9mMpijVEMK0iMYBjFhIH6
n8ULm76SuUImfZeNFJGd8GJ2jm1xBIJCv+LNPEHhYsf7C3YnD1Cy8E9vur2XSYwk
kh8zQ5FK7DK2LSdBBqjdY/f5wWqIWqRJaeHuxgWBUHqkFbBwzg==
-----END CERTIFICATE-----
