Certificate:
    Data:
        Version: 3 (0x2)
        Serial Number: 3 (0x3)
    Signature Algorithm: sha1WithRSAEncryption
        Issuer: C=CN, ST=BEIJING, O=PKU, OU=MicroSoftware, CN=LIHAO/emailAddress=i@digva.com
        Validity
            Not Before: May 17 07:57:56 2013 GMT
            Not After : May 17 07:57:56 2014 GMT
        Subject: C=CN, ST=BEIJING, O=PKU, OU=MicroSoftware, CN=LIHAO/emailAddress=i@digva.com
        Subject Public Key Info:
            Public Key Algorithm: rsaEncryption
                Public-Key: (2048 bit)
                Modulus:
                    00:c3:f5:6b:f6:b8:d8:03:6b:e5:7c:5c:77:c6:23:
                    8e:78:fa:f5:8d:49:7b:c1:ca:8d:79:d3:bb:7d:3b:
                    69:3f:b1:83:c1:e0:a9:ea:4f:e5:e8:50:44:0d:9d:
                    e3:b2:d0:7e:02:7e:da:cb:8d:ac:f1:51:30:c7:86:
                    81:84:a9:84:11:8b:9a:ed:8f:22:c5:53:d9:2a:f7:
                    5a:3c:74:17:09:3a:6e:32:f9:d4:dd:32:c7:fc:ca:
                    61:4d:ea:b2:73:dd:61:9b:ef:44:07:87:ae:b8:38:
                    78:24:03:05:ea:ad:ff:00:74:05:98:ca:d8:36:89:
                    bb:42:f6:e2:27:e4:ff:82:01:73:9f:53:96:6e:54:
                    07:09:5e:18:76:52:d0:a4:13:a1:9b:4f:a4:89:d0:
                    a9:f4:71:5b:6d:f9:7f:52:0e:98:3c:5e:f0:10:8b:
                    67:d0:d1:32:bf:7f:d7:c7:0b:dd:41:94:02:84:c1:
                    3b:7d:4f:c0:a7:ee:78:e4:78:54:e3:5a:be:76:33:
                    d5:e3:4e:79:8c:f6:3b:a5:9a:5c:fb:f9:a4:6e:6c:
                    f8:5c:cb:93:75:4a:3b:2a:e8:41:3e:2e:af:5a:90:
                    75:6d:cf:a6:b5:69:6d:e7:40:f5:8f:3c:24:8c:4e:
                    a0:eb:9c:ca:b3:b4:e5:15:4a:a6:f8:21:6a:2b:c4:
                    1e:c7
                Exponent: 65537 (0x10001)
        X509v3 extensions:
            X509v3 Basic Constraints: 
                CA:FALSE
            Netscape Comment: 
                OpenSSL Generated Certificate
            X509v3 Subject Key Identifier: 
                79:02:16:CF:4A:A4:4B:68:14:15:80:F1:CA:4E:B0:2F:8E:B4:BA:5E
            X509v3 Authority Key Identifier: 
                keyid:79:02:16:CF:4A:A4:4B:68:14:15:80:F1:CA:4E:B0:2F:8E:B4:BA:5E

    Signature Algorithm: sha1WithRSAEncryption
         c1:ca:1f:cf:5f:b2:cf:6f:73:44:a4:a6:4e:32:d3:0e:e5:60:
         74:3e:25:f8:4f:41:ab:e9:0e:ce:61:11:c0:d3:ed:0f:36:51:
         50:6c:d8:12:75:2e:34:ed:25:aa:05:85:95:15:3e:e9:1f:83:
         58:1b:c2:97:03:c9:24:8b:fa:aa:c6:9a:fc:3c:89:61:0b:40:
         6c:b7:33:f6:14:11:aa:b5:b9:93:2b:8a:db:e8:34:8c:99:de:
         4b:aa:09:32:50:8e:5a:e4:cc:a7:9c:ef:d4:e2:4a:5d:ba:5b:
         dc:c1:ed:84:08:a0:fa:33:da:f6:91:6c:4a:75:7e:21:c6:d6:
         7d:14:2b:3a:5f:d1:5d:86:4e:28:94:ad:4d:95:d3:32:e9:d4:
         2b:1f:a4:98:f4:2e:9d:bd:28:c8:88:fc:f0:bd:ef:33:bb:e8:
         b3:11:db:4c:a3:fb:65:2e:ef:ea:5f:b1:c4:b3:a4:b0:f6:ee:
         56:f2:3d:90:d0:9a:58:d0:0c:46:1c:82:af:1a:81:fa:6b:3a:
         48:40:ba:de:56:56:bb:a4:31:51:50:e2:73:19:c7:af:4c:db:
         b5:cc:41:35:5c:1a:1b:15:7e:f5:31:c4:cc:4f:5b:da:7b:09:
         37:3b:ec:14:71:6b:3b:d5:22:b5:f9:7e:ab:56:61:3c:11:f5:
         f1:9c:8f:e2
-----BEGIN CERTIFICATE-----
MIID2DCCAsCgAwIBAgIBAzANBgkqhkiG9w0BAQUFADBxMQswCQYDVQQGEwJDTjEQ
MA4GA1UECAwHQkVJSklORzEMMAoGA1UECgwDUEtVMRYwFAYDVQQLDA1NaWNyb1Nv
ZnR3YXJlMQ4wDAYDVQQDDAVMSUhBTzEaMBgGCSqGSIb3DQEJARYLaUBkaWd2YS5j
b20wHhcNMTMwNTE3MDc1NzU2WhcNMTQwNTE3MDc1NzU2WjBxMQswCQYDVQQGEwJD
TjEQMA4GA1UECAwHQkVJSklORzEMMAoGA1UECgwDUEtVMRYwFAYDVQQLDA1NaWNy
b1NvZnR3YXJlMQ4wDAYDVQQDDAVMSUhBTzEaMBgGCSqGSIb3DQEJARYLaUBkaWd2
YS5jb20wggEiMA0GCSqGSIb3DQEBAQUAA4IBDwAwggEKAoIBAQDD9Wv2uNgDa+V8
XHfGI454+vWNSXvByo1507t9O2k/sYPB4KnqT+XoUEQNneOy0H4CftrLjazxUTDH
hoGEqYQRi5rtjyLFU9kq91o8dBcJOm4y+dTdMsf8ymFN6rJz3WGb70QHh664OHgk
AwXqrf8AdAWYytg2ibtC9uIn5P+CAXOfU5ZuVAcJXhh2UtCkE6GbT6SJ0Kn0cVtt
+X9SDpg8XvAQi2fQ0TK/f9fHC91BlAKEwTt9T8Cn7njkeFTjWr52M9XjTnmM9jul
mlz7+aRubPhcy5N1Sjsq6EE+Lq9akHVtz6a1aW3nQPWPPCSMTqDrnMqztOUVSqb4
IWorxB7HAgMBAAGjezB5MAkGA1UdEwQCMAAwLAYJYIZIAYb4QgENBB8WHU9wZW5T
U0wgR2VuZXJhdGVkIENlcnRpZmljYXRlMB0GA1UdDgQWBBR5AhbPSqRLaBQVgPHK
TrAvjrS6XjAfBgNVHSMEGDAWgBR5AhbPSqRLaBQVgPHKTrAvjrS6XjANBgkqhkiG
9w0BAQUFAAOCAQEAwcofz1+yz29zRKSmTjLTDuVgdD4l+E9Bq+kOzmERwNPtDzZR
UGzYEnUuNO0lqgWFlRU+6R+DWBvClwPJJIv6qsaa/DyJYQtAbLcz9hQRqrW5kyuK
2+g0jJneS6oJMlCOWuTMp5zv1OJKXbpb3MHthAig+jPa9pFsSnV+IcbWfRQrOl/R
XYZOKJStTZXTMunUKx+kmPQunb0oyIj88L3vM7vosxHbTKP7ZS7v6l+xxLOksPbu
VvI9kNCaWNAMRhyCrxqB+ms6SEC63lZWu6QxUVDicxnHr0zbtcxBNVwaGxV+9THE
zE9b2nsJNzvsFHFrO9Uitfl+q1ZhPBH18ZyP4g==
-----END CERTIFICATE-----
