Certificate:
    Data:
        Version: 3 (0x2)
        Serial Number: 7 (0x7)
    Signature Algorithm: sha1WithRSAEncryption
        Issuer: C=CN, ST=BEIJING, O=PKU, OU=MicroSoftware, CN=LIHAO/emailAddress=i@digva.com
        Validity
            Not Before: May 20 01:52:58 2013 GMT
            Not After : May 20 01:52:58 2014 GMT
        Subject: C=CN, ST=BEIJING, O=PKU, OU=MicroSoftware, CN=QWERT/emailAddress=QWE@QWE.com
        Subject Public Key Info:
            Public Key Algorithm: rsaEncryption
                Public-Key: (512 bit)
                Modulus:
                    00:f4:34:cf:27:2a:cf:2b:25:fb:db:45:38:07:60:
                    22:99:1c:47:05:0e:2d:1a:57:55:5d:e6:e4:51:dd:
                    03:b9:63:63:0c:b6:d4:ce:1b:48:c0:e1:52:ec:e8:
                    58:2c:84:61:eb:28:52:89:31:1d:f2:92:5c:4c:29:
                    2e:10:aa:82:a1
                Exponent: 65537 (0x10001)
        X509v3 extensions:
            X509v3 Basic Constraints: 
                CA:FALSE
            Netscape Comment: 
                OpenSSL Generated Certificate
            X509v3 Subject Key Identifier: 
                88:00:A4:6A:0C:92:9F:E4:37:EE:18:04:55:24:8E:08:DD:D6:69:E3
            X509v3 Authority Key Identifier: 
                keyid:79:02:16:CF:4A:A4:4B:68:14:15:80:F1:CA:4E:B0:2F:8E:B4:BA:5E

    Signature Algorithm: sha1WithRSAEncryption
         06:fd:29:65:13:89:7c:e7:f5:de:b0:b4:f6:09:e1:18:ac:d3:
         38:20:6d:ee:f3:68:ee:c7:c9:54:12:5a:73:0e:e8:a8:90:f1:
         34:eb:41:56:cf:3b:b5:e7:41:86:8c:c7:2a:ea:40:1b:7e:59:
         da:83:9d:69:69:37:e5:2e:08:d5:e1:64:62:c3:5d:56:77:26:
         ec:4f:a1:b8:1f:9d:29:9c:62:53:7f:b7:5b:01:e3:97:09:6d:
         c7:59:15:39:a3:c1:bd:64:c4:f9:b5:88:e9:82:9a:ad:b4:0f:
         8c:d6:05:75:6f:ff:c5:76:7b:f2:f2:d2:5a:55:47:23:21:93:
         cb:06:9f:9d:ce:c1:10:7b:ab:94:db:32:69:72:88:0f:25:f6:
         f2:8d:06:02:d5:a1:a3:78:3a:af:8e:7d:26:65:23:db:81:e4:
         6f:7d:bf:54:7a:37:20:bd:21:75:37:1a:88:28:a4:95:5e:30:
         cb:c8:d5:f3:b2:23:75:81:e7:a2:b0:5a:5b:dc:74:bc:1d:61:
         ff:5f:ff:20:3e:1f:bb:ea:c6:1f:79:e1:ae:f0:f7:76:ac:a6:
         65:0c:1e:3f:05:c1:52:65:29:b9:9f:ff:be:46:54:b5:57:c6:
         4b:89:47:62:03:c9:76:12:b6:c4:a0:b7:96:f5:5b:03:14:c0:
         b3:8f:c5:4b
-----BEGIN CERTIFICATE-----
MIIDEDCCAfigAwIBAgIBBzANBgkqhkiG9w0BAQUFADBxMQswCQYDVQQGEwJDTjEQ
MA4GA1UECAwHQkVJSklORzEMMAoGA1UECgwDUEtVMRYwFAYDVQQLDA1NaWNyb1Nv
ZnR3YXJlMQ4wDAYDVQQDDAVMSUhBTzEaMBgGCSqGSIb3DQEJARYLaUBkaWd2YS5j
b20wHhcNMTMwNTIwMDE1MjU4WhcNMTQwNTIwMDE1MjU4WjBxMQswCQYDVQQGEwJD
TjEQMA4GA1UECAwHQkVJSklORzEMMAoGA1UECgwDUEtVMRYwFAYDVQQLDA1NaWNy
b1NvZnR3YXJlMQ4wDAYDVQQDDAVRV0VSVDEaMBgGCSqGSIb3DQEJARYLUVdFQFFX
RS5jb20wXDANBgkqhkiG9w0BAQEFAANLADBIAkEA9DTPJyrPKyX720U4B2AimRxH
BQ4tGldVXebkUd0DuWNjDLbUzhtIwOFS7OhYLIRh6yhSiTEd8pJcTCkuEKqCoQID
AQABo3sweTAJBgNVHRMEAjAAMCwGCWCGSAGG+EIBDQQfFh1PcGVuU1NMIEdlbmVy
YXRlZCBDZXJ0aWZpY2F0ZTAdBgNVHQ4EFgQUiACkagySn+Q37hgEVSSOCN3WaeMw
HwYDVR0jBBgwFoAUeQIWz0qkS2gUFYDxyk6wL460ul4wDQYJKoZIhvcNAQEFBQAD
ggEBAAb9KWUTiXzn9d6wtPYJ4Ris0zggbe7zaO7HyVQSWnMO6KiQ8TTrQVbPO7Xn
QYaMxyrqQBt+WdqDnWlpN+UuCNXhZGLDXVZ3JuxPobgfnSmcYlN/t1sB45cJbcdZ
FTmjwb1kxPm1iOmCmq20D4zWBXVv/8V2e/Ly0lpVRyMhk8sGn53OwRB7q5TbMmly
iA8l9vKNBgLVoaN4Oq+OfSZlI9uB5G99v1R6NyC9IXU3GogopJVeMMvI1fOyI3WB
56KwWlvcdLwdYf9f/yA+H7vqxh954a7w93aspmUMHj8FwVJlKbmf/75GVLVXxkuJ
R2IDyXYStsSgt5b1WwMUwLOPxUs=
-----END CERTIFICATE-----
