Certificate:
    Data:
        Version: 3 (0x2)
        Serial Number: 9 (0x9)
    Signature Algorithm: sha1WithRSAEncryption
        Issuer: C=CN, ST=BEIJING, O=PKU, OU=MicroSoftware, CN=LIHAO/emailAddress=i@digva.com
        Validity
            Not Before: May 20 01:57:41 2013 GMT
            Not After : May 20 01:57:41 2014 GMT
        Subject: C=CN, ST=BEIJING, O=PKU, OU=MicroSoftware, CN=QWERT/emailAddress=QWE@QWE.com
        Subject Public Key Info:
            Public Key Algorithm: rsaEncryption
                Public-Key: (512 bit)
                Modulus:
                    00:f4:34:cf:27:2a:cf:2b:25:fb:db:45:38:07:60:
                    22:99:1c:47:05:0e:2d:1a:57:55:5d:e6:e4:51:dd:
                    03:b9:63:63:0c:b6:d4:ce:1b:48:c0:e1:52:ec:e8:
                    58:2c:84:61:eb:28:52:89:31:1d:f2:92:5c:4c:29:
                    2e:10:aa:82:a1
                Exponent: 65537 (0x10001)
        X509v3 extensions:
            X509v3 Basic Constraints: 
                CA:FALSE
            Netscape Comment: 
                OpenSSL Generated Certificate
            X509v3 Subject Key Identifier: 
                88:00:A4:6A:0C:92:9F:E4:37:EE:18:04:55:24:8E:08:DD:D6:69:E3
            X509v3 Authority Key Identifier: 
                keyid:79:02:16:CF:4A:A4:4B:68:14:15:80:F1:CA:4E:B0:2F:8E:B4:BA:5E

    Signature Algorithm: sha1WithRSAEncryption
         99:68:f7:c5:8b:fb:45:05:bf:55:7e:ba:9d:d1:20:03:be:dd:
         39:8e:9b:19:de:2d:29:20:a2:96:c7:66:d7:66:a0:e8:01:89:
         35:54:c6:37:5e:d5:ed:f0:a8:b2:ba:05:d3:53:a9:5e:fe:01:
         b9:82:cd:e3:ea:d4:a0:19:93:81:65:3d:ca:34:96:0a:93:6f:
         a0:ee:ec:ee:7b:cf:65:16:83:a8:40:4d:28:5e:b6:d7:81:83:
         6c:26:52:7a:99:80:29:86:4d:d7:77:b6:ac:10:66:2f:67:b8:
         c6:f9:59:64:ba:6f:d4:ef:5c:f1:c8:42:ed:44:b4:30:13:98:
         11:9e:99:14:e2:28:5c:3e:c7:03:31:22:03:75:12:02:38:c8:
         7a:e2:7b:bd:c0:c6:43:5f:09:b2:4d:08:b1:67:16:0f:a3:53:
         b0:1c:ca:97:6e:fb:b8:30:23:1f:99:a1:0f:97:94:ba:ba:35:
         0d:a8:bc:7b:87:cd:d0:65:53:ec:e9:c8:67:7f:06:5b:a1:5a:
         1a:ce:26:75:6c:49:6e:2d:fa:7e:06:bd:e4:e1:46:24:25:6f:
         a7:77:d3:38:e2:4a:f8:8d:3d:fa:a1:69:80:1d:1c:47:d5:d0:
         2c:cf:39:10:27:5a:37:07:e0:1e:da:b2:7d:e3:0b:ef:c1:c1:
         27:cb:f4:2f
-----BEGIN CERTIFICATE-----
MIIDEDCCAfigAwIBAgIBCTANBgkqhkiG9w0BAQUFADBxMQswCQYDVQQGEwJDTjEQ
MA4GA1UECAwHQkVJSklORzEMMAoGA1UECgwDUEtVMRYwFAYDVQQLDA1NaWNyb1Nv
ZnR3YXJlMQ4wDAYDVQQDDAVMSUhBTzEaMBgGCSqGSIb3DQEJARYLaUBkaWd2YS5j
b20wHhcNMTMwNTIwMDE1NzQxWhcNMTQwNTIwMDE1NzQxWjBxMQswCQYDVQQGEwJD
TjEQMA4GA1UECAwHQkVJSklORzEMMAoGA1UECgwDUEtVMRYwFAYDVQQLDA1NaWNy
b1NvZnR3YXJlMQ4wDAYDVQQDDAVRV0VSVDEaMBgGCSqGSIb3DQEJARYLUVdFQFFX
RS5jb20wXDANBgkqhkiG9w0BAQEFAANLADBIAkEA9DTPJyrPKyX720U4B2AimRxH
BQ4tGldVXebkUd0DuWNjDLbUzhtIwOFS7OhYLIRh6yhSiTEd8pJcTCkuEKqCoQID
AQABo3sweTAJBgNVHRMEAjAAMCwGCWCGSAGG+EIBDQQfFh1PcGVuU1NMIEdlbmVy
YXRlZCBDZXJ0aWZpY2F0ZTAdBgNVHQ4EFgQUiACkagySn+Q37hgEVSSOCN3WaeMw
HwYDVR0jBBgwFoAUeQIWz0qkS2gUFYDxyk6wL460ul4wDQYJKoZIhvcNAQEFBQAD
ggEBAJlo98WL+0UFv1V+up3RIAO+3TmOmxneLSkgopbHZtdmoOgBiTVUxjde1e3w
qLK6BdNTqV7+AbmCzePq1KAZk4FlPco0lgqTb6Du7O57z2UWg6hATShetteBg2wm
UnqZgCmGTdd3tqwQZi9nuMb5WWS6b9TvXPHIQu1EtDATmBGemRTiKFw+xwMxIgN1
EgI4yHrie73AxkNfCbJNCLFnFg+jU7Acypdu+7gwIx+ZoQ+XlLq6NQ2ovHuHzdBl
U+zpyGd/BluhWhrOJnVsSW4t+n4GveThRiQlb6d30zjiSviNPfqhaYAdHEfV0CzP
ORAnWjcH4B7asn3jC+/BwSfL9C8=
-----END CERTIFICATE-----
