Certificate:
    Data:
        Version: 3 (0x2)
        Serial Number: 11 (0xb)
    Signature Algorithm: sha1WithRSAEncryption
        Issuer: C=CN, ST=BEIJING, O=PKU, OU=MicroSoftware, CN=LIHAO/emailAddress=i@digva.com
        Validity
            Not Before: May 20 01:59:52 2013 GMT
            Not After : May 20 01:59:52 2014 GMT
        Subject: C=CN, ST=BEIJING, O=PKU, OU=MicroSoftware, CN=QWERT/emailAddress=QWE@QWE.com
        Subject Public Key Info:
            Public Key Algorithm: rsaEncryption
                Public-Key: (512 bit)
                Modulus:
                    00:f4:34:cf:27:2a:cf:2b:25:fb:db:45:38:07:60:
                    22:99:1c:47:05:0e:2d:1a:57:55:5d:e6:e4:51:dd:
                    03:b9:63:63:0c:b6:d4:ce:1b:48:c0:e1:52:ec:e8:
                    58:2c:84:61:eb:28:52:89:31:1d:f2:92:5c:4c:29:
                    2e:10:aa:82:a1
                Exponent: 65537 (0x10001)
        X509v3 extensions:
            X509v3 Basic Constraints: 
                CA:FALSE
            Netscape Comment: 
                OpenSSL Generated Certificate
            X509v3 Subject Key Identifier: 
                88:00:A4:6A:0C:92:9F:E4:37:EE:18:04:55:24:8E:08:DD:D6:69:E3
            X509v3 Authority Key Identifier: 
                keyid:79:02:16:CF:4A:A4:4B:68:14:15:80:F1:CA:4E:B0:2F:8E:B4:BA:5E

    Signature Algorithm: sha1WithRSAEncryption
         10:5b:12:a7:8b:72:35:15:ea:8d:5f:39:89:91:03:e2:b2:b9:
         0f:a0:ba:51:9b:3a:5f:54:ea:fb:26:9c:dd:ad:1a:78:44:9f:
         f2:82:10:76:b0:2b:38:4d:20:a6:34:9d:78:62:5f:12:1b:b2:
         3a:a1:7e:8c:30:d4:70:29:90:e1:c8:74:e0:e1:17:33:61:6b:
         d4:20:73:ab:11:87:43:a6:a8:40:7a:25:c4:2a:9f:22:f3:bd:
         69:4b:51:b3:b7:1f:00:c2:0b:22:ae:ef:30:92:5d:b5:90:b7:
         34:3f:7a:6c:70:01:b4:7e:05:21:bc:14:b1:96:f7:68:d4:81:
         88:56:93:e8:cd:03:20:30:6b:65:d4:2a:56:9f:24:6f:be:ab:
         46:0c:2b:2a:9b:8f:79:1a:b5:20:7e:5d:cf:12:b2:bd:d9:02:
         3e:62:04:fc:06:75:72:42:fc:78:a3:0e:cf:cf:f8:27:fa:b9:
         11:c2:aa:ce:fe:8c:54:2b:4d:c1:21:6b:81:6c:8b:27:40:82:
         83:e0:35:55:d6:89:c6:0b:19:23:5c:4d:fd:22:24:c3:7e:ef:
         22:30:e1:02:c7:0a:83:b9:63:12:60:67:d4:b3:f5:d6:e1:2a:
         cb:b5:03:e8:06:d9:ac:18:9f:94:be:2b:4e:a0:a0:df:be:bc:
         f8:48:47:01
-----BEGIN CERTIFICATE-----
MIIDEDCCAfigAwIBAgIBCzANBgkqhkiG9w0BAQUFADBxMQswCQYDVQQGEwJDTjEQ
MA4GA1UECAwHQkVJSklORzEMMAoGA1UECgwDUEtVMRYwFAYDVQQLDA1NaWNyb1Nv
ZnR3YXJlMQ4wDAYDVQQDDAVMSUhBTzEaMBgGCSqGSIb3DQEJARYLaUBkaWd2YS5j
b20wHhcNMTMwNTIwMDE1OTUyWhcNMTQwNTIwMDE1OTUyWjBxMQswCQYDVQQGEwJD
TjEQMA4GA1UECAwHQkVJSklORzEMMAoGA1UECgwDUEtVMRYwFAYDVQQLDA1NaWNy
b1NvZnR3YXJlMQ4wDAYDVQQDDAVRV0VSVDEaMBgGCSqGSIb3DQEJARYLUVdFQFFX
RS5jb20wXDANBgkqhkiG9w0BAQEFAANLADBIAkEA9DTPJyrPKyX720U4B2AimRxH
BQ4tGldVXebkUd0DuWNjDLbUzhtIwOFS7OhYLIRh6yhSiTEd8pJcTCkuEKqCoQID
AQABo3sweTAJBgNVHRMEAjAAMCwGCWCGSAGG+EIBDQQfFh1PcGVuU1NMIEdlbmVy
YXRlZCBDZXJ0aWZpY2F0ZTAdBgNVHQ4EFgQUiACkagySn+Q37hgEVSSOCN3WaeMw
HwYDVR0jBBgwFoAUeQIWz0qkS2gUFYDxyk6wL460ul4wDQYJKoZIhvcNAQEFBQAD
ggEBABBbEqeLcjUV6o1fOYmRA+KyuQ+gulGbOl9U6vsmnN2tGnhEn/KCEHawKzhN
IKY0nXhiXxIbsjqhfoww1HApkOHIdODhFzNha9Qgc6sRh0OmqEB6JcQqnyLzvWlL
UbO3HwDCCyKu7zCSXbWQtzQ/emxwAbR+BSG8FLGW92jUgYhWk+jNAyAwa2XUKlaf
JG++q0YMKyqbj3katSB+Xc8Ssr3ZAj5iBPwGdXJC/HijDs/P+Cf6uRHCqs7+jFQr
TcEha4FsiydAgoPgNVXWicYLGSNcTf0iJMN+7yIw4QLHCoO5YxJgZ9Sz9dbhKsu1
A+gG2awYn5S+K06goN++vPhIRwE=
-----END CERTIFICATE-----
