Certificate:
    Data:
        Version: 3 (0x2)
        Serial Number: 12 (0xc)
    Signature Algorithm: sha1WithRSAEncryption
        Issuer: C=CN, ST=BEIJING, O=PKU, OU=MicroSoftware, CN=LIHAO/emailAddress=i@digva.com
        Validity
            Not Before: May 20 02:10:18 2013 GMT
            Not After : May 20 02:10:18 2014 GMT
        Subject: C=CN, ST=BEIJING, O=PKU, OU=MicroSoftware, CN=QWERT/emailAddress=QWE@QWE.com
        Subject Public Key Info:
            Public Key Algorithm: rsaEncryption
                Public-Key: (512 bit)
                Modulus:
                    00:f4:34:cf:27:2a:cf:2b:25:fb:db:45:38:07:60:
                    22:99:1c:47:05:0e:2d:1a:57:55:5d:e6:e4:51:dd:
                    03:b9:63:63:0c:b6:d4:ce:1b:48:c0:e1:52:ec:e8:
                    58:2c:84:61:eb:28:52:89:31:1d:f2:92:5c:4c:29:
                    2e:10:aa:82:a1
                Exponent: 65537 (0x10001)
        X509v3 extensions:
            X509v3 Basic Constraints: 
                CA:FALSE
            Netscape Comment: 
                OpenSSL Generated Certificate
            X509v3 Subject Key Identifier: 
                88:00:A4:6A:0C:92:9F:E4:37:EE:18:04:55:24:8E:08:DD:D6:69:E3
            X509v3 Authority Key Identifier: 
                keyid:79:02:16:CF:4A:A4:4B:68:14:15:80:F1:CA:4E:B0:2F:8E:B4:BA:5E

    Signature Algorithm: sha1WithRSAEncryption
         8e:82:40:06:d1:d6:00:4b:da:cc:85:78:01:7c:d9:d8:a3:fb:
         7d:98:66:b9:cb:36:be:18:22:a4:ea:ff:7e:e5:f1:a2:ea:41:
         89:8a:ce:f0:9f:f7:c3:1a:c1:c8:c5:ab:99:2d:ae:0f:5c:c3:
         3a:6b:6a:db:52:52:0c:5e:38:5f:b0:d9:57:c4:b7:36:49:b3:
         0b:ad:be:70:78:62:13:ae:75:9a:55:23:bf:80:6d:2c:58:41:
         f4:3e:7b:4f:9e:f7:10:ea:87:d5:44:92:cd:bc:b8:0c:35:fe:
         5d:48:97:78:2b:4f:c7:65:97:e1:64:02:39:b7:97:07:87:cb:
         79:1f:bf:be:a1:b8:53:66:e0:1c:3a:b6:32:f6:23:c0:12:27:
         29:3f:63:71:91:97:be:9e:31:c8:33:65:ed:c7:8d:83:68:86:
         f8:e2:7a:1b:d3:74:b4:30:ff:21:86:27:78:7c:e8:5a:8d:41:
         29:84:2e:9e:b2:79:64:2c:3e:6c:25:2f:b4:1a:af:7f:39:f5:
         57:87:44:09:90:ea:b3:2e:59:e7:e1:ed:21:9f:4a:9a:50:bb:
         67:73:ea:5e:b7:c5:03:1b:a9:aa:bd:c1:bb:c1:08:ac:83:75:
         fc:4c:48:d1:a1:01:cb:0c:c9:c9:3b:f7:3f:a0:00:17:8e:a8:
         b9:c2:d7:9b
-----BEGIN CERTIFICATE-----
MIIDEDCCAfigAwIBAgIBDDANBgkqhkiG9w0BAQUFADBxMQswCQYDVQQGEwJDTjEQ
MA4GA1UECAwHQkVJSklORzEMMAoGA1UECgwDUEtVMRYwFAYDVQQLDA1NaWNyb1Nv
ZnR3YXJlMQ4wDAYDVQQDDAVMSUhBTzEaMBgGCSqGSIb3DQEJARYLaUBkaWd2YS5j
b20wHhcNMTMwNTIwMDIxMDE4WhcNMTQwNTIwMDIxMDE4WjBxMQswCQYDVQQGEwJD
TjEQMA4GA1UECAwHQkVJSklORzEMMAoGA1UECgwDUEtVMRYwFAYDVQQLDA1NaWNy
b1NvZnR3YXJlMQ4wDAYDVQQDDAVRV0VSVDEaMBgGCSqGSIb3DQEJARYLUVdFQFFX
RS5jb20wXDANBgkqhkiG9w0BAQEFAANLADBIAkEA9DTPJyrPKyX720U4B2AimRxH
BQ4tGldVXebkUd0DuWNjDLbUzhtIwOFS7OhYLIRh6yhSiTEd8pJcTCkuEKqCoQID
AQABo3sweTAJBgNVHRMEAjAAMCwGCWCGSAGG+EIBDQQfFh1PcGVuU1NMIEdlbmVy
YXRlZCBDZXJ0aWZpY2F0ZTAdBgNVHQ4EFgQUiACkagySn+Q37hgEVSSOCN3WaeMw
HwYDVR0jBBgwFoAUeQIWz0qkS2gUFYDxyk6wL460ul4wDQYJKoZIhvcNAQEFBQAD
ggEBAI6CQAbR1gBL2syFeAF82dij+32YZrnLNr4YIqTq/37l8aLqQYmKzvCf98Ma
wcjFq5ktrg9cwzprattSUgxeOF+w2VfEtzZJswutvnB4YhOudZpVI7+AbSxYQfQ+
e0+e9xDqh9VEks28uAw1/l1Il3grT8dll+FkAjm3lweHy3kfv76huFNm4Bw6tjL2
I8ASJyk/Y3GRl76eMcgzZe3HjYNohvjiehvTdLQw/yGGJ3h86FqNQSmELp6yeWQs
PmwlL7Qar3859VeHRAmQ6rMuWefh7SGfSppQu2dz6l63xQMbqaq9wbvBCKyDdfxM
SNGhAcsMyck79z+gABeOqLnC15s=
-----END CERTIFICATE-----
