Certificate:
    Data:
        Version: 3 (0x2)
        Serial Number: 14 (0xe)
    Signature Algorithm: sha1WithRSAEncryption
        Issuer: C=CN, ST=BEIJING, O=PKU, OU=MicroSoftware, CN=LIHAO/emailAddress=i@digva.com
        Validity
            Not Before: May 20 02:12:45 2013 GMT
            Not After : May 20 02:12:45 2014 GMT
        Subject: C=CN, ST=BEIJING, O=PKU, OU=MicroSoftware, CN=QWERT/emailAddress=QWE@QWE.com
        Subject Public Key Info:
            Public Key Algorithm: rsaEncryption
                Public-Key: (512 bit)
                Modulus:
                    00:f4:34:cf:27:2a:cf:2b:25:fb:db:45:38:07:60:
                    22:99:1c:47:05:0e:2d:1a:57:55:5d:e6:e4:51:dd:
                    03:b9:63:63:0c:b6:d4:ce:1b:48:c0:e1:52:ec:e8:
                    58:2c:84:61:eb:28:52:89:31:1d:f2:92:5c:4c:29:
                    2e:10:aa:82:a1
                Exponent: 65537 (0x10001)
        X509v3 extensions:
            X509v3 Basic Constraints: 
                CA:FALSE
            Netscape Comment: 
                OpenSSL Generated Certificate
            X509v3 Subject Key Identifier: 
                88:00:A4:6A:0C:92:9F:E4:37:EE:18:04:55:24:8E:08:DD:D6:69:E3
            X509v3 Authority Key Identifier: 
                keyid:79:02:16:CF:4A:A4:4B:68:14:15:80:F1:CA:4E:B0:2F:8E:B4:BA:5E

    Signature Algorithm: sha1WithRSAEncryption
         63:90:1c:18:2f:b2:0b:a3:d5:a8:96:86:ea:a8:3d:43:fd:0b:
         c8:0c:54:de:9c:58:54:d7:ef:a8:4c:c0:57:46:63:7e:93:de:
         ed:f4:71:87:1c:14:bd:fe:7c:13:18:95:3e:91:4e:7d:85:94:
         cb:0f:f9:0b:e1:ff:bd:45:0c:b6:01:2d:be:e7:17:09:3a:94:
         66:a9:c1:e8:0e:b1:b8:67:76:b6:54:24:a7:aa:22:ec:17:38:
         8c:5f:7a:45:6d:f8:52:00:69:da:2b:b6:8a:d6:6e:9e:79:5c:
         91:58:67:9c:b3:90:b3:99:8f:57:9e:d7:a9:79:ea:e9:08:6c:
         c5:32:5a:50:86:34:37:89:b4:01:9b:57:89:b9:bc:57:af:f3:
         cd:36:1c:16:6d:72:36:9f:4e:e4:9e:8c:63:82:41:b3:e7:5e:
         c9:e3:5f:38:10:89:03:1e:16:3b:a1:2b:c5:5b:21:2c:9b:ef:
         a6:fe:fa:95:1f:aa:27:56:39:c4:fd:81:38:c2:96:04:5d:c1:
         c4:bc:ec:67:74:6c:29:39:44:6b:b8:49:be:79:6b:a4:49:db:
         8d:b7:67:17:79:06:a0:06:e2:0a:f7:98:2d:50:9a:85:a0:7b:
         4d:1d:cc:89:13:eb:1d:b9:e8:0e:8f:65:2f:58:d7:1b:1b:0d:
         6c:18:30:1d
-----BEGIN CERTIFICATE-----
MIIDEDCCAfigAwIBAgIBDjANBgkqhkiG9w0BAQUFADBxMQswCQYDVQQGEwJDTjEQ
MA4GA1UECAwHQkVJSklORzEMMAoGA1UECgwDUEtVMRYwFAYDVQQLDA1NaWNyb1Nv
ZnR3YXJlMQ4wDAYDVQQDDAVMSUhBTzEaMBgGCSqGSIb3DQEJARYLaUBkaWd2YS5j
b20wHhcNMTMwNTIwMDIxMjQ1WhcNMTQwNTIwMDIxMjQ1WjBxMQswCQYDVQQGEwJD
TjEQMA4GA1UECAwHQkVJSklORzEMMAoGA1UECgwDUEtVMRYwFAYDVQQLDA1NaWNy
b1NvZnR3YXJlMQ4wDAYDVQQDDAVRV0VSVDEaMBgGCSqGSIb3DQEJARYLUVdFQFFX
RS5jb20wXDANBgkqhkiG9w0BAQEFAANLADBIAkEA9DTPJyrPKyX720U4B2AimRxH
BQ4tGldVXebkUd0DuWNjDLbUzhtIwOFS7OhYLIRh6yhSiTEd8pJcTCkuEKqCoQID
AQABo3sweTAJBgNVHRMEAjAAMCwGCWCGSAGG+EIBDQQfFh1PcGVuU1NMIEdlbmVy
YXRlZCBDZXJ0aWZpY2F0ZTAdBgNVHQ4EFgQUiACkagySn+Q37hgEVSSOCN3WaeMw
HwYDVR0jBBgwFoAUeQIWz0qkS2gUFYDxyk6wL460ul4wDQYJKoZIhvcNAQEFBQAD
ggEBAGOQHBgvsguj1aiWhuqoPUP9C8gMVN6cWFTX76hMwFdGY36T3u30cYccFL3+
fBMYlT6RTn2FlMsP+Qvh/71FDLYBLb7nFwk6lGapwegOsbhndrZUJKeqIuwXOIxf
ekVt+FIAadortorWbp55XJFYZ5yzkLOZj1ee16l56ukIbMUyWlCGNDeJtAGbV4m5
vFev8802HBZtcjafTuSejGOCQbPnXsnjXzgQiQMeFjuhK8VbISyb76b++pUfqidW
OcT9gTjClgRdwcS87Gd0bCk5RGu4Sb55a6RJ2423Zxd5BqAG4gr3mC1QmoWge00d
zIkT6x256A6PZS9Y1xsbDWwYMB0=
-----END CERTIFICATE-----
