Certificate:
    Data:
        Version: 3 (0x2)
        Serial Number: 19 (0x13)
    Signature Algorithm: sha1WithRSAEncryption
        Issuer: C=CN, ST=BEIJING, O=PKU, OU=MicroSoftware, CN=LIHAO/emailAddress=i@digva.com
        Validity
            Not Before: May 20 02:44:49 2013 GMT
            Not After : May 20 02:44:49 2014 GMT
        Subject: C=CN, ST=BEIJING, O=PKU, OU=MicroSoftware, CN=QWERT/emailAddress=QWE@QWE.com
        Subject Public Key Info:
            Public Key Algorithm: rsaEncryption
                Public-Key: (512 bit)
                Modulus:
                    00:f4:34:cf:27:2a:cf:2b:25:fb:db:45:38:07:60:
                    22:99:1c:47:05:0e:2d:1a:57:55:5d:e6:e4:51:dd:
                    03:b9:63:63:0c:b6:d4:ce:1b:48:c0:e1:52:ec:e8:
                    58:2c:84:61:eb:28:52:89:31:1d:f2:92:5c:4c:29:
                    2e:10:aa:82:a1
                Exponent: 65537 (0x10001)
        X509v3 extensions:
            X509v3 Basic Constraints: 
                CA:FALSE
            Netscape Comment: 
                OpenSSL Generated Certificate
            X509v3 Subject Key Identifier: 
                88:00:A4:6A:0C:92:9F:E4:37:EE:18:04:55:24:8E:08:DD:D6:69:E3
            X509v3 Authority Key Identifier: 
                keyid:79:02:16:CF:4A:A4:4B:68:14:15:80:F1:CA:4E:B0:2F:8E:B4:BA:5E

    Signature Algorithm: sha1WithRSAEncryption
         5c:2c:c7:71:f0:01:f7:3a:5a:75:b0:e2:51:f3:4f:a1:66:56:
         3c:f1:94:c3:3d:0e:8a:d4:b1:b2:3e:ba:98:fe:37:5c:1c:4a:
         c4:d7:ad:5f:55:62:bf:9e:4d:2f:51:4b:51:83:1e:04:9b:4c:
         20:ce:03:61:36:9d:89:77:1c:17:42:aa:83:e2:95:0a:5f:e1:
         13:75:38:9f:4e:12:03:d7:3f:7a:55:74:4a:b9:f8:01:5c:ab:
         01:17:af:86:32:23:ed:ea:fe:1d:6d:fb:2b:09:27:13:9b:4e:
         1c:5f:6a:b0:da:da:a0:33:e8:2e:ab:1e:e1:d5:16:5a:ca:b3:
         70:53:b6:f5:e1:28:50:28:ae:ab:ec:bd:2a:3c:15:87:26:ea:
         d3:6b:26:c0:5d:42:ab:83:a6:42:b3:a8:af:75:05:db:06:5d:
         ff:28:15:0d:fb:35:a5:7c:94:39:b4:65:d3:36:a4:b7:e3:55:
         05:50:2c:c6:23:29:61:e4:06:89:6c:b1:1e:53:7e:89:e6:13:
         6d:01:93:0d:00:c8:b3:09:ff:ff:c8:e4:54:1a:84:fe:20:44:
         24:88:1b:05:34:d6:19:db:d4:e2:3d:bc:21:91:5d:1d:52:cd:
         2d:3c:7d:f5:f2:4d:d8:0c:64:51:c9:17:64:01:c6:dd:b3:d0:
         1e:e8:8c:2a
-----BEGIN CERTIFICATE-----
MIIDEDCCAfigAwIBAgIBEzANBgkqhkiG9w0BAQUFADBxMQswCQYDVQQGEwJDTjEQ
MA4GA1UECAwHQkVJSklORzEMMAoGA1UECgwDUEtVMRYwFAYDVQQLDA1NaWNyb1Nv
ZnR3YXJlMQ4wDAYDVQQDDAVMSUhBTzEaMBgGCSqGSIb3DQEJARYLaUBkaWd2YS5j
b20wHhcNMTMwNTIwMDI0NDQ5WhcNMTQwNTIwMDI0NDQ5WjBxMQswCQYDVQQGEwJD
TjEQMA4GA1UECAwHQkVJSklORzEMMAoGA1UECgwDUEtVMRYwFAYDVQQLDA1NaWNy
b1NvZnR3YXJlMQ4wDAYDVQQDDAVRV0VSVDEaMBgGCSqGSIb3DQEJARYLUVdFQFFX
RS5jb20wXDANBgkqhkiG9w0BAQEFAANLADBIAkEA9DTPJyrPKyX720U4B2AimRxH
BQ4tGldVXebkUd0DuWNjDLbUzhtIwOFS7OhYLIRh6yhSiTEd8pJcTCkuEKqCoQID
AQABo3sweTAJBgNVHRMEAjAAMCwGCWCGSAGG+EIBDQQfFh1PcGVuU1NMIEdlbmVy
YXRlZCBDZXJ0aWZpY2F0ZTAdBgNVHQ4EFgQUiACkagySn+Q37hgEVSSOCN3WaeMw
HwYDVR0jBBgwFoAUeQIWz0qkS2gUFYDxyk6wL460ul4wDQYJKoZIhvcNAQEFBQAD
ggEBAFwsx3HwAfc6WnWw4lHzT6FmVjzxlMM9DorUsbI+upj+N1wcSsTXrV9VYr+e
TS9RS1GDHgSbTCDOA2E2nYl3HBdCqoPilQpf4RN1OJ9OEgPXP3pVdEq5+AFcqwEX
r4YyI+3q/h1t+ysJJxObThxfarDa2qAz6C6rHuHVFlrKs3BTtvXhKFAorqvsvSo8
FYcm6tNrJsBdQquDpkKzqK91BdsGXf8oFQ37NaV8lDm0ZdM2pLfjVQVQLMYjKWHk
BolssR5TfonmE20Bkw0AyLMJ///I5FQahP4gRCSIGwU01hnb1OI9vCGRXR1SzS08
ffXyTdgMZFHJF2QBxt2z0B7ojCo=
-----END CERTIFICATE-----
