Certificate:
    Data:
        Version: 3 (0x2)
        Serial Number: 22 (0x16)
    Signature Algorithm: sha1WithRSAEncryption
        Issuer: C=CN, ST=BEIJING, O=PKU, OU=MicroSoftware, CN=LIHAO/emailAddress=i@digva.com
        Validity
            Not Before: May 20 02:53:16 2013 GMT
            Not After : May 20 02:53:16 2014 GMT
        Subject: C=CN, ST=BEIJING, O=PKU, OU=MicroSoftware, CN=QWERT/emailAddress=QWE@QWE.com
        Subject Public Key Info:
            Public Key Algorithm: rsaEncryption
                Public-Key: (512 bit)
                Modulus:
                    00:f4:34:cf:27:2a:cf:2b:25:fb:db:45:38:07:60:
                    22:99:1c:47:05:0e:2d:1a:57:55:5d:e6:e4:51:dd:
                    03:b9:63:63:0c:b6:d4:ce:1b:48:c0:e1:52:ec:e8:
                    58:2c:84:61:eb:28:52:89:31:1d:f2:92:5c:4c:29:
                    2e:10:aa:82:a1
                Exponent: 65537 (0x10001)
        X509v3 extensions:
            X509v3 Basic Constraints: 
                CA:FALSE
            Netscape Comment: 
                OpenSSL Generated Certificate
            X509v3 Subject Key Identifier: 
                88:00:A4:6A:0C:92:9F:E4:37:EE:18:04:55:24:8E:08:DD:D6:69:E3
            X509v3 Authority Key Identifier: 
                keyid:79:02:16:CF:4A:A4:4B:68:14:15:80:F1:CA:4E:B0:2F:8E:B4:BA:5E

    Signature Algorithm: sha1WithRSAEncryption
         33:d8:67:26:89:04:72:e7:0f:eb:ef:6c:45:6f:b4:e8:fc:81:
         00:f5:ca:f8:83:8a:8d:97:c4:2b:4d:c9:31:d0:1f:02:81:6f:
         80:99:69:15:7c:74:9e:ea:0d:2e:c6:b1:16:f9:2d:05:7e:19:
         6d:01:f1:e4:f5:52:63:8b:db:44:fb:84:63:14:be:88:2b:c4:
         f8:cb:3e:e7:e6:d3:79:82:38:e4:e8:90:33:fb:65:7a:5d:ab:
         22:70:60:12:85:d7:8a:bc:a3:6c:b4:56:35:0b:42:aa:e0:06:
         8b:09:c5:a3:bc:82:d5:e1:fc:d3:17:29:50:a2:a0:e9:36:dc:
         0a:3e:c9:a9:f7:09:2b:03:2d:a0:a0:9f:05:27:f0:19:94:e5:
         bc:19:fc:40:22:7d:3d:e5:5a:76:b7:a7:5e:e4:da:2c:51:65:
         fe:86:07:0c:ca:83:5f:a1:a7:c5:3c:8c:15:79:53:39:f9:1c:
         0e:8c:4b:fa:53:ec:c8:41:da:f5:8a:8e:e3:1d:84:ec:a0:f3:
         e1:e9:87:e1:bb:d3:94:db:04:f0:fa:3f:ac:20:93:f8:48:26:
         b5:cc:90:6f:19:fc:ee:b3:ea:6f:4f:f2:62:d5:11:36:2e:cd:
         95:60:05:e5:37:e7:a6:f0:18:2a:6d:e7:12:37:aa:90:5e:26:
         45:fd:70:61
-----BEGIN CERTIFICATE-----
MIIDEDCCAfigAwIBAgIBFjANBgkqhkiG9w0BAQUFADBxMQswCQYDVQQGEwJDTjEQ
MA4GA1UECAwHQkVJSklORzEMMAoGA1UECgwDUEtVMRYwFAYDVQQLDA1NaWNyb1Nv
ZnR3YXJlMQ4wDAYDVQQDDAVMSUhBTzEaMBgGCSqGSIb3DQEJARYLaUBkaWd2YS5j
b20wHhcNMTMwNTIwMDI1MzE2WhcNMTQwNTIwMDI1MzE2WjBxMQswCQYDVQQGEwJD
TjEQMA4GA1UECAwHQkVJSklORzEMMAoGA1UECgwDUEtVMRYwFAYDVQQLDA1NaWNy
b1NvZnR3YXJlMQ4wDAYDVQQDDAVRV0VSVDEaMBgGCSqGSIb3DQEJARYLUVdFQFFX
RS5jb20wXDANBgkqhkiG9w0BAQEFAANLADBIAkEA9DTPJyrPKyX720U4B2AimRxH
BQ4tGldVXebkUd0DuWNjDLbUzhtIwOFS7OhYLIRh6yhSiTEd8pJcTCkuEKqCoQID
AQABo3sweTAJBgNVHRMEAjAAMCwGCWCGSAGG+EIBDQQfFh1PcGVuU1NMIEdlbmVy
YXRlZCBDZXJ0aWZpY2F0ZTAdBgNVHQ4EFgQUiACkagySn+Q37hgEVSSOCN3WaeMw
HwYDVR0jBBgwFoAUeQIWz0qkS2gUFYDxyk6wL460ul4wDQYJKoZIhvcNAQEFBQAD
ggEBADPYZyaJBHLnD+vvbEVvtOj8gQD1yviDio2XxCtNyTHQHwKBb4CZaRV8dJ7q
DS7GsRb5LQV+GW0B8eT1UmOL20T7hGMUvogrxPjLPufm03mCOOTokDP7ZXpdqyJw
YBKF14q8o2y0VjULQqrgBosJxaO8gtXh/NMXKVCioOk23Ao+yan3CSsDLaCgnwUn
8BmU5bwZ/EAifT3lWna3p17k2ixRZf6GBwzKg1+hp8U8jBV5Uzn5HA6MS/pT7MhB
2vWKjuMdhOyg8+Hph+G705TbBPD6P6wgk/hIJrXMkG8Z/O6z6m9P8mLVETYuzZVg
BeU356bwGCpt5xI3qpBeJkX9cGE=
-----END CERTIFICATE-----
