Certificate:
    Data:
        Version: 3 (0x2)
        Serial Number: 23 (0x17)
    Signature Algorithm: sha1WithRSAEncryption
        Issuer: C=CN, ST=BEIJING, O=PKU, OU=MicroSoftware, CN=LIHAO/emailAddress=i@digva.com
        Validity
            Not Before: May 20 02:53:44 2013 GMT
            Not After : May 20 02:53:44 2014 GMT
        Subject: C=CN, ST=BEIJING, O=PKU, OU=MicroSoftware, CN=QWERT/emailAddress=QWE@QWE.com
        Subject Public Key Info:
            Public Key Algorithm: rsaEncryption
                Public-Key: (512 bit)
                Modulus:
                    00:f4:34:cf:27:2a:cf:2b:25:fb:db:45:38:07:60:
                    22:99:1c:47:05:0e:2d:1a:57:55:5d:e6:e4:51:dd:
                    03:b9:63:63:0c:b6:d4:ce:1b:48:c0:e1:52:ec:e8:
                    58:2c:84:61:eb:28:52:89:31:1d:f2:92:5c:4c:29:
                    2e:10:aa:82:a1
                Exponent: 65537 (0x10001)
        X509v3 extensions:
            X509v3 Basic Constraints: 
                CA:FALSE
            Netscape Comment: 
                OpenSSL Generated Certificate
            X509v3 Subject Key Identifier: 
                88:00:A4:6A:0C:92:9F:E4:37:EE:18:04:55:24:8E:08:DD:D6:69:E3
            X509v3 Authority Key Identifier: 
                keyid:79:02:16:CF:4A:A4:4B:68:14:15:80:F1:CA:4E:B0:2F:8E:B4:BA:5E

    Signature Algorithm: sha1WithRSAEncryption
         58:83:e0:09:d4:7d:eb:83:e2:78:70:5e:2d:91:54:82:4b:1e:
         95:94:c2:78:fc:f0:33:e8:f6:34:62:84:b3:aa:ad:00:82:4d:
         04:26:c9:cd:c2:5f:1c:b7:14:8d:8f:02:00:85:50:78:6c:28:
         7a:66:2a:54:50:2a:22:d3:5c:23:d0:70:d1:18:f4:74:29:02:
         ea:6a:e3:f8:6c:42:5c:63:c5:ec:0b:e9:0c:1d:64:06:f0:82:
         f2:4b:f5:6d:e4:8a:48:b9:dd:07:82:59:f2:bc:22:52:1d:00:
         90:bc:e9:b4:24:46:9b:fe:6b:7e:2f:37:60:ff:9c:ee:9d:4e:
         72:ee:32:e1:bd:0f:1d:1a:5e:ab:c1:a8:79:26:d5:1e:36:97:
         10:22:11:25:79:f9:4e:8b:2d:73:e7:2b:c7:ba:c6:4e:b8:44:
         c3:dd:96:27:d8:b3:6f:c8:c6:1b:59:70:46:81:5e:6a:64:92:
         ce:ee:23:89:85:94:c0:6d:4c:78:0d:0e:f6:fc:48:59:6b:49:
         5c:8b:85:c8:5a:2a:8c:55:d7:5a:ad:11:5b:42:45:bf:83:63:
         02:67:72:7f:bb:b0:be:49:1f:7c:da:fb:ee:92:5e:54:85:62:
         a9:d7:24:21:91:50:fc:5a:e6:df:29:a4:33:36:d0:7f:56:66:
         f5:dd:ef:b9
-----BEGIN CERTIFICATE-----
MIIDEDCCAfigAwIBAgIBFzANBgkqhkiG9w0BAQUFADBxMQswCQYDVQQGEwJDTjEQ
MA4GA1UECAwHQkVJSklORzEMMAoGA1UECgwDUEtVMRYwFAYDVQQLDA1NaWNyb1Nv
ZnR3YXJlMQ4wDAYDVQQDDAVMSUhBTzEaMBgGCSqGSIb3DQEJARYLaUBkaWd2YS5j
b20wHhcNMTMwNTIwMDI1MzQ0WhcNMTQwNTIwMDI1MzQ0WjBxMQswCQYDVQQGEwJD
TjEQMA4GA1UECAwHQkVJSklORzEMMAoGA1UECgwDUEtVMRYwFAYDVQQLDA1NaWNy
b1NvZnR3YXJlMQ4wDAYDVQQDDAVRV0VSVDEaMBgGCSqGSIb3DQEJARYLUVdFQFFX
RS5jb20wXDANBgkqhkiG9w0BAQEFAANLADBIAkEA9DTPJyrPKyX720U4B2AimRxH
BQ4tGldVXebkUd0DuWNjDLbUzhtIwOFS7OhYLIRh6yhSiTEd8pJcTCkuEKqCoQID
AQABo3sweTAJBgNVHRMEAjAAMCwGCWCGSAGG+EIBDQQfFh1PcGVuU1NMIEdlbmVy
YXRlZCBDZXJ0aWZpY2F0ZTAdBgNVHQ4EFgQUiACkagySn+Q37hgEVSSOCN3WaeMw
HwYDVR0jBBgwFoAUeQIWz0qkS2gUFYDxyk6wL460ul4wDQYJKoZIhvcNAQEFBQAD
ggEBAFiD4AnUfeuD4nhwXi2RVIJLHpWUwnj88DPo9jRihLOqrQCCTQQmyc3CXxy3
FI2PAgCFUHhsKHpmKlRQKiLTXCPQcNEY9HQpAupq4/hsQlxjxewL6QwdZAbwgvJL
9W3kiki53QeCWfK8IlIdAJC86bQkRpv+a34vN2D/nO6dTnLuMuG9Dx0aXqvBqHkm
1R42lxAiESV5+U6LLXPnK8e6xk64RMPdlifYs2/IxhtZcEaBXmpkks7uI4mFlMBt
THgNDvb8SFlrSVyLhchaKoxV11qtEVtCRb+DYwJncn+7sL5JH3za++6SXlSFYqnX
JCGRUPxa5t8ppDM20H9WZvXd77k=
-----END CERTIFICATE-----
