Certificate:
    Data:
        Version: 3 (0x2)
        Serial Number: 24 (0x18)
    Signature Algorithm: sha1WithRSAEncryption
        Issuer: C=CN, ST=BEIJING, O=PKU, OU=MicroSoftware, CN=LIHAO/emailAddress=i@digva.com
        Validity
            Not Before: May 20 02:56:37 2013 GMT
            Not After : May 20 02:56:37 2014 GMT
        Subject: C=CN, ST=BEIJING, O=PKU, OU=MicroSoftware, CN=QWERT/emailAddress=QWE@QWE.com
        Subject Public Key Info:
            Public Key Algorithm: rsaEncryption
                Public-Key: (512 bit)
                Modulus:
                    00:f4:34:cf:27:2a:cf:2b:25:fb:db:45:38:07:60:
                    22:99:1c:47:05:0e:2d:1a:57:55:5d:e6:e4:51:dd:
                    03:b9:63:63:0c:b6:d4:ce:1b:48:c0:e1:52:ec:e8:
                    58:2c:84:61:eb:28:52:89:31:1d:f2:92:5c:4c:29:
                    2e:10:aa:82:a1
                Exponent: 65537 (0x10001)
        X509v3 extensions:
            X509v3 Basic Constraints: 
                CA:FALSE
            Netscape Comment: 
                OpenSSL Generated Certificate
            X509v3 Subject Key Identifier: 
                88:00:A4:6A:0C:92:9F:E4:37:EE:18:04:55:24:8E:08:DD:D6:69:E3
            X509v3 Authority Key Identifier: 
                keyid:79:02:16:CF:4A:A4:4B:68:14:15:80:F1:CA:4E:B0:2F:8E:B4:BA:5E

    Signature Algorithm: sha1WithRSAEncryption
         42:54:86:74:6b:d9:45:fa:4e:12:de:c0:3e:12:1c:af:ba:da:
         af:ac:21:18:4c:aa:9c:50:e1:cf:b6:77:2f:2b:66:15:4d:2d:
         51:0f:7c:11:7e:f1:00:0a:72:ca:c0:68:19:ba:ac:64:4d:9c:
         b5:93:2b:a4:1a:6e:e4:36:46:15:40:3a:d9:00:6a:b9:a4:be:
         41:e8:56:32:42:1b:22:cc:5b:33:91:79:d6:38:e1:94:a6:4b:
         d3:ec:3f:13:44:1e:d8:24:92:08:0e:fc:04:eb:33:40:7f:00:
         fb:d1:83:12:0a:fb:ca:fb:8e:71:08:26:c2:e7:69:fe:a2:7e:
         c8:a4:5c:7d:86:66:b3:9a:38:4e:d4:b8:68:3c:74:02:7d:dc:
         10:53:8e:72:3e:52:e1:87:c0:0d:03:54:0e:43:cf:6f:a7:88:
         eb:fd:78:fe:d5:86:e1:92:24:5c:2a:da:b9:8f:cf:2a:49:4f:
         f2:38:63:e8:f8:e2:20:e7:81:ba:db:bf:dc:d5:38:f4:7e:03:
         5f:29:c1:6b:25:8a:68:76:6f:07:83:9e:4e:ce:5e:f2:bf:7a:
         8a:5d:d0:aa:a4:60:f7:0a:8c:eb:5b:3f:f3:d0:93:8c:bf:a6:
         8d:08:72:40:c1:03:3f:d9:05:f6:df:d6:c3:fc:da:94:d0:02:
         5b:58:55:d9
-----BEGIN CERTIFICATE-----
MIIDEDCCAfigAwIBAgIBGDANBgkqhkiG9w0BAQUFADBxMQswCQYDVQQGEwJDTjEQ
MA4GA1UECAwHQkVJSklORzEMMAoGA1UECgwDUEtVMRYwFAYDVQQLDA1NaWNyb1Nv
ZnR3YXJlMQ4wDAYDVQQDDAVMSUhBTzEaMBgGCSqGSIb3DQEJARYLaUBkaWd2YS5j
b20wHhcNMTMwNTIwMDI1NjM3WhcNMTQwNTIwMDI1NjM3WjBxMQswCQYDVQQGEwJD
TjEQMA4GA1UECAwHQkVJSklORzEMMAoGA1UECgwDUEtVMRYwFAYDVQQLDA1NaWNy
b1NvZnR3YXJlMQ4wDAYDVQQDDAVRV0VSVDEaMBgGCSqGSIb3DQEJARYLUVdFQFFX
RS5jb20wXDANBgkqhkiG9w0BAQEFAANLADBIAkEA9DTPJyrPKyX720U4B2AimRxH
BQ4tGldVXebkUd0DuWNjDLbUzhtIwOFS7OhYLIRh6yhSiTEd8pJcTCkuEKqCoQID
AQABo3sweTAJBgNVHRMEAjAAMCwGCWCGSAGG+EIBDQQfFh1PcGVuU1NMIEdlbmVy
YXRlZCBDZXJ0aWZpY2F0ZTAdBgNVHQ4EFgQUiACkagySn+Q37hgEVSSOCN3WaeMw
HwYDVR0jBBgwFoAUeQIWz0qkS2gUFYDxyk6wL460ul4wDQYJKoZIhvcNAQEFBQAD
ggEBAEJUhnRr2UX6ThLewD4SHK+62q+sIRhMqpxQ4c+2dy8rZhVNLVEPfBF+8QAK
csrAaBm6rGRNnLWTK6QabuQ2RhVAOtkAarmkvkHoVjJCGyLMWzORedY44ZSmS9Ps
PxNEHtgkkggO/ATrM0B/APvRgxIK+8r7jnEIJsLnaf6ifsikXH2GZrOaOE7UuGg8
dAJ93BBTjnI+UuGHwA0DVA5Dz2+niOv9eP7VhuGSJFwq2rmPzypJT/I4Y+j44iDn
gbrbv9zVOPR+A18pwWslimh2bweDnk7OXvK/eopd0KqkYPcKjOtbP/PQk4y/po0I
ckDBAz/ZBfbf1sP82pTQAltYVdk=
-----END CERTIFICATE-----
