Certificate:
    Data:
        Version: 3 (0x2)
        Serial Number: 25 (0x19)
    Signature Algorithm: sha1WithRSAEncryption
        Issuer: C=CN, ST=BEIJING, O=PKU, OU=MicroSoftware, CN=LIHAO/emailAddress=i@digva.com
        Validity
            Not Before: May 20 02:58:14 2013 GMT
            Not After : May 20 02:58:14 2014 GMT
        Subject: C=CN, ST=BEIJING, O=PKU, OU=MicroSoftware, CN=QWERT/emailAddress=QWE@QWE.com
        Subject Public Key Info:
            Public Key Algorithm: rsaEncryption
                Public-Key: (512 bit)
                Modulus:
                    00:f4:34:cf:27:2a:cf:2b:25:fb:db:45:38:07:60:
                    22:99:1c:47:05:0e:2d:1a:57:55:5d:e6:e4:51:dd:
                    03:b9:63:63:0c:b6:d4:ce:1b:48:c0:e1:52:ec:e8:
                    58:2c:84:61:eb:28:52:89:31:1d:f2:92:5c:4c:29:
                    2e:10:aa:82:a1
                Exponent: 65537 (0x10001)
        X509v3 extensions:
            X509v3 Basic Constraints: 
                CA:FALSE
            Netscape Comment: 
                OpenSSL Generated Certificate
            X509v3 Subject Key Identifier: 
                88:00:A4:6A:0C:92:9F:E4:37:EE:18:04:55:24:8E:08:DD:D6:69:E3
            X509v3 Authority Key Identifier: 
                keyid:79:02:16:CF:4A:A4:4B:68:14:15:80:F1:CA:4E:B0:2F:8E:B4:BA:5E

    Signature Algorithm: sha1WithRSAEncryption
         6b:4a:28:61:15:3b:66:70:5d:0a:ac:ba:b5:9c:09:af:9f:98:
         db:93:54:47:2c:9b:02:69:fe:29:67:a7:b3:2b:72:e1:06:f1:
         4a:5c:a4:50:4c:99:38:fb:c6:7f:26:e8:66:b4:32:35:2c:85:
         c5:5d:5a:41:dd:c2:c0:3f:41:0f:32:c3:20:fa:6e:14:5c:a2:
         1e:c6:df:4f:35:2d:13:58:ed:b1:99:48:c2:a5:f6:1a:11:a4:
         7f:bd:15:b9:cb:fa:64:55:d4:ca:1e:9d:3b:81:7b:31:7c:dd:
         41:0b:fd:e3:86:69:1a:24:2c:c9:d3:35:05:97:84:3e:92:e9:
         3f:9b:49:f5:f1:e4:69:8d:ea:1f:ba:a7:df:58:1f:f1:5a:64:
         f1:59:6e:73:9b:60:64:bb:2a:9d:2a:e1:92:eb:96:24:57:be:
         65:aa:19:8a:e5:80:84:f9:2e:41:df:a7:b6:f7:b0:06:26:7a:
         96:03:8a:e4:c5:f3:c1:49:f3:83:5b:42:50:81:8f:28:4d:f7:
         37:d7:12:f5:98:0d:31:7b:ca:e8:38:74:f2:49:b7:1b:78:d1:
         13:83:65:6d:87:30:aa:d7:a9:55:19:fe:f8:00:fb:fa:6d:24:
         3c:86:87:7c:79:ab:06:aa:03:86:d9:ac:ab:3b:34:30:b1:7a:
         40:e3:ad:84
-----BEGIN CERTIFICATE-----
MIIDEDCCAfigAwIBAgIBGTANBgkqhkiG9w0BAQUFADBxMQswCQYDVQQGEwJDTjEQ
MA4GA1UECAwHQkVJSklORzEMMAoGA1UECgwDUEtVMRYwFAYDVQQLDA1NaWNyb1Nv
ZnR3YXJlMQ4wDAYDVQQDDAVMSUhBTzEaMBgGCSqGSIb3DQEJARYLaUBkaWd2YS5j
b20wHhcNMTMwNTIwMDI1ODE0WhcNMTQwNTIwMDI1ODE0WjBxMQswCQYDVQQGEwJD
TjEQMA4GA1UECAwHQkVJSklORzEMMAoGA1UECgwDUEtVMRYwFAYDVQQLDA1NaWNy
b1NvZnR3YXJlMQ4wDAYDVQQDDAVRV0VSVDEaMBgGCSqGSIb3DQEJARYLUVdFQFFX
RS5jb20wXDANBgkqhkiG9w0BAQEFAANLADBIAkEA9DTPJyrPKyX720U4B2AimRxH
BQ4tGldVXebkUd0DuWNjDLbUzhtIwOFS7OhYLIRh6yhSiTEd8pJcTCkuEKqCoQID
AQABo3sweTAJBgNVHRMEAjAAMCwGCWCGSAGG+EIBDQQfFh1PcGVuU1NMIEdlbmVy
YXRlZCBDZXJ0aWZpY2F0ZTAdBgNVHQ4EFgQUiACkagySn+Q37hgEVSSOCN3WaeMw
HwYDVR0jBBgwFoAUeQIWz0qkS2gUFYDxyk6wL460ul4wDQYJKoZIhvcNAQEFBQAD
ggEBAGtKKGEVO2ZwXQqsurWcCa+fmNuTVEcsmwJp/ilnp7MrcuEG8UpcpFBMmTj7
xn8m6Ga0MjUshcVdWkHdwsA/QQ8ywyD6bhRcoh7G3081LRNY7bGZSMKl9hoRpH+9
FbnL+mRV1MoenTuBezF83UEL/eOGaRokLMnTNQWXhD6S6T+bSfXx5GmN6h+6p99Y
H/FaZPFZbnObYGS7Kp0q4ZLrliRXvmWqGYrlgIT5LkHfp7b3sAYmepYDiuTF88FJ
84NbQlCBjyhN9zfXEvWYDTF7yug4dPJJtxt40RODZW2HMKrXqVUZ/vgA+/ptJDyG
h3x5qwaqA4bZrKs7NDCxekDjrYQ=
-----END CERTIFICATE-----
