Certificate:
    Data:
        Version: 3 (0x2)
        Serial Number: 26 (0x1a)
    Signature Algorithm: sha1WithRSAEncryption
        Issuer: C=CN, ST=BEIJING, O=PKU, OU=MicroSoftware, CN=LIHAO/emailAddress=i@digva.com
        Validity
            Not Before: May 20 06:00:47 2013 GMT
            Not After : May 20 06:00:47 2014 GMT
        Subject: C=CN, ST=BEIJING, O=PKU, OU=MicroSoftware, CN=QWERT/emailAddress=QWE@QWE.com
        Subject Public Key Info:
            Public Key Algorithm: rsaEncryption
                Public-Key: (512 bit)
                Modulus:
                    00:f4:34:cf:27:2a:cf:2b:25:fb:db:45:38:07:60:
                    22:99:1c:47:05:0e:2d:1a:57:55:5d:e6:e4:51:dd:
                    03:b9:63:63:0c:b6:d4:ce:1b:48:c0:e1:52:ec:e8:
                    58:2c:84:61:eb:28:52:89:31:1d:f2:92:5c:4c:29:
                    2e:10:aa:82:a1
                Exponent: 65537 (0x10001)
        X509v3 extensions:
            X509v3 Basic Constraints: 
                CA:FALSE
            Netscape Comment: 
                OpenSSL Generated Certificate
            X509v3 Subject Key Identifier: 
                88:00:A4:6A:0C:92:9F:E4:37:EE:18:04:55:24:8E:08:DD:D6:69:E3
            X509v3 Authority Key Identifier: 
                keyid:79:02:16:CF:4A:A4:4B:68:14:15:80:F1:CA:4E:B0:2F:8E:B4:BA:5E

    Signature Algorithm: sha1WithRSAEncryption
         40:67:92:83:18:91:64:61:2a:3b:29:36:4d:6f:78:8e:2b:63:
         e0:de:71:0f:e4:b3:04:ce:f7:01:85:eb:c0:49:20:38:03:52:
         8b:03:b0:7e:0d:e9:a8:76:46:1f:01:34:e6:7b:66:59:81:36:
         da:8e:e0:8b:0f:88:a7:c2:78:f5:95:2a:ba:9e:77:c3:d3:d2:
         ae:03:78:37:b2:4f:f7:8a:0e:b1:bf:d1:fd:a2:5c:e6:1d:31:
         38:7a:ba:55:0e:15:ef:f7:e3:35:37:0b:99:c9:28:1f:24:4d:
         b5:3a:f5:75:31:b1:1a:54:b6:7d:82:9b:96:47:4b:c1:87:a8:
         1f:4f:3c:cb:5f:af:3a:84:f2:40:f4:bb:6b:48:ed:69:c8:ca:
         6e:ce:52:b4:14:5d:e2:fd:a9:7d:46:36:15:ab:d4:d3:dd:d7:
         8f:39:9d:05:f9:14:37:f6:00:42:0b:2d:91:85:f6:d3:8f:92:
         cd:53:35:b8:3e:74:e5:92:5d:ca:13:39:1a:11:cd:b0:e3:63:
         ad:11:bd:cb:f8:d4:ff:50:cd:21:8c:be:50:46:e5:95:d0:96:
         62:04:14:1e:12:e0:5b:df:69:76:66:c6:62:c5:f8:d9:4c:fd:
         9a:9b:21:52:73:70:97:87:2d:81:88:ff:e4:76:01:94:95:29:
         d0:36:1a:03
-----BEGIN CERTIFICATE-----
MIIDEDCCAfigAwIBAgIBGjANBgkqhkiG9w0BAQUFADBxMQswCQYDVQQGEwJDTjEQ
MA4GA1UECAwHQkVJSklORzEMMAoGA1UECgwDUEtVMRYwFAYDVQQLDA1NaWNyb1Nv
ZnR3YXJlMQ4wDAYDVQQDDAVMSUhBTzEaMBgGCSqGSIb3DQEJARYLaUBkaWd2YS5j
b20wHhcNMTMwNTIwMDYwMDQ3WhcNMTQwNTIwMDYwMDQ3WjBxMQswCQYDVQQGEwJD
TjEQMA4GA1UECAwHQkVJSklORzEMMAoGA1UECgwDUEtVMRYwFAYDVQQLDA1NaWNy
b1NvZnR3YXJlMQ4wDAYDVQQDDAVRV0VSVDEaMBgGCSqGSIb3DQEJARYLUVdFQFFX
RS5jb20wXDANBgkqhkiG9w0BAQEFAANLADBIAkEA9DTPJyrPKyX720U4B2AimRxH
BQ4tGldVXebkUd0DuWNjDLbUzhtIwOFS7OhYLIRh6yhSiTEd8pJcTCkuEKqCoQID
AQABo3sweTAJBgNVHRMEAjAAMCwGCWCGSAGG+EIBDQQfFh1PcGVuU1NMIEdlbmVy
YXRlZCBDZXJ0aWZpY2F0ZTAdBgNVHQ4EFgQUiACkagySn+Q37hgEVSSOCN3WaeMw
HwYDVR0jBBgwFoAUeQIWz0qkS2gUFYDxyk6wL460ul4wDQYJKoZIhvcNAQEFBQAD
ggEBAEBnkoMYkWRhKjspNk1veI4rY+DecQ/kswTO9wGF68BJIDgDUosDsH4N6ah2
Rh8BNOZ7ZlmBNtqO4IsPiKfCePWVKrqed8PT0q4DeDeyT/eKDrG/0f2iXOYdMTh6
ulUOFe/34zU3C5nJKB8kTbU69XUxsRpUtn2Cm5ZHS8GHqB9PPMtfrzqE8kD0u2tI
7WnIym7OUrQUXeL9qX1GNhWr1NPd1485nQX5FDf2AEILLZGF9tOPks1TNbg+dOWS
XcoTORoRzbDjY60Rvcv41P9QzSGMvlBG5ZXQlmIEFB4S4FvfaXZmxmLF+NlM/Zqb
IVJzcJeHLYGI/+R2AZSVKdA2GgM=
-----END CERTIFICATE-----
