Certificate:
    Data:
        Version: 3 (0x2)
        Serial Number: 31 (0x1f)
    Signature Algorithm: sha1WithRSAEncryption
        Issuer: C=CN, ST=BEIJING, O=PKU, OU=MicroSoftware, CN=LIHAO/emailAddress=i@digva.com
        Validity
            Not Before: May 20 07:51:48 2013 GMT
            Not After : May 20 07:51:48 2014 GMT
        Subject: C=CN, ST=BEIJING, L=BJ, O=PKU, OU=SS, CN=PKCS#10 Test/emailAddress=zhangyong@qq.com
        Subject Public Key Info:
            Public Key Algorithm: rsaEncryption
                Public-Key: (2048 bit)
                Modulus:
                    00:91:16:76:f1:bd:cb:a6:51:aa:3c:6c:05:e7:d4:
                    88:96:29:9e:1f:d8:1a:08:9e:b7:a6:f3:91:f3:a3:
                    db:2c:78:84:39:02:4a:e2:bf:5b:af:8e:3a:c6:68:
                    2e:d1:4f:6b:27:e3:40:8d:76:bd:c8:70:32:ba:23:
                    37:b1:12:17:65:18:0d:2a:a7:1e:17:e9:78:94:99:
                    fe:5a:88:bb:a1:43:56:e2:3e:60:dc:d5:b3:03:3f:
                    e6:12:7a:a3:1b:50:c7:7a:c3:d4:c3:a7:ef:2f:d3:
                    22:62:e4:2b:7e:1d:5c:da:e6:8d:f0:c0:79:1a:56:
                    bf:8e:b1:2d:b2:69:78:d3:f7:6e:cd:f4:d8:fd:1b:
                    de:9c:61:9b:16:c0:75:2c:f4:36:af:ef:a2:a6:c5:
                    08:a6:04:ed:3c:65:e2:0c:39:8e:85:cf:33:bd:8b:
                    e6:17:99:de:db:7e:d3:0d:f5:5e:da:d4:36:ed:1b:
                    ea:28:73:e7:53:18:0a:d3:bf:6b:ae:31:0c:0e:17:
                    72:95:64:ab:2d:30:f9:7b:16:bd:5b:b5:48:1b:6a:
                    82:ce:48:cf:07:54:6a:71:bd:ba:f6:47:ea:9b:12:
                    e9:a5:52:10:4e:32:de:71:6a:11:d5:7f:1b:9a:84:
                    85:7b:4a:38:61:5d:c8:72:fb:71:d2:93:d7:8e:9d:
                    3e:5d
                Exponent: 65537 (0x10001)
        X509v3 extensions:
            X509v3 Basic Constraints: 
                CA:FALSE
            Netscape Comment: 
                OpenSSL Generated Certificate
            X509v3 Subject Key Identifier: 
                84:86:CD:F4:5D:2C:82:5F:C4:DA:14:6C:19:AD:83:0E:E6:86:2B:6A
            X509v3 Authority Key Identifier: 
                keyid:79:02:16:CF:4A:A4:4B:68:14:15:80:F1:CA:4E:B0:2F:8E:B4:BA:5E

    Signature Algorithm: sha1WithRSAEncryption
         8e:a5:9d:1e:07:52:8d:52:b7:7b:2f:36:07:f7:59:db:bb:da:
         ed:f9:e9:02:c2:a6:fd:e3:2c:ee:4b:6b:fa:cb:8c:1b:82:d2:
         83:ac:c9:9e:b3:61:d8:b5:c3:5c:e6:ac:e3:54:51:86:a1:a3:
         f2:05:35:83:86:59:16:83:0d:bd:03:95:1d:37:7a:db:50:24:
         a3:ab:9b:18:f9:6f:52:d4:2c:a5:77:0c:d4:17:3d:23:a0:2b:
         00:7a:7c:98:8f:61:cd:21:6b:4c:89:06:f0:f9:60:4c:ce:05:
         2e:b5:8b:4d:93:99:18:49:c7:2d:57:62:9c:ca:87:e9:ab:b5:
         6b:3f:62:1e:1a:ee:f1:e3:5a:1f:02:92:e2:4f:b7:42:6e:d0:
         e1:83:65:37:7b:e1:c7:41:37:5e:19:29:29:e5:e0:22:cb:05:
         75:6f:d0:89:1b:24:b1:e3:e3:eb:f5:96:f1:3a:36:e7:12:01:
         5a:d2:eb:3f:09:10:d6:5e:d8:84:0e:07:1a:0d:d4:ff:46:be:
         0f:e4:7a:33:7e:bd:e1:2e:2b:b8:c0:d7:27:5c:64:e9:a2:d5:
         53:53:e5:a4:30:08:c4:88:38:9c:c5:7a:2c:49:19:8c:59:54:
         b8:6d:43:cb:1c:a3:ba:c9:8c:95:4a:5f:e1:5b:14:f4:af:6a:
         9a:3b:93:dc
-----BEGIN CERTIFICATE-----
MIID5jCCAs6gAwIBAgIBHzANBgkqhkiG9w0BAQUFADBxMQswCQYDVQQGEwJDTjEQ
MA4GA1UECAwHQkVJSklORzEMMAoGA1UECgwDUEtVMRYwFAYDVQQLDA1NaWNyb1Nv
ZnR3YXJlMQ4wDAYDVQQDDAVMSUhBTzEaMBgGCSqGSIb3DQEJARYLaUBkaWd2YS5j
b20wHhcNMTMwNTIwMDc1MTQ4WhcNMTQwNTIwMDc1MTQ4WjB/MQswCQYDVQQGEwJD
TjEQMA4GA1UECBMHQkVJSklORzELMAkGA1UEBxMCQkoxDDAKBgNVBAoTA1BLVTEL
MAkGA1UECxMCU1MxFTATBgNVBAMMDFBLQ1MjMTAgVGVzdDEfMB0GCSqGSIb3DQEJ
ARYQemhhbmd5b25nQHFxLmNvbTCCASIwDQYJKoZIhvcNAQEBBQADggEPADCCAQoC
ggEBAJEWdvG9y6ZRqjxsBefUiJYpnh/YGgiet6bzkfOj2yx4hDkCSuK/W6+OOsZo
LtFPayfjQI12vchwMrojN7ESF2UYDSqnHhfpeJSZ/lqIu6FDVuI+YNzVswM/5hJ6
oxtQx3rD1MOn7y/TImLkK34dXNrmjfDAeRpWv46xLbJpeNP3bs302P0b3pxhmxbA
dSz0Nq/voqbFCKYE7Txl4gw5joXPM72L5heZ3tt+0w31XtrUNu0b6ihz51MYCtO/
a64xDA4XcpVkqy0w+XsWvVu1SBtqgs5IzwdUanG9uvZH6psS6aVSEE4y3nFqEdV/
G5qEhXtKOGFdyHL7cdKT146dPl0CAwEAAaN7MHkwCQYDVR0TBAIwADAsBglghkgB
hvhCAQ0EHxYdT3BlblNTTCBHZW5lcmF0ZWQgQ2VydGlmaWNhdGUwHQYDVR0OBBYE
FISGzfRdLIJfxNoUbBmtgw7mhitqMB8GA1UdIwQYMBaAFHkCFs9KpEtoFBWA8cpO
sC+OtLpeMA0GCSqGSIb3DQEBBQUAA4IBAQCOpZ0eB1KNUrd7LzYH91nbu9rt+ekC
wqb94yzuS2v6y4wbgtKDrMmes2HYtcNc5qzjVFGGoaPyBTWDhlkWgw29A5UdN3rb
UCSjq5sY+W9S1CyldwzUFz0joCsAenyYj2HNIWtMiQbw+WBMzgUutYtNk5kYScct
V2Kcyofpq7VrP2IeGu7x41ofApLiT7dCbtDhg2U3e+HHQTdeGSkp5eAiywV1b9CJ
GySx4+Pr9ZbxOjbnEgFa0us/CRDWXtiEDgcaDdT/Rr4P5Hozfr3hLiu4wNcnXGTp
otVTU+WkMAjEiDicxXosSRmMWVS4bUPLHKO6yYyVSl/hWxT0r2qaO5Pc
-----END CERTIFICATE-----
