Certificate:
    Data:
        Version: 3 (0x2)
        Serial Number: 34 (0x22)
    Signature Algorithm: sha1WithRSAEncryption
        Issuer: C=CN, ST=BEIJING, O=PKU, OU=MicroSoftware, CN=LIHAO/emailAddress=i@digva.com
        Validity
            Not Before: May 20 08:44:59 2013 GMT
            Not After : May 20 08:44:59 2014 GMT
        Subject: C=CN, ST=BJ, L=BJ, O=PKU, OU=SS, CN=PKCS#10 Test/emailAddress=zhangyong@qq.com
        Subject Public Key Info:
            Public Key Algorithm: rsaEncryption
                Public-Key: (2048 bit)
                Modulus:
                    00:91:16:76:f1:bd:cb:a6:51:aa:3c:6c:05:e7:d4:
                    88:96:29:9e:1f:d8:1a:08:9e:b7:a6:f3:91:f3:a3:
                    db:2c:78:84:39:02:4a:e2:bf:5b:af:8e:3a:c6:68:
                    2e:d1:4f:6b:27:e3:40:8d:76:bd:c8:70:32:ba:23:
                    37:b1:12:17:65:18:0d:2a:a7:1e:17:e9:78:94:99:
                    fe:5a:88:bb:a1:43:56:e2:3e:60:dc:d5:b3:03:3f:
                    e6:12:7a:a3:1b:50:c7:7a:c3:d4:c3:a7:ef:2f:d3:
                    22:62:e4:2b:7e:1d:5c:da:e6:8d:f0:c0:79:1a:56:
                    bf:8e:b1:2d:b2:69:78:d3:f7:6e:cd:f4:d8:fd:1b:
                    de:9c:61:9b:16:c0:75:2c:f4:36:af:ef:a2:a6:c5:
                    08:a6:04:ed:3c:65:e2:0c:39:8e:85:cf:33:bd:8b:
                    e6:17:99:de:db:7e:d3:0d:f5:5e:da:d4:36:ed:1b:
                    ea:28:73:e7:53:18:0a:d3:bf:6b:ae:31:0c:0e:17:
                    72:95:64:ab:2d:30:f9:7b:16:bd:5b:b5:48:1b:6a:
                    82:ce:48:cf:07:54:6a:71:bd:ba:f6:47:ea:9b:12:
                    e9:a5:52:10:4e:32:de:71:6a:11:d5:7f:1b:9a:84:
                    85:7b:4a:38:61:5d:c8:72:fb:71:d2:93:d7:8e:9d:
                    3e:5d
                Exponent: 65537 (0x10001)
        X509v3 extensions:
            X509v3 Basic Constraints: 
                CA:FALSE
            Netscape Comment: 
                OpenSSL Generated Certificate
            X509v3 Subject Key Identifier: 
                84:86:CD:F4:5D:2C:82:5F:C4:DA:14:6C:19:AD:83:0E:E6:86:2B:6A
            X509v3 Authority Key Identifier: 
                keyid:79:02:16:CF:4A:A4:4B:68:14:15:80:F1:CA:4E:B0:2F:8E:B4:BA:5E

    Signature Algorithm: sha1WithRSAEncryption
         bc:32:3e:76:d5:f0:31:70:d8:f7:fa:32:22:6b:3a:47:d8:b9:
         89:1c:27:30:20:13:d7:33:8d:05:6d:23:21:b4:07:85:10:13:
         6c:04:4e:c9:03:0a:0d:60:94:e9:53:47:f8:05:aa:85:49:ec:
         a2:73:e8:b6:ea:30:8d:d3:b0:01:43:3a:a1:3e:3c:e1:54:dd:
         e1:36:75:8d:23:fe:3a:a4:2d:f8:54:9e:1a:0e:12:3c:4a:7d:
         6a:be:92:b6:7a:6b:37:89:97:55:f7:34:ec:ec:06:d5:00:ab:
         69:52:a3:43:54:15:39:c7:21:59:9f:a0:e7:99:1b:e1:17:85:
         69:ab:22:29:97:74:a8:b4:52:be:f0:78:3e:aa:38:16:f6:9b:
         73:49:3e:95:6c:b4:2f:43:02:d8:aa:94:d2:67:3e:8d:dc:7b:
         65:11:01:35:a9:be:69:1c:ae:fb:2f:82:87:6f:c1:8c:40:a9:
         31:4b:72:cd:b2:29:16:48:3e:0d:89:dc:1b:a3:e7:9a:eb:28:
         7a:7d:2a:e1:ab:e8:22:b4:d8:af:69:ce:8d:56:b5:53:d6:72:
         fe:bd:d0:93:0b:a9:9f:b5:ca:a7:bb:81:15:13:5e:4d:bb:b2:
         f1:d6:b0:2f:47:be:a2:f8:43:df:ab:03:79:c8:55:5c:65:f4:
         bc:70:11:57
-----BEGIN CERTIFICATE-----
MIID4TCCAsmgAwIBAgIBIjANBgkqhkiG9w0BAQUFADBxMQswCQYDVQQGEwJDTjEQ
MA4GA1UECAwHQkVJSklORzEMMAoGA1UECgwDUEtVMRYwFAYDVQQLDA1NaWNyb1Nv
ZnR3YXJlMQ4wDAYDVQQDDAVMSUhBTzEaMBgGCSqGSIb3DQEJARYLaUBkaWd2YS5j
b20wHhcNMTMwNTIwMDg0NDU5WhcNMTQwNTIwMDg0NDU5WjB6MQswCQYDVQQGEwJD
TjELMAkGA1UECBMCQkoxCzAJBgNVBAcTAkJKMQwwCgYDVQQKEwNQS1UxCzAJBgNV
BAsTAlNTMRUwEwYDVQQDDAxQS0NTIzEwIFRlc3QxHzAdBgkqhkiG9w0BCQEWEHpo
YW5neW9uZ0BxcS5jb20wggEiMA0GCSqGSIb3DQEBAQUAA4IBDwAwggEKAoIBAQCR
FnbxvcumUao8bAXn1IiWKZ4f2BoInrem85Hzo9sseIQ5Akriv1uvjjrGaC7RT2sn
40CNdr3IcDK6IzexEhdlGA0qpx4X6XiUmf5aiLuhQ1biPmDc1bMDP+YSeqMbUMd6
w9TDp+8v0yJi5Ct+HVza5o3wwHkaVr+OsS2yaXjT927N9Nj9G96cYZsWwHUs9Dav
76KmxQimBO08ZeIMOY6FzzO9i+YXmd7bftMN9V7a1DbtG+ooc+dTGArTv2uuMQwO
F3KVZKstMPl7Fr1btUgbaoLOSM8HVGpxvbr2R+qbEumlUhBOMt5xahHVfxuahIV7
SjhhXchy+3HSk9eOnT5dAgMBAAGjezB5MAkGA1UdEwQCMAAwLAYJYIZIAYb4QgEN
BB8WHU9wZW5TU0wgR2VuZXJhdGVkIENlcnRpZmljYXRlMB0GA1UdDgQWBBSEhs30
XSyCX8TaFGwZrYMO5oYrajAfBgNVHSMEGDAWgBR5AhbPSqRLaBQVgPHKTrAvjrS6
XjANBgkqhkiG9w0BAQUFAAOCAQEAvDI+dtXwMXDY9/oyIms6R9i5iRwnMCAT1zON
BW0jIbQHhRATbAROyQMKDWCU6VNH+AWqhUnsonPotuowjdOwAUM6oT484VTd4TZ1
jSP+OqQt+FSeGg4SPEp9ar6StnprN4mXVfc07OwG1QCraVKjQ1QVOcchWZ+g55kb
4ReFaasiKZd0qLRSvvB4Pqo4Fvabc0k+lWy0L0MC2KqU0mc+jdx7ZREBNam+aRyu
+y+Ch2/BjECpMUtyzbIpFkg+DYncG6Pnmusoen0q4avoIrTYr2nOjVa1U9Zy/r3Q
kwupn7XKp7uBFRNeTbuy8dawL0e+ovhD36sDechVXGX0vHARVw==
-----END CERTIFICATE-----
