Certificate:
    Data:
        Version: 3 (0x2)
        Serial Number: 35 (0x23)
    Signature Algorithm: sha1WithRSAEncryption
        Issuer: C=CN, ST=BEIJING, O=PKU, OU=MicroSoftware, CN=LIHAO/emailAddress=i@digva.com
        Validity
            Not Before: May 20 09:13:07 2013 GMT
            Not After : May 20 09:13:07 2014 GMT
        Subject: C=CN, ST=BJ, L=BJ, O=PKU, OU=SS, CN=PKCS#10 Test/emailAddress=zhangyong@qq.com
        Subject Public Key Info:
            Public Key Algorithm: rsaEncryption
                Public-Key: (2048 bit)
                Modulus:
                    00:91:16:76:f1:bd:cb:a6:51:aa:3c:6c:05:e7:d4:
                    88:96:29:9e:1f:d8:1a:08:9e:b7:a6:f3:91:f3:a3:
                    db:2c:78:84:39:02:4a:e2:bf:5b:af:8e:3a:c6:68:
                    2e:d1:4f:6b:27:e3:40:8d:76:bd:c8:70:32:ba:23:
                    37:b1:12:17:65:18:0d:2a:a7:1e:17:e9:78:94:99:
                    fe:5a:88:bb:a1:43:56:e2:3e:60:dc:d5:b3:03:3f:
                    e6:12:7a:a3:1b:50:c7:7a:c3:d4:c3:a7:ef:2f:d3:
                    22:62:e4:2b:7e:1d:5c:da:e6:8d:f0:c0:79:1a:56:
                    bf:8e:b1:2d:b2:69:78:d3:f7:6e:cd:f4:d8:fd:1b:
                    de:9c:61:9b:16:c0:75:2c:f4:36:af:ef:a2:a6:c5:
                    08:a6:04:ed:3c:65:e2:0c:39:8e:85:cf:33:bd:8b:
                    e6:17:99:de:db:7e:d3:0d:f5:5e:da:d4:36:ed:1b:
                    ea:28:73:e7:53:18:0a:d3:bf:6b:ae:31:0c:0e:17:
                    72:95:64:ab:2d:30:f9:7b:16:bd:5b:b5:48:1b:6a:
                    82:ce:48:cf:07:54:6a:71:bd:ba:f6:47:ea:9b:12:
                    e9:a5:52:10:4e:32:de:71:6a:11:d5:7f:1b:9a:84:
                    85:7b:4a:38:61:5d:c8:72:fb:71:d2:93:d7:8e:9d:
                    3e:5d
                Exponent: 65537 (0x10001)
        X509v3 extensions:
            X509v3 Basic Constraints: 
                CA:FALSE
            Netscape Comment: 
                OpenSSL Generated Certificate
            X509v3 Subject Key Identifier: 
                84:86:CD:F4:5D:2C:82:5F:C4:DA:14:6C:19:AD:83:0E:E6:86:2B:6A
            X509v3 Authority Key Identifier: 
                keyid:79:02:16:CF:4A:A4:4B:68:14:15:80:F1:CA:4E:B0:2F:8E:B4:BA:5E

    Signature Algorithm: sha1WithRSAEncryption
         a5:5b:5b:ad:bf:05:f7:15:6f:0e:71:c6:5f:f6:b9:83:12:39:
         af:2d:23:ea:53:0f:b1:b6:53:be:b2:6e:91:03:10:9a:eb:52:
         22:8c:d3:db:3f:16:bf:bc:cc:73:21:92:7e:5b:35:73:6f:64:
         03:b4:02:3a:83:c6:49:eb:6e:f0:e7:c9:90:88:54:53:ce:fe:
         ec:f2:cc:08:51:22:b6:1a:c1:1a:00:8c:f7:1e:14:f8:36:d8:
         ff:68:2b:a9:04:34:3b:ed:9d:56:1a:d8:70:0b:75:92:ec:31:
         5c:52:aa:71:c2:87:06:4b:08:72:64:23:a3:86:f2:96:52:8e:
         19:f4:81:55:f1:35:5f:26:e3:c3:a8:0a:d5:fd:da:59:05:20:
         32:f1:c1:d3:da:cb:02:48:25:1a:c8:13:84:50:99:d0:af:2a:
         e8:08:27:9a:70:2e:ff:f6:42:26:27:73:82:cc:a0:08:f3:07:
         ed:9e:56:68:4f:3f:48:9c:e5:a0:1d:47:5a:9c:dc:bb:59:38:
         95:a8:fc:98:0d:e3:1e:92:dc:93:d2:f4:89:98:09:5f:1c:24:
         e3:56:b5:46:ad:7a:e7:9a:2b:23:fa:6c:ca:70:4d:c0:6e:a7:
         92:13:9e:c3:08:1c:e1:7f:1a:7c:b9:9a:81:37:9f:a8:b6:0c:
         d3:b0:d6:07
-----BEGIN CERTIFICATE-----
MIID4TCCAsmgAwIBAgIBIzANBgkqhkiG9w0BAQUFADBxMQswCQYDVQQGEwJDTjEQ
MA4GA1UECAwHQkVJSklORzEMMAoGA1UECgwDUEtVMRYwFAYDVQQLDA1NaWNyb1Nv
ZnR3YXJlMQ4wDAYDVQQDDAVMSUhBTzEaMBgGCSqGSIb3DQEJARYLaUBkaWd2YS5j
b20wHhcNMTMwNTIwMDkxMzA3WhcNMTQwNTIwMDkxMzA3WjB6MQswCQYDVQQGEwJD
TjELMAkGA1UECBMCQkoxCzAJBgNVBAcTAkJKMQwwCgYDVQQKEwNQS1UxCzAJBgNV
BAsTAlNTMRUwEwYDVQQDDAxQS0NTIzEwIFRlc3QxHzAdBgkqhkiG9w0BCQEWEHpo
YW5neW9uZ0BxcS5jb20wggEiMA0GCSqGSIb3DQEBAQUAA4IBDwAwggEKAoIBAQCR
FnbxvcumUao8bAXn1IiWKZ4f2BoInrem85Hzo9sseIQ5Akriv1uvjjrGaC7RT2sn
40CNdr3IcDK6IzexEhdlGA0qpx4X6XiUmf5aiLuhQ1biPmDc1bMDP+YSeqMbUMd6
w9TDp+8v0yJi5Ct+HVza5o3wwHkaVr+OsS2yaXjT927N9Nj9G96cYZsWwHUs9Dav
76KmxQimBO08ZeIMOY6FzzO9i+YXmd7bftMN9V7a1DbtG+ooc+dTGArTv2uuMQwO
F3KVZKstMPl7Fr1btUgbaoLOSM8HVGpxvbr2R+qbEumlUhBOMt5xahHVfxuahIV7
SjhhXchy+3HSk9eOnT5dAgMBAAGjezB5MAkGA1UdEwQCMAAwLAYJYIZIAYb4QgEN
BB8WHU9wZW5TU0wgR2VuZXJhdGVkIENlcnRpZmljYXRlMB0GA1UdDgQWBBSEhs30
XSyCX8TaFGwZrYMO5oYrajAfBgNVHSMEGDAWgBR5AhbPSqRLaBQVgPHKTrAvjrS6
XjANBgkqhkiG9w0BAQUFAAOCAQEApVtbrb8F9xVvDnHGX/a5gxI5ry0j6lMPsbZT
vrJukQMQmutSIozT2z8Wv7zMcyGSfls1c29kA7QCOoPGSetu8OfJkIhUU87+7PLM
CFEithrBGgCM9x4U+DbY/2grqQQ0O+2dVhrYcAt1kuwxXFKqccKHBksIcmQjo4by
llKOGfSBVfE1Xybjw6gK1f3aWQUgMvHB09rLAkglGsgThFCZ0K8q6AgnmnAu//ZC
JidzgsygCPMH7Z5WaE8/SJzloB1HWpzcu1k4laj8mA3jHpLck9L0iZgJXxwk41a1
Rq1655orI/psynBNwG6nkhOewwgc4X8afLmagTefqLYM07DWBw==
-----END CERTIFICATE-----
