Certificate:
    Data:
        Version: 3 (0x2)
        Serial Number: 39 (0x27)
    Signature Algorithm: sha1WithRSAEncryption
        Issuer: C=CN, ST=BEIJING, O=PKU, OU=MicroSoftware, CN=LIHAO/emailAddress=i@digva.com
        Validity
            Not Before: May 22 08:11:46 2013 GMT
            Not After : May 22 08:11:46 2014 GMT
        Subject: C=CN, ST=BJ, L=BJ, O=PKU, OU=SS, CN=PKCS#10 Test/emailAddress=zhangyong@qq.com
        Subject Public Key Info:
            Public Key Algorithm: rsaEncryption
                Public-Key: (2048 bit)
                Modulus:
                    00:c8:6f:e8:87:bf:fb:51:f6:eb:33:cc:68:4c:1a:
                    e1:22:c6:0c:fd:e2:26:da:d4:0e:7b:b7:12:6b:b0:
                    aa:64:c9:19:e3:79:31:24:03:be:a0:1f:e2:1d:8d:
                    02:1f:97:4f:f2:71:de:e7:6b:d6:2b:01:10:96:10:
                    7f:22:12:eb:5f:42:e2:6a:2c:3e:f4:4f:f0:8f:5e:
                    d7:86:ae:c1:57:64:cc:5d:29:2e:4f:23:7a:4f:c2:
                    20:87:09:e2:24:b3:8a:40:48:3a:ce:bf:cf:d6:8f:
                    2f:e7:6f:34:05:d4:78:f3:c6:01:d1:3c:8f:1c:37:
                    80:0c:36:ce:22:3c:9b:35:5a:1f:93:90:c0:1e:27:
                    2b:64:92:4b:08:21:3e:c8:50:85:a4:e9:73:2a:f9:
                    ac:fd:b6:d8:2f:a6:6c:45:c8:b6:82:48:f5:84:a7:
                    54:81:4d:76:03:dc:d1:db:82:36:ff:02:50:8b:1b:
                    a0:af:9c:fa:66:80:57:4f:25:1c:11:b0:cc:13:f5:
                    0d:e1:82:f0:b0:cb:1c:1e:5c:ee:d9:4a:0c:fb:07:
                    18:38:b8:93:c6:fd:96:60:73:9c:18:d3:b1:ea:a8:
                    73:91:d1:b6:8f:60:8e:5b:fa:b2:32:fb:22:35:3e:
                    3b:61:f2:52:e7:00:c3:01:62:8e:77:6e:ae:0d:0c:
                    1b:4b
                Exponent: 65537 (0x10001)
        X509v3 extensions:
            X509v3 Basic Constraints: 
                CA:FALSE
            Netscape Comment: 
                OpenSSL Generated Certificate
            X509v3 Subject Key Identifier: 
                99:F2:07:F1:B2:F9:8E:46:53:E5:FC:EB:4F:C6:CC:5B:D1:64:38:9C
            X509v3 Authority Key Identifier: 
                keyid:79:02:16:CF:4A:A4:4B:68:14:15:80:F1:CA:4E:B0:2F:8E:B4:BA:5E

    Signature Algorithm: sha1WithRSAEncryption
         6d:7f:eb:71:79:ec:3c:41:0d:b0:eb:42:14:97:2c:3c:f4:a2:
         ab:59:cc:13:4d:4e:2b:cb:40:16:b9:6a:ee:08:35:57:09:7d:
         e8:d8:c2:53:53:75:6e:e6:24:30:60:5b:95:89:ef:75:ac:14:
         f9:87:73:4b:1b:32:3e:37:36:dd:c9:34:af:6f:54:9b:65:50:
         ec:a9:b4:01:48:c9:5a:38:0d:24:41:83:84:40:71:79:af:d2:
         ed:33:22:ad:d7:fc:5a:b4:1f:ec:fe:69:1e:fd:ed:f9:24:01:
         71:1b:3e:87:0b:a9:7f:d4:5c:6e:e4:82:d0:46:95:15:79:40:
         75:5e:c5:02:99:5a:8e:68:52:24:f2:62:e3:1d:76:0c:4d:f1:
         b1:3a:0d:2a:16:19:00:72:e4:c1:21:b1:85:f8:f1:b6:c0:40:
         77:9f:95:95:db:4b:52:e4:1f:42:4d:2c:4c:fb:38:ef:bf:e9:
         75:cb:dd:5e:72:c7:4a:e2:0f:29:1d:32:39:33:9c:5b:24:5f:
         5d:59:52:b9:45:9c:42:16:0a:83:e5:ba:49:5d:39:87:38:4d:
         fc:2d:ea:36:c1:71:16:ef:2c:4c:9e:cd:46:cb:51:42:28:4b:
         7d:8a:0a:57:25:35:04:6e:f7:31:e6:d6:83:99:f9:c6:c3:46:
         73:02:03:6c
-----BEGIN CERTIFICATE-----
MIID4TCCAsmgAwIBAgIBJzANBgkqhkiG9w0BAQUFADBxMQswCQYDVQQGEwJDTjEQ
MA4GA1UECAwHQkVJSklORzEMMAoGA1UECgwDUEtVMRYwFAYDVQQLDA1NaWNyb1Nv
ZnR3YXJlMQ4wDAYDVQQDDAVMSUhBTzEaMBgGCSqGSIb3DQEJARYLaUBkaWd2YS5j
b20wHhcNMTMwNTIyMDgxMTQ2WhcNMTQwNTIyMDgxMTQ2WjB6MQswCQYDVQQGEwJD
TjELMAkGA1UECBMCQkoxCzAJBgNVBAcTAkJKMQwwCgYDVQQKEwNQS1UxCzAJBgNV
BAsTAlNTMRUwEwYDVQQDDAxQS0NTIzEwIFRlc3QxHzAdBgkqhkiG9w0BCQEWEHpo
YW5neW9uZ0BxcS5jb20wggEiMA0GCSqGSIb3DQEBAQUAA4IBDwAwggEKAoIBAQDI
b+iHv/tR9uszzGhMGuEixgz94iba1A57txJrsKpkyRnjeTEkA76gH+IdjQIfl0/y
cd7na9YrARCWEH8iEutfQuJqLD70T/CPXteGrsFXZMxdKS5PI3pPwiCHCeIks4pA
SDrOv8/Wjy/nbzQF1HjzxgHRPI8cN4AMNs4iPJs1Wh+TkMAeJytkkksIIT7IUIWk
6XMq+az9ttgvpmxFyLaCSPWEp1SBTXYD3NHbgjb/AlCLG6CvnPpmgFdPJRwRsMwT
9Q3hgvCwyxweXO7ZSgz7Bxg4uJPG/ZZgc5wY07HqqHOR0baPYI5b+rIy+yI1Pjth
8lLnAMMBYo53bq4NDBtLAgMBAAGjezB5MAkGA1UdEwQCMAAwLAYJYIZIAYb4QgEN
BB8WHU9wZW5TU0wgR2VuZXJhdGVkIENlcnRpZmljYXRlMB0GA1UdDgQWBBSZ8gfx
svmORlPl/OtPxsxb0WQ4nDAfBgNVHSMEGDAWgBR5AhbPSqRLaBQVgPHKTrAvjrS6
XjANBgkqhkiG9w0BAQUFAAOCAQEAbX/rcXnsPEENsOtCFJcsPPSiq1nME01OK8tA
Frlq7gg1Vwl96NjCU1N1buYkMGBblYnvdawU+YdzSxsyPjc23ck0r29Um2VQ7Km0
AUjJWjgNJEGDhEBxea/S7TMirdf8WrQf7P5pHv3t+SQBcRs+hwupf9RcbuSC0EaV
FXlAdV7FAplajmhSJPJi4x12DE3xsToNKhYZAHLkwSGxhfjxtsBAd5+VldtLUuQf
Qk0sTPs477/pdcvdXnLHSuIPKR0yOTOcWyRfXVlSuUWcQhYKg+W6SV05hzhN/C3q
NsFxFu8sTJ7NRstRQihLfYoKVyU1BG73MebWg5n5xsNGcwIDbA==
-----END CERTIFICATE-----
