Certificate:
    Data:
        Version: 3 (0x2)
        Serial Number: 43 (0x2b)
    Signature Algorithm: sha1WithRSAEncryption
        Issuer: C=CN, ST=BEIJING, O=PKU, OU=MicroSoftware, CN=LIHAO/emailAddress=i@digva.com
        Validity
            Not Before: May 23 07:39:08 2013 GMT
            Not After : May 23 07:39:08 2014 GMT
        Subject: C=CN, ST=BJ, L=BJ, O=PKU, OU=SS, CN=XiaoLi/emailAddress=XiaoLi@qq.com
        Subject Public Key Info:
            Public Key Algorithm: rsaEncryption
                Public-Key: (2048 bit)
                Modulus:
                    00:c8:6f:e8:87:bf:fb:51:f6:eb:33:cc:68:4c:1a:
                    e1:22:c6:0c:fd:e2:26:da:d4:0e:7b:b7:12:6b:b0:
                    aa:64:c9:19:e3:79:31:24:03:be:a0:1f:e2:1d:8d:
                    02:1f:97:4f:f2:71:de:e7:6b:d6:2b:01:10:96:10:
                    7f:22:12:eb:5f:42:e2:6a:2c:3e:f4:4f:f0:8f:5e:
                    d7:86:ae:c1:57:64:cc:5d:29:2e:4f:23:7a:4f:c2:
                    20:87:09:e2:24:b3:8a:40:48:3a:ce:bf:cf:d6:8f:
                    2f:e7:6f:34:05:d4:78:f3:c6:01:d1:3c:8f:1c:37:
                    80:0c:36:ce:22:3c:9b:35:5a:1f:93:90:c0:1e:27:
                    2b:64:92:4b:08:21:3e:c8:50:85:a4:e9:73:2a:f9:
                    ac:fd:b6:d8:2f:a6:6c:45:c8:b6:82:48:f5:84:a7:
                    54:81:4d:76:03:dc:d1:db:82:36:ff:02:50:8b:1b:
                    a0:af:9c:fa:66:80:57:4f:25:1c:11:b0:cc:13:f5:
                    0d:e1:82:f0:b0:cb:1c:1e:5c:ee:d9:4a:0c:fb:07:
                    18:38:b8:93:c6:fd:96:60:73:9c:18:d3:b1:ea:a8:
                    73:91:d1:b6:8f:60:8e:5b:fa:b2:32:fb:22:35:3e:
                    3b:61:f2:52:e7:00:c3:01:62:8e:77:6e:ae:0d:0c:
                    1b:4b
                Exponent: 65537 (0x10001)
        X509v3 extensions:
            X509v3 Basic Constraints: 
                CA:FALSE
            Netscape Comment: 
                OpenSSL Generated Certificate
            X509v3 Subject Key Identifier: 
                99:F2:07:F1:B2:F9:8E:46:53:E5:FC:EB:4F:C6:CC:5B:D1:64:38:9C
            X509v3 Authority Key Identifier: 
                keyid:79:02:16:CF:4A:A4:4B:68:14:15:80:F1:CA:4E:B0:2F:8E:B4:BA:5E

    Signature Algorithm: sha1WithRSAEncryption
         a8:0e:bb:68:c6:48:06:39:67:4c:15:fd:b0:e4:d6:58:ff:55:
         43:83:03:a0:6b:f3:c9:5e:58:64:a4:26:48:f9:93:da:ee:94:
         fe:42:db:ad:b6:bd:ca:6b:c5:c5:1c:7d:93:52:60:e5:6e:82:
         47:1c:48:bb:e1:72:d2:a7:8c:f0:d9:d7:4d:37:0a:a9:62:a6:
         2e:ff:03:a1:58:a3:0f:bf:d7:80:21:66:7b:b7:51:91:a5:42:
         4f:be:64:ae:88:22:86:a1:74:a1:91:2d:fd:a7:50:36:ef:3b:
         11:0f:4d:e9:8d:ca:84:0f:d9:5e:23:d8:87:7b:9b:86:ef:8c:
         86:66:db:b6:ea:80:f7:61:df:04:97:f6:ec:a4:09:17:1f:aa:
         e1:d6:78:f4:a7:43:51:31:56:5d:e6:ee:0f:c0:83:07:55:d9:
         42:fd:aa:f4:31:56:6f:3f:f0:2b:8c:c0:77:e5:c7:20:b5:e8:
         fc:06:53:c7:ec:1b:8b:fe:93:4a:5e:c5:18:1f:a1:c6:8f:c7:
         d6:66:47:70:a9:43:49:aa:a8:4d:bb:7d:08:9d:35:a2:d0:0c:
         d4:6c:e6:d9:2a:de:ad:2c:6d:26:4f:ff:53:db:fe:75:b1:7e:
         b8:4f:a2:4a:35:73:6d:44:e9:fd:6c:2c:c0:c4:08:dd:42:ea:
         2d:12:8a:60
-----BEGIN CERTIFICATE-----
MIID2DCCAsCgAwIBAgIBKzANBgkqhkiG9w0BAQUFADBxMQswCQYDVQQGEwJDTjEQ
MA4GA1UECAwHQkVJSklORzEMMAoGA1UECgwDUEtVMRYwFAYDVQQLDA1NaWNyb1Nv
ZnR3YXJlMQ4wDAYDVQQDDAVMSUhBTzEaMBgGCSqGSIb3DQEJARYLaUBkaWd2YS5j
b20wHhcNMTMwNTIzMDczOTA4WhcNMTQwNTIzMDczOTA4WjBxMQswCQYDVQQGEwJD
TjELMAkGA1UECBMCQkoxCzAJBgNVBAcTAkJKMQwwCgYDVQQKEwNQS1UxCzAJBgNV
BAsTAlNTMQ8wDQYDVQQDEwZYaWFvTGkxHDAaBgkqhkiG9w0BCQEWDVhpYW9MaUBx
cS5jb20wggEiMA0GCSqGSIb3DQEBAQUAA4IBDwAwggEKAoIBAQDIb+iHv/tR9usz
zGhMGuEixgz94iba1A57txJrsKpkyRnjeTEkA76gH+IdjQIfl0/ycd7na9YrARCW
EH8iEutfQuJqLD70T/CPXteGrsFXZMxdKS5PI3pPwiCHCeIks4pASDrOv8/Wjy/n
bzQF1HjzxgHRPI8cN4AMNs4iPJs1Wh+TkMAeJytkkksIIT7IUIWk6XMq+az9ttgv
pmxFyLaCSPWEp1SBTXYD3NHbgjb/AlCLG6CvnPpmgFdPJRwRsMwT9Q3hgvCwyxwe
XO7ZSgz7Bxg4uJPG/ZZgc5wY07HqqHOR0baPYI5b+rIy+yI1Pjth8lLnAMMBYo53
bq4NDBtLAgMBAAGjezB5MAkGA1UdEwQCMAAwLAYJYIZIAYb4QgENBB8WHU9wZW5T
U0wgR2VuZXJhdGVkIENlcnRpZmljYXRlMB0GA1UdDgQWBBSZ8gfxsvmORlPl/OtP
xsxb0WQ4nDAfBgNVHSMEGDAWgBR5AhbPSqRLaBQVgPHKTrAvjrS6XjANBgkqhkiG
9w0BAQUFAAOCAQEAqA67aMZIBjlnTBX9sOTWWP9VQ4MDoGvzyV5YZKQmSPmT2u6U
/kLbrba9ymvFxRx9k1Jg5W6CRxxIu+Fy0qeM8NnXTTcKqWKmLv8DoVijD7/XgCFm
e7dRkaVCT75krogihqF0oZEt/adQNu87EQ9N6Y3KhA/ZXiPYh3ubhu+MhmbbtuqA
92HfBJf27KQJFx+q4dZ49KdDUTFWXebuD8CDB1XZQv2q9DFWbz/wK4zAd+XHILXo
/AZTx+wbi/6TSl7FGB+hxo/H1mZHcKlDSaqoTbt9CJ01otAM1Gzm2SrerSxtJk//
U9v+dbF+uE+iSjVzbUTp/WwswMQI3ULqLRKKYA==
-----END CERTIFICATE-----
