Certificate:
    Data:
        Version: 3 (0x2)
        Serial Number: 44 (0x2c)
    Signature Algorithm: sha1WithRSAEncryption
        Issuer: C=CN, ST=BEIJING, O=PKU, OU=MicroSoftware, CN=LIHAO/emailAddress=i@digva.com
        Validity
            Not Before: May 23 07:39:09 2013 GMT
            Not After : May 23 07:39:09 2014 GMT
        Subject: C=CN, ST=BJ, L=BJ, O=PKU, OU=SS, CN=LaoWang/emailAddress=LaoWang@qq.com
        Subject Public Key Info:
            Public Key Algorithm: rsaEncryption
                Public-Key: (2048 bit)
                Modulus:
                    00:c8:6f:e8:87:bf:fb:51:f6:eb:33:cc:68:4c:1a:
                    e1:22:c6:0c:fd:e2:26:da:d4:0e:7b:b7:12:6b:b0:
                    aa:64:c9:19:e3:79:31:24:03:be:a0:1f:e2:1d:8d:
                    02:1f:97:4f:f2:71:de:e7:6b:d6:2b:01:10:96:10:
                    7f:22:12:eb:5f:42:e2:6a:2c:3e:f4:4f:f0:8f:5e:
                    d7:86:ae:c1:57:64:cc:5d:29:2e:4f:23:7a:4f:c2:
                    20:87:09:e2:24:b3:8a:40:48:3a:ce:bf:cf:d6:8f:
                    2f:e7:6f:34:05:d4:78:f3:c6:01:d1:3c:8f:1c:37:
                    80:0c:36:ce:22:3c:9b:35:5a:1f:93:90:c0:1e:27:
                    2b:64:92:4b:08:21:3e:c8:50:85:a4:e9:73:2a:f9:
                    ac:fd:b6:d8:2f:a6:6c:45:c8:b6:82:48:f5:84:a7:
                    54:81:4d:76:03:dc:d1:db:82:36:ff:02:50:8b:1b:
                    a0:af:9c:fa:66:80:57:4f:25:1c:11:b0:cc:13:f5:
                    0d:e1:82:f0:b0:cb:1c:1e:5c:ee:d9:4a:0c:fb:07:
                    18:38:b8:93:c6:fd:96:60:73:9c:18:d3:b1:ea:a8:
                    73:91:d1:b6:8f:60:8e:5b:fa:b2:32:fb:22:35:3e:
                    3b:61:f2:52:e7:00:c3:01:62:8e:77:6e:ae:0d:0c:
                    1b:4b
                Exponent: 65537 (0x10001)
        X509v3 extensions:
            X509v3 Basic Constraints: 
                CA:FALSE
            Netscape Comment: 
                OpenSSL Generated Certificate
            X509v3 Subject Key Identifier: 
                99:F2:07:F1:B2:F9:8E:46:53:E5:FC:EB:4F:C6:CC:5B:D1:64:38:9C
            X509v3 Authority Key Identifier: 
                keyid:79:02:16:CF:4A:A4:4B:68:14:15:80:F1:CA:4E:B0:2F:8E:B4:BA:5E

    Signature Algorithm: sha1WithRSAEncryption
         74:69:8b:10:24:a3:ac:c7:5f:bb:f6:56:84:9e:0b:24:91:0b:
         a7:6c:55:5a:ad:9f:d4:1f:4d:bc:bd:bc:c5:7a:d9:6d:09:85:
         50:82:21:7e:26:7b:11:20:80:7b:48:5b:1e:52:a7:d1:83:25:
         80:b9:ad:3f:bc:f8:0b:c6:0a:d4:bc:9d:0f:76:8d:45:4b:c6:
         64:1c:65:90:01:c2:e7:7a:7b:bf:8c:4f:96:ff:5c:ea:e1:6e:
         cf:ce:4b:c6:c1:73:54:d5:41:3f:50:c3:5b:c2:76:ff:a8:71:
         f5:46:de:65:1d:b4:81:af:46:3a:10:ac:1d:bb:3a:b6:0b:ef:
         0e:98:d3:86:9c:54:0f:73:89:26:5a:ab:b8:5d:74:f2:86:c1:
         85:07:50:05:78:b0:49:7e:af:36:ce:ba:be:f1:63:92:a4:e2:
         2b:68:e5:2e:c4:4d:e1:59:ad:91:06:99:65:ea:b3:db:ee:1f:
         d8:22:88:b1:34:fb:60:f6:91:40:45:b7:8e:d3:38:eb:8c:ea:
         c8:e4:06:e8:d2:6a:c8:da:70:88:0d:92:14:83:a1:45:35:a8:
         ef:21:c2:5d:11:d8:9f:54:15:d2:07:a2:3b:14:18:cf:cb:b6:
         99:18:5c:8d:c7:2a:8f:92:43:2f:81:a4:d1:e4:4e:02:72:c8:
         91:04:de:d4
-----BEGIN CERTIFICATE-----
MIID2jCCAsKgAwIBAgIBLDANBgkqhkiG9w0BAQUFADBxMQswCQYDVQQGEwJDTjEQ
MA4GA1UECAwHQkVJSklORzEMMAoGA1UECgwDUEtVMRYwFAYDVQQLDA1NaWNyb1Nv
ZnR3YXJlMQ4wDAYDVQQDDAVMSUhBTzEaMBgGCSqGSIb3DQEJARYLaUBkaWd2YS5j
b20wHhcNMTMwNTIzMDczOTA5WhcNMTQwNTIzMDczOTA5WjBzMQswCQYDVQQGEwJD
TjELMAkGA1UECBMCQkoxCzAJBgNVBAcTAkJKMQwwCgYDVQQKEwNQS1UxCzAJBgNV
BAsTAlNTMRAwDgYDVQQDEwdMYW9XYW5nMR0wGwYJKoZIhvcNAQkBFg5MYW9XYW5n
QHFxLmNvbTCCASIwDQYJKoZIhvcNAQEBBQADggEPADCCAQoCggEBAMhv6Ie/+1H2
6zPMaEwa4SLGDP3iJtrUDnu3EmuwqmTJGeN5MSQDvqAf4h2NAh+XT/Jx3udr1isB
EJYQfyIS619C4mosPvRP8I9e14auwVdkzF0pLk8jek/CIIcJ4iSzikBIOs6/z9aP
L+dvNAXUePPGAdE8jxw3gAw2ziI8mzVaH5OQwB4nK2SSSwghPshQhaTpcyr5rP22
2C+mbEXItoJI9YSnVIFNdgPc0duCNv8CUIsboK+c+maAV08lHBGwzBP1DeGC8LDL
HB5c7tlKDPsHGDi4k8b9lmBznBjTseqoc5HRto9gjlv6sjL7IjU+O2HyUucAwwFi
jndurg0MG0sCAwEAAaN7MHkwCQYDVR0TBAIwADAsBglghkgBhvhCAQ0EHxYdT3Bl
blNTTCBHZW5lcmF0ZWQgQ2VydGlmaWNhdGUwHQYDVR0OBBYEFJnyB/Gy+Y5GU+X8
60/GzFvRZDicMB8GA1UdIwQYMBaAFHkCFs9KpEtoFBWA8cpOsC+OtLpeMA0GCSqG
SIb3DQEBBQUAA4IBAQB0aYsQJKOsx1+79laEngskkQunbFVarZ/UH028vbzFetlt
CYVQgiF+JnsRIIB7SFseUqfRgyWAua0/vPgLxgrUvJ0Pdo1FS8ZkHGWQAcLnenu/
jE+W/1zq4W7PzkvGwXNU1UE/UMNbwnb/qHH1Rt5lHbSBr0Y6EKwduzq2C+8OmNOG
nFQPc4kmWqu4XXTyhsGFB1AFeLBJfq82zrq+8WOSpOIraOUuxE3hWa2RBpll6rPb
7h/YIoixNPtg9pFARbeO0zjrjOrI5Abo0mrI2nCIDZIUg6FFNajvIcJdEdifVBXS
B6I7FBjPy7aZGFyNxyqPkkMvgaTR5E4CcsiRBN7U
-----END CERTIFICATE-----
