Certificate:
    Data:
        Version: 3 (0x2)
        Serial Number: 46 (0x2e)
    Signature Algorithm: sha1WithRSAEncryption
        Issuer: C=CN, ST=BEIJING, O=PKU, OU=MicroSoftware, CN=LIHAO/emailAddress=i@digva.com
        Validity
            Not Before: May 23 08:03:33 2013 GMT
            Not After : May 23 08:03:33 2014 GMT
        Subject: C=CN, ST=BJ, L=BJ, O=PKU, OU=SS, CN=XiaoLi/emailAddress=XiaoLi@qq.com
        Subject Public Key Info:
            Public Key Algorithm: rsaEncryption
                Public-Key: (2048 bit)
                Modulus:
                    00:c8:6f:e8:87:bf:fb:51:f6:eb:33:cc:68:4c:1a:
                    e1:22:c6:0c:fd:e2:26:da:d4:0e:7b:b7:12:6b:b0:
                    aa:64:c9:19:e3:79:31:24:03:be:a0:1f:e2:1d:8d:
                    02:1f:97:4f:f2:71:de:e7:6b:d6:2b:01:10:96:10:
                    7f:22:12:eb:5f:42:e2:6a:2c:3e:f4:4f:f0:8f:5e:
                    d7:86:ae:c1:57:64:cc:5d:29:2e:4f:23:7a:4f:c2:
                    20:87:09:e2:24:b3:8a:40:48:3a:ce:bf:cf:d6:8f:
                    2f:e7:6f:34:05:d4:78:f3:c6:01:d1:3c:8f:1c:37:
                    80:0c:36:ce:22:3c:9b:35:5a:1f:93:90:c0:1e:27:
                    2b:64:92:4b:08:21:3e:c8:50:85:a4:e9:73:2a:f9:
                    ac:fd:b6:d8:2f:a6:6c:45:c8:b6:82:48:f5:84:a7:
                    54:81:4d:76:03:dc:d1:db:82:36:ff:02:50:8b:1b:
                    a0:af:9c:fa:66:80:57:4f:25:1c:11:b0:cc:13:f5:
                    0d:e1:82:f0:b0:cb:1c:1e:5c:ee:d9:4a:0c:fb:07:
                    18:38:b8:93:c6:fd:96:60:73:9c:18:d3:b1:ea:a8:
                    73:91:d1:b6:8f:60:8e:5b:fa:b2:32:fb:22:35:3e:
                    3b:61:f2:52:e7:00:c3:01:62:8e:77:6e:ae:0d:0c:
                    1b:4b
                Exponent: 65537 (0x10001)
        X509v3 extensions:
            X509v3 Basic Constraints: 
                CA:FALSE
            Netscape Comment: 
                OpenSSL Generated Certificate
            X509v3 Subject Key Identifier: 
                99:F2:07:F1:B2:F9:8E:46:53:E5:FC:EB:4F:C6:CC:5B:D1:64:38:9C
            X509v3 Authority Key Identifier: 
                keyid:79:02:16:CF:4A:A4:4B:68:14:15:80:F1:CA:4E:B0:2F:8E:B4:BA:5E

    Signature Algorithm: sha1WithRSAEncryption
         55:f7:d2:ca:e0:4b:4e:c0:cc:56:8b:49:2b:b6:17:71:b8:58:
         cb:e0:20:ef:ff:01:a7:59:e8:ef:5e:11:68:ee:65:0e:44:ae:
         44:52:3e:6d:ec:56:6c:36:20:90:34:ae:af:84:bc:d3:e2:9f:
         42:6a:f8:ae:a2:6a:80:8c:7a:35:ae:11:9c:ee:0d:4c:98:a3:
         14:e1:c5:e1:e9:47:0c:7b:c5:91:fa:e7:85:9f:9f:9d:ca:f3:
         43:d5:cb:55:a8:2b:05:d1:a6:5b:96:a8:77:57:2e:c1:68:1c:
         51:2f:a9:99:80:20:2b:ce:de:28:bb:5e:4a:0b:ad:ae:e0:15:
         18:2a:9e:ce:f7:a3:01:d1:29:e5:25:40:61:ab:37:db:43:ee:
         07:ed:57:32:c5:ab:8b:20:22:78:ef:a5:96:8c:cb:b0:9c:bd:
         98:d1:65:c1:76:c4:ac:c8:42:aa:ac:55:d9:36:4d:0a:fc:6d:
         73:7d:85:21:f8:51:cd:3b:22:41:3f:cd:a7:75:02:db:e1:b3:
         07:26:c4:35:ff:89:e8:3c:56:8d:e9:77:60:bb:48:6e:02:55:
         11:a5:c9:d6:c3:5f:0e:3e:05:40:b1:d4:60:65:22:ac:88:6b:
         c5:5b:4b:54:50:93:34:0e:14:7f:12:7b:98:24:3b:df:f1:f8:
         4c:49:0f:72
-----BEGIN CERTIFICATE-----
MIID2DCCAsCgAwIBAgIBLjANBgkqhkiG9w0BAQUFADBxMQswCQYDVQQGEwJDTjEQ
MA4GA1UECAwHQkVJSklORzEMMAoGA1UECgwDUEtVMRYwFAYDVQQLDA1NaWNyb1Nv
ZnR3YXJlMQ4wDAYDVQQDDAVMSUhBTzEaMBgGCSqGSIb3DQEJARYLaUBkaWd2YS5j
b20wHhcNMTMwNTIzMDgwMzMzWhcNMTQwNTIzMDgwMzMzWjBxMQswCQYDVQQGEwJD
TjELMAkGA1UECBMCQkoxCzAJBgNVBAcTAkJKMQwwCgYDVQQKEwNQS1UxCzAJBgNV
BAsTAlNTMQ8wDQYDVQQDEwZYaWFvTGkxHDAaBgkqhkiG9w0BCQEWDVhpYW9MaUBx
cS5jb20wggEiMA0GCSqGSIb3DQEBAQUAA4IBDwAwggEKAoIBAQDIb+iHv/tR9usz
zGhMGuEixgz94iba1A57txJrsKpkyRnjeTEkA76gH+IdjQIfl0/ycd7na9YrARCW
EH8iEutfQuJqLD70T/CPXteGrsFXZMxdKS5PI3pPwiCHCeIks4pASDrOv8/Wjy/n
bzQF1HjzxgHRPI8cN4AMNs4iPJs1Wh+TkMAeJytkkksIIT7IUIWk6XMq+az9ttgv
pmxFyLaCSPWEp1SBTXYD3NHbgjb/AlCLG6CvnPpmgFdPJRwRsMwT9Q3hgvCwyxwe
XO7ZSgz7Bxg4uJPG/ZZgc5wY07HqqHOR0baPYI5b+rIy+yI1Pjth8lLnAMMBYo53
bq4NDBtLAgMBAAGjezB5MAkGA1UdEwQCMAAwLAYJYIZIAYb4QgENBB8WHU9wZW5T
U0wgR2VuZXJhdGVkIENlcnRpZmljYXRlMB0GA1UdDgQWBBSZ8gfxsvmORlPl/OtP
xsxb0WQ4nDAfBgNVHSMEGDAWgBR5AhbPSqRLaBQVgPHKTrAvjrS6XjANBgkqhkiG
9w0BAQUFAAOCAQEAVffSyuBLTsDMVotJK7YXcbhYy+Ag7/8Bp1no714RaO5lDkSu
RFI+bexWbDYgkDSur4S80+KfQmr4rqJqgIx6Na4RnO4NTJijFOHF4elHDHvFkfrn
hZ+fncrzQ9XLVagrBdGmW5aod1cuwWgcUS+pmYAgK87eKLteSgutruAVGCqezvej
AdEp5SVAYas320PuB+1XMsWriyAieO+llozLsJy9mNFlwXbErMhCqqxV2TZNCvxt
c32FIfhRzTsiQT/Np3UC2+GzBybENf+J6DxWjel3YLtIbgJVEaXJ1sNfDj4FQLHU
YGUirIhrxVtLVFCTNA4UfxJ7mCQ73/H4TEkPcg==
-----END CERTIFICATE-----
