Certificate:
    Data:
        Version: 3 (0x2)
        Serial Number: 47 (0x2f)
    Signature Algorithm: sha1WithRSAEncryption
        Issuer: C=CN, ST=BEIJING, O=PKU, OU=MicroSoftware, CN=LIHAO/emailAddress=i@digva.com
        Validity
            Not Before: May 23 08:04:08 2013 GMT
            Not After : May 23 08:04:08 2014 GMT
        Subject: C=CN, ST=BJ, L=BJ, O=PKU, OU=SS, CN=LaoWang/emailAddress=LaoWang@qq.com
        Subject Public Key Info:
            Public Key Algorithm: rsaEncryption
                Public-Key: (2048 bit)
                Modulus:
                    00:c8:6f:e8:87:bf:fb:51:f6:eb:33:cc:68:4c:1a:
                    e1:22:c6:0c:fd:e2:26:da:d4:0e:7b:b7:12:6b:b0:
                    aa:64:c9:19:e3:79:31:24:03:be:a0:1f:e2:1d:8d:
                    02:1f:97:4f:f2:71:de:e7:6b:d6:2b:01:10:96:10:
                    7f:22:12:eb:5f:42:e2:6a:2c:3e:f4:4f:f0:8f:5e:
                    d7:86:ae:c1:57:64:cc:5d:29:2e:4f:23:7a:4f:c2:
                    20:87:09:e2:24:b3:8a:40:48:3a:ce:bf:cf:d6:8f:
                    2f:e7:6f:34:05:d4:78:f3:c6:01:d1:3c:8f:1c:37:
                    80:0c:36:ce:22:3c:9b:35:5a:1f:93:90:c0:1e:27:
                    2b:64:92:4b:08:21:3e:c8:50:85:a4:e9:73:2a:f9:
                    ac:fd:b6:d8:2f:a6:6c:45:c8:b6:82:48:f5:84:a7:
                    54:81:4d:76:03:dc:d1:db:82:36:ff:02:50:8b:1b:
                    a0:af:9c:fa:66:80:57:4f:25:1c:11:b0:cc:13:f5:
                    0d:e1:82:f0:b0:cb:1c:1e:5c:ee:d9:4a:0c:fb:07:
                    18:38:b8:93:c6:fd:96:60:73:9c:18:d3:b1:ea:a8:
                    73:91:d1:b6:8f:60:8e:5b:fa:b2:32:fb:22:35:3e:
                    3b:61:f2:52:e7:00:c3:01:62:8e:77:6e:ae:0d:0c:
                    1b:4b
                Exponent: 65537 (0x10001)
        X509v3 extensions:
            X509v3 Basic Constraints: 
                CA:FALSE
            Netscape Comment: 
                OpenSSL Generated Certificate
            X509v3 Subject Key Identifier: 
                99:F2:07:F1:B2:F9:8E:46:53:E5:FC:EB:4F:C6:CC:5B:D1:64:38:9C
            X509v3 Authority Key Identifier: 
                keyid:79:02:16:CF:4A:A4:4B:68:14:15:80:F1:CA:4E:B0:2F:8E:B4:BA:5E

    Signature Algorithm: sha1WithRSAEncryption
         7a:73:89:cb:a0:3b:4c:24:b7:22:ba:e4:3d:93:18:6a:bf:1a:
         35:84:51:9e:10:e2:01:c5:8d:3f:86:b2:9c:ff:85:fb:b3:27:
         2a:28:b0:99:5a:5d:82:fc:97:93:2b:90:b5:98:32:0a:c7:04:
         8b:a9:ac:15:f8:37:e2:e5:52:63:ae:93:25:b5:42:1d:db:d4:
         97:88:ba:9d:07:42:f3:6f:59:18:e4:73:20:a2:39:7a:e5:ca:
         1b:87:be:47:a1:95:ef:ee:e9:33:59:60:e1:77:10:e1:82:02:
         e1:08:7e:97:12:a1:07:83:7e:30:fd:f5:8c:97:78:b9:a9:9f:
         99:b1:63:bb:c1:a6:29:da:b4:b9:20:b2:4e:cb:fd:61:a9:62:
         89:3e:e9:4e:21:55:7b:11:13:80:87:10:49:fb:85:71:00:c7:
         23:5d:b7:3c:24:f5:5f:6f:2e:c2:84:86:13:a7:24:ca:c4:3f:
         43:af:b0:26:28:8c:f0:49:e0:5d:22:f9:cb:98:19:29:d9:b9:
         b0:38:5e:c4:6a:c4:8b:19:b4:6b:c3:f8:8d:9a:35:d6:79:a9:
         ae:8c:1a:80:c1:db:86:3e:5e:85:63:eb:5b:42:33:bd:28:19:
         39:8d:22:7c:f6:b1:33:27:ab:69:eb:9f:a4:fa:ce:8c:21:f3:
         1e:2f:13:7e
-----BEGIN CERTIFICATE-----
MIID2jCCAsKgAwIBAgIBLzANBgkqhkiG9w0BAQUFADBxMQswCQYDVQQGEwJDTjEQ
MA4GA1UECAwHQkVJSklORzEMMAoGA1UECgwDUEtVMRYwFAYDVQQLDA1NaWNyb1Nv
ZnR3YXJlMQ4wDAYDVQQDDAVMSUhBTzEaMBgGCSqGSIb3DQEJARYLaUBkaWd2YS5j
b20wHhcNMTMwNTIzMDgwNDA4WhcNMTQwNTIzMDgwNDA4WjBzMQswCQYDVQQGEwJD
TjELMAkGA1UECBMCQkoxCzAJBgNVBAcTAkJKMQwwCgYDVQQKEwNQS1UxCzAJBgNV
BAsTAlNTMRAwDgYDVQQDEwdMYW9XYW5nMR0wGwYJKoZIhvcNAQkBFg5MYW9XYW5n
QHFxLmNvbTCCASIwDQYJKoZIhvcNAQEBBQADggEPADCCAQoCggEBAMhv6Ie/+1H2
6zPMaEwa4SLGDP3iJtrUDnu3EmuwqmTJGeN5MSQDvqAf4h2NAh+XT/Jx3udr1isB
EJYQfyIS619C4mosPvRP8I9e14auwVdkzF0pLk8jek/CIIcJ4iSzikBIOs6/z9aP
L+dvNAXUePPGAdE8jxw3gAw2ziI8mzVaH5OQwB4nK2SSSwghPshQhaTpcyr5rP22
2C+mbEXItoJI9YSnVIFNdgPc0duCNv8CUIsboK+c+maAV08lHBGwzBP1DeGC8LDL
HB5c7tlKDPsHGDi4k8b9lmBznBjTseqoc5HRto9gjlv6sjL7IjU+O2HyUucAwwFi
jndurg0MG0sCAwEAAaN7MHkwCQYDVR0TBAIwADAsBglghkgBhvhCAQ0EHxYdT3Bl
blNTTCBHZW5lcmF0ZWQgQ2VydGlmaWNhdGUwHQYDVR0OBBYEFJnyB/Gy+Y5GU+X8
60/GzFvRZDicMB8GA1UdIwQYMBaAFHkCFs9KpEtoFBWA8cpOsC+OtLpeMA0GCSqG
SIb3DQEBBQUAA4IBAQB6c4nLoDtMJLciuuQ9kxhqvxo1hFGeEOIBxY0/hrKc/4X7
sycqKLCZWl2C/JeTK5C1mDIKxwSLqawV+Dfi5VJjrpMltUId29SXiLqdB0Lzb1kY
5HMgojl65cobh75HoZXv7ukzWWDhdxDhggLhCH6XEqEHg34w/fWMl3i5qZ+ZsWO7
waYp2rS5ILJOy/1hqWKJPulOIVV7EROAhxBJ+4VxAMcjXbc8JPVfby7ChIYTpyTK
xD9Dr7AmKIzwSeBdIvnLmBkp2bmwOF7EasSLGbRrw/iNmjXWeamujBqAwduGPl6F
Y+tbQjO9KBk5jSJ89rEzJ6tp65+k+s6MIfMeLxN+
-----END CERTIFICATE-----
