Certificate:
    Data:
        Version: 3 (0x2)
        Serial Number: 51 (0x33)
    Signature Algorithm: sha1WithRSAEncryption
        Issuer: C=CN, ST=BEIJING, O=PKU, OU=MicroSoftware, CN=LIHAO/emailAddress=i@digva.com
        Validity
            Not Before: May 23 08:08:41 2013 GMT
            Not After : May 23 08:08:41 2014 GMT
        Subject: C=CN, ST=BJ, L=BJ, O=PKU, OU=SS, CN=XiaoLi/emailAddress=XiaoLi@qq.com
        Subject Public Key Info:
            Public Key Algorithm: rsaEncryption
                Public-Key: (2048 bit)
                Modulus:
                    00:c8:6f:e8:87:bf:fb:51:f6:eb:33:cc:68:4c:1a:
                    e1:22:c6:0c:fd:e2:26:da:d4:0e:7b:b7:12:6b:b0:
                    aa:64:c9:19:e3:79:31:24:03:be:a0:1f:e2:1d:8d:
                    02:1f:97:4f:f2:71:de:e7:6b:d6:2b:01:10:96:10:
                    7f:22:12:eb:5f:42:e2:6a:2c:3e:f4:4f:f0:8f:5e:
                    d7:86:ae:c1:57:64:cc:5d:29:2e:4f:23:7a:4f:c2:
                    20:87:09:e2:24:b3:8a:40:48:3a:ce:bf:cf:d6:8f:
                    2f:e7:6f:34:05:d4:78:f3:c6:01:d1:3c:8f:1c:37:
                    80:0c:36:ce:22:3c:9b:35:5a:1f:93:90:c0:1e:27:
                    2b:64:92:4b:08:21:3e:c8:50:85:a4:e9:73:2a:f9:
                    ac:fd:b6:d8:2f:a6:6c:45:c8:b6:82:48:f5:84:a7:
                    54:81:4d:76:03:dc:d1:db:82:36:ff:02:50:8b:1b:
                    a0:af:9c:fa:66:80:57:4f:25:1c:11:b0:cc:13:f5:
                    0d:e1:82:f0:b0:cb:1c:1e:5c:ee:d9:4a:0c:fb:07:
                    18:38:b8:93:c6:fd:96:60:73:9c:18:d3:b1:ea:a8:
                    73:91:d1:b6:8f:60:8e:5b:fa:b2:32:fb:22:35:3e:
                    3b:61:f2:52:e7:00:c3:01:62:8e:77:6e:ae:0d:0c:
                    1b:4b
                Exponent: 65537 (0x10001)
        X509v3 extensions:
            X509v3 Basic Constraints: 
                CA:FALSE
            Netscape Comment: 
                OpenSSL Generated Certificate
            X509v3 Subject Key Identifier: 
                99:F2:07:F1:B2:F9:8E:46:53:E5:FC:EB:4F:C6:CC:5B:D1:64:38:9C
            X509v3 Authority Key Identifier: 
                keyid:79:02:16:CF:4A:A4:4B:68:14:15:80:F1:CA:4E:B0:2F:8E:B4:BA:5E

    Signature Algorithm: sha1WithRSAEncryption
         3d:bd:e2:5a:ad:6b:97:a9:3f:9f:40:83:49:e7:21:86:fd:da:
         ff:6f:d3:29:11:db:4a:02:43:f4:f0:76:22:22:f2:b3:eb:45:
         b0:28:8f:d2:f8:16:14:2f:8b:19:18:bc:88:76:33:0c:33:47:
         c3:08:8b:24:c1:5c:bc:70:43:d9:40:eb:d7:e8:e4:43:f8:c9:
         5b:d4:63:29:fb:d0:c3:30:b3:74:c1:78:e0:7e:67:ac:d7:a3:
         e1:3a:77:f2:60:4e:c7:de:44:bd:21:32:b3:51:d6:4b:4d:42:
         84:c9:2a:1d:c1:53:af:50:3c:d1:dc:0b:33:e1:63:16:ff:50:
         f2:ef:2a:27:e0:a1:33:80:bc:12:17:f4:1c:b1:68:4b:99:e9:
         52:49:73:fd:0d:e0:39:7c:1f:78:9c:a3:04:51:52:f7:2d:7e:
         f8:01:c3:f8:5c:f6:bb:77:ff:04:d0:8f:67:1b:a3:26:7e:08:
         7d:05:44:31:2d:28:f6:83:d3:bf:30:1a:9f:78:f9:f6:79:5c:
         57:da:a7:0e:ed:5f:5e:ca:fe:4e:06:ba:77:3f:d3:7f:36:5b:
         98:fe:1e:a3:97:ed:e1:d8:0e:2c:1b:da:3b:fb:6f:e8:83:4b:
         67:26:61:0e:62:ee:90:41:ff:15:d0:29:7a:08:b7:d7:5d:6c:
         c2:a7:cc:f9
-----BEGIN CERTIFICATE-----
MIID2DCCAsCgAwIBAgIBMzANBgkqhkiG9w0BAQUFADBxMQswCQYDVQQGEwJDTjEQ
MA4GA1UECAwHQkVJSklORzEMMAoGA1UECgwDUEtVMRYwFAYDVQQLDA1NaWNyb1Nv
ZnR3YXJlMQ4wDAYDVQQDDAVMSUhBTzEaMBgGCSqGSIb3DQEJARYLaUBkaWd2YS5j
b20wHhcNMTMwNTIzMDgwODQxWhcNMTQwNTIzMDgwODQxWjBxMQswCQYDVQQGEwJD
TjELMAkGA1UECBMCQkoxCzAJBgNVBAcTAkJKMQwwCgYDVQQKEwNQS1UxCzAJBgNV
BAsTAlNTMQ8wDQYDVQQDEwZYaWFvTGkxHDAaBgkqhkiG9w0BCQEWDVhpYW9MaUBx
cS5jb20wggEiMA0GCSqGSIb3DQEBAQUAA4IBDwAwggEKAoIBAQDIb+iHv/tR9usz
zGhMGuEixgz94iba1A57txJrsKpkyRnjeTEkA76gH+IdjQIfl0/ycd7na9YrARCW
EH8iEutfQuJqLD70T/CPXteGrsFXZMxdKS5PI3pPwiCHCeIks4pASDrOv8/Wjy/n
bzQF1HjzxgHRPI8cN4AMNs4iPJs1Wh+TkMAeJytkkksIIT7IUIWk6XMq+az9ttgv
pmxFyLaCSPWEp1SBTXYD3NHbgjb/AlCLG6CvnPpmgFdPJRwRsMwT9Q3hgvCwyxwe
XO7ZSgz7Bxg4uJPG/ZZgc5wY07HqqHOR0baPYI5b+rIy+yI1Pjth8lLnAMMBYo53
bq4NDBtLAgMBAAGjezB5MAkGA1UdEwQCMAAwLAYJYIZIAYb4QgENBB8WHU9wZW5T
U0wgR2VuZXJhdGVkIENlcnRpZmljYXRlMB0GA1UdDgQWBBSZ8gfxsvmORlPl/OtP
xsxb0WQ4nDAfBgNVHSMEGDAWgBR5AhbPSqRLaBQVgPHKTrAvjrS6XjANBgkqhkiG
9w0BAQUFAAOCAQEAPb3iWq1rl6k/n0CDSechhv3a/2/TKRHbSgJD9PB2IiLys+tF
sCiP0vgWFC+LGRi8iHYzDDNHwwiLJMFcvHBD2UDr1+jkQ/jJW9RjKfvQwzCzdMF4
4H5nrNej4Tp38mBOx95EvSEys1HWS01ChMkqHcFTr1A80dwLM+FjFv9Q8u8qJ+Ch
M4C8Ehf0HLFoS5npUklz/Q3gOXwfeJyjBFFS9y1++AHD+Fz2u3f/BNCPZxujJn4I
fQVEMS0o9oPTvzAan3j59nlcV9qnDu1fXsr+Tga6dz/TfzZbmP4eo5ft4dgOLBva
O/tv6INLZyZhDmLukEH/FdApegi3111swqfM+Q==
-----END CERTIFICATE-----
