Certificate:
    Data:
        Version: 3 (0x2)
        Serial Number: 54 (0x36)
    Signature Algorithm: sha1WithRSAEncryption
        Issuer: C=CN, ST=BEIJING, O=PKU, OU=MicroSoftware, CN=LIHAO/emailAddress=i@digva.com
        Validity
            Not Before: May 24 05:33:10 2013 GMT
            Not After : May 24 05:33:10 2014 GMT
        Subject: C=CN, ST=BJ, L=BJ, O=PKU, OU=SS, CN=PKCS#10 Test/emailAddress=zhangyong@qq.com
        Subject Public Key Info:
            Public Key Algorithm: rsaEncryption
                Public-Key: (2048 bit)
                Modulus:
                    00:91:16:76:f1:bd:cb:a6:51:aa:3c:6c:05:e7:d4:
                    88:96:29:9e:1f:d8:1a:08:9e:b7:a6:f3:91:f3:a3:
                    db:2c:78:84:39:02:4a:e2:bf:5b:af:8e:3a:c6:68:
                    2e:d1:4f:6b:27:e3:40:8d:76:bd:c8:70:32:ba:23:
                    37:b1:12:17:65:18:0d:2a:a7:1e:17:e9:78:94:99:
                    fe:5a:88:bb:a1:43:56:e2:3e:60:dc:d5:b3:03:3f:
                    e6:12:7a:a3:1b:50:c7:7a:c3:d4:c3:a7:ef:2f:d3:
                    22:62:e4:2b:7e:1d:5c:da:e6:8d:f0:c0:79:1a:56:
                    bf:8e:b1:2d:b2:69:78:d3:f7:6e:cd:f4:d8:fd:1b:
                    de:9c:61:9b:16:c0:75:2c:f4:36:af:ef:a2:a6:c5:
                    08:a6:04:ed:3c:65:e2:0c:39:8e:85:cf:33:bd:8b:
                    e6:17:99:de:db:7e:d3:0d:f5:5e:da:d4:36:ed:1b:
                    ea:28:73:e7:53:18:0a:d3:bf:6b:ae:31:0c:0e:17:
                    72:95:64:ab:2d:30:f9:7b:16:bd:5b:b5:48:1b:6a:
                    82:ce:48:cf:07:54:6a:71:bd:ba:f6:47:ea:9b:12:
                    e9:a5:52:10:4e:32:de:71:6a:11:d5:7f:1b:9a:84:
                    85:7b:4a:38:61:5d:c8:72:fb:71:d2:93:d7:8e:9d:
                    3e:5d
                Exponent: 65537 (0x10001)
        X509v3 extensions:
            X509v3 Basic Constraints: 
                CA:FALSE
            Netscape Comment: 
                OpenSSL Generated Certificate
            X509v3 Subject Key Identifier: 
                84:86:CD:F4:5D:2C:82:5F:C4:DA:14:6C:19:AD:83:0E:E6:86:2B:6A
            X509v3 Authority Key Identifier: 
                keyid:79:02:16:CF:4A:A4:4B:68:14:15:80:F1:CA:4E:B0:2F:8E:B4:BA:5E

    Signature Algorithm: sha1WithRSAEncryption
         30:d2:38:06:f7:f8:eb:5d:3d:0c:6a:a5:13:01:1b:b2:f7:6f:
         1e:92:01:79:8e:58:c6:81:56:68:6c:da:9e:e3:85:06:88:1d:
         f0:66:a4:d9:00:a3:65:4f:52:df:f0:b7:28:c3:1a:7e:86:24:
         ca:b3:61:ef:69:0b:fc:53:49:d8:41:ad:e7:43:b2:31:d2:fb:
         27:e7:e2:08:bc:2c:c1:ae:6b:79:d3:bb:41:d2:43:40:e3:1e:
         35:fe:77:f9:a6:f5:c4:24:85:b6:bb:14:af:fd:84:dc:a0:36:
         63:84:5f:37:b5:a5:32:31:3b:ae:45:d1:a4:be:5d:cc:99:ba:
         10:f7:40:33:f3:38:e8:f1:8f:dc:70:22:f3:ba:9e:05:f0:ae:
         22:2a:3c:48:40:64:6e:59:0b:92:e4:70:4a:7c:a2:3b:cd:b9:
         7f:fe:47:90:2a:bc:56:8e:c2:9a:15:20:f9:79:b7:0b:79:f4:
         2d:a2:4a:f2:bf:a7:6c:87:81:d0:c6:af:1a:37:d8:47:1a:1d:
         80:64:02:54:8c:76:7f:5c:1e:31:0c:c9:a0:66:cd:13:ce:50:
         53:2e:5c:ec:62:9e:d3:65:58:3c:9b:dd:1f:44:cc:4f:81:ce:
         2f:05:91:91:f6:73:6a:9c:fe:cf:92:ca:2f:4a:d1:df:6b:6b:
         23:01:75:61
-----BEGIN CERTIFICATE-----
MIID4TCCAsmgAwIBAgIBNjANBgkqhkiG9w0BAQUFADBxMQswCQYDVQQGEwJDTjEQ
MA4GA1UECAwHQkVJSklORzEMMAoGA1UECgwDUEtVMRYwFAYDVQQLDA1NaWNyb1Nv
ZnR3YXJlMQ4wDAYDVQQDDAVMSUhBTzEaMBgGCSqGSIb3DQEJARYLaUBkaWd2YS5j
b20wHhcNMTMwNTI0MDUzMzEwWhcNMTQwNTI0MDUzMzEwWjB6MQswCQYDVQQGEwJD
TjELMAkGA1UECBMCQkoxCzAJBgNVBAcTAkJKMQwwCgYDVQQKEwNQS1UxCzAJBgNV
BAsTAlNTMRUwEwYDVQQDDAxQS0NTIzEwIFRlc3QxHzAdBgkqhkiG9w0BCQEWEHpo
YW5neW9uZ0BxcS5jb20wggEiMA0GCSqGSIb3DQEBAQUAA4IBDwAwggEKAoIBAQCR
FnbxvcumUao8bAXn1IiWKZ4f2BoInrem85Hzo9sseIQ5Akriv1uvjjrGaC7RT2sn
40CNdr3IcDK6IzexEhdlGA0qpx4X6XiUmf5aiLuhQ1biPmDc1bMDP+YSeqMbUMd6
w9TDp+8v0yJi5Ct+HVza5o3wwHkaVr+OsS2yaXjT927N9Nj9G96cYZsWwHUs9Dav
76KmxQimBO08ZeIMOY6FzzO9i+YXmd7bftMN9V7a1DbtG+ooc+dTGArTv2uuMQwO
F3KVZKstMPl7Fr1btUgbaoLOSM8HVGpxvbr2R+qbEumlUhBOMt5xahHVfxuahIV7
SjhhXchy+3HSk9eOnT5dAgMBAAGjezB5MAkGA1UdEwQCMAAwLAYJYIZIAYb4QgEN
BB8WHU9wZW5TU0wgR2VuZXJhdGVkIENlcnRpZmljYXRlMB0GA1UdDgQWBBSEhs30
XSyCX8TaFGwZrYMO5oYrajAfBgNVHSMEGDAWgBR5AhbPSqRLaBQVgPHKTrAvjrS6
XjANBgkqhkiG9w0BAQUFAAOCAQEAMNI4Bvf46109DGqlEwEbsvdvHpIBeY5YxoFW
aGzanuOFBogd8Gak2QCjZU9S3/C3KMMafoYkyrNh72kL/FNJ2EGt50OyMdL7J+fi
CLwswa5redO7QdJDQOMeNf53+ab1xCSFtrsUr/2E3KA2Y4RfN7WlMjE7rkXRpL5d
zJm6EPdAM/M46PGP3HAi87qeBfCuIio8SEBkblkLkuRwSnyiO825f/5HkCq8Vo7C
mhUg+Xm3C3n0LaJK8r+nbIeB0MavGjfYRxodgGQCVIx2f1weMQzJoGbNE85QUy5c
7GKe02VYPJvdH0TMT4HOLwWRkfZzapz+z5LKL0rR32trIwF1YQ==
-----END CERTIFICATE-----
