Certificate:
    Data:
        Version: 3 (0x2)
        Serial Number: 32 (0x20)
    Signature Algorithm: sha1WithRSAEncryption
        Issuer: C=CN, ST=BEIJING, O=PKU, OU=MicroSoftware, CN=LIHAO/emailAddress=i@digva.com
        Validity
            Not Before: May 20 07:55:49 2013 GMT
            Not After : May 20 07:55:49 2014 GMT
        Subject: C=CN, ST=BEIJING, O=PKU, OU=MicroSoftware, CN=QWERT/emailAddress=QWE@QWE.com
        Subject Public Key Info:
            Public Key Algorithm: rsaEncryption
                Public-Key: (512 bit)
                Modulus:
                    00:f4:34:cf:27:2a:cf:2b:25:fb:db:45:38:07:60:
                    22:99:1c:47:05:0e:2d:1a:57:55:5d:e6:e4:51:dd:
                    03:b9:63:63:0c:b6:d4:ce:1b:48:c0:e1:52:ec:e8:
                    58:2c:84:61:eb:28:52:89:31:1d:f2:92:5c:4c:29:
                    2e:10:aa:82:a1
                Exponent: 65537 (0x10001)
        X509v3 extensions:
            X509v3 Basic Constraints: 
                CA:FALSE
            Netscape Comment: 
                OpenSSL Generated Certificate
            X509v3 Subject Key Identifier: 
                88:00:A4:6A:0C:92:9F:E4:37:EE:18:04:55:24:8E:08:DD:D6:69:E3
            X509v3 Authority Key Identifier: 
                keyid:79:02:16:CF:4A:A4:4B:68:14:15:80:F1:CA:4E:B0:2F:8E:B4:BA:5E

    Signature Algorithm: sha1WithRSAEncryption
         9a:95:72:87:66:54:7e:22:7f:be:e5:b5:e1:6d:6b:98:bb:b3:
         74:23:c9:e1:8a:85:e9:16:45:f2:27:f2:2a:79:9f:e0:89:e8:
         8d:ed:5b:8b:bf:49:5a:b5:62:5c:53:69:81:14:cc:59:67:fb:
         5f:e4:2f:1b:32:89:73:0a:7c:29:f7:f3:40:48:d4:b6:eb:01:
         38:e2:fb:b1:06:49:df:29:88:ef:30:2a:ed:5a:24:c8:d1:06:
         c4:12:d8:3b:79:df:67:3d:c4:0b:32:f3:dd:10:97:8f:52:da:
         c6:0c:3a:15:bf:83:0e:ec:38:f8:ed:5c:18:e5:82:35:98:19:
         73:38:bb:52:bc:bc:14:7e:75:b0:30:f0:cb:59:f0:e7:8d:89:
         57:7d:1b:6c:00:21:6c:6d:de:01:cc:c8:25:26:c6:4d:f4:15:
         06:54:0a:69:d4:37:e2:eb:24:41:f5:f7:b0:78:8b:9e:02:c3:
         c4:de:33:57:fd:12:31:cf:8f:0a:b2:0c:ad:ba:8e:18:8c:c1:
         28:2a:6d:58:70:9a:37:ca:8e:6b:ba:39:89:c2:11:4a:e8:a3:
         8b:9c:5f:77:f2:3a:8f:0d:98:33:87:e1:7d:65:0e:19:39:0c:
         d5:ee:82:fb:dc:8f:42:fd:da:f5:e5:c6:1d:de:6a:d1:85:fb:
         57:56:13:37
-----BEGIN CERTIFICATE-----
MIIDEDCCAfigAwIBAgIBIDANBgkqhkiG9w0BAQUFADBxMQswCQYDVQQGEwJDTjEQ
MA4GA1UECAwHQkVJSklORzEMMAoGA1UECgwDUEtVMRYwFAYDVQQLDA1NaWNyb1Nv
ZnR3YXJlMQ4wDAYDVQQDDAVMSUhBTzEaMBgGCSqGSIb3DQEJARYLaUBkaWd2YS5j
b20wHhcNMTMwNTIwMDc1NTQ5WhcNMTQwNTIwMDc1NTQ5WjBxMQswCQYDVQQGEwJD
TjEQMA4GA1UECAwHQkVJSklORzEMMAoGA1UECgwDUEtVMRYwFAYDVQQLDA1NaWNy
b1NvZnR3YXJlMQ4wDAYDVQQDDAVRV0VSVDEaMBgGCSqGSIb3DQEJARYLUVdFQFFX
RS5jb20wXDANBgkqhkiG9w0BAQEFAANLADBIAkEA9DTPJyrPKyX720U4B2AimRxH
BQ4tGldVXebkUd0DuWNjDLbUzhtIwOFS7OhYLIRh6yhSiTEd8pJcTCkuEKqCoQID
AQABo3sweTAJBgNVHRMEAjAAMCwGCWCGSAGG+EIBDQQfFh1PcGVuU1NMIEdlbmVy
YXRlZCBDZXJ0aWZpY2F0ZTAdBgNVHQ4EFgQUiACkagySn+Q37hgEVSSOCN3WaeMw
HwYDVR0jBBgwFoAUeQIWz0qkS2gUFYDxyk6wL460ul4wDQYJKoZIhvcNAQEFBQAD
ggEBAJqVcodmVH4if77lteFta5i7s3QjyeGKhekWRfIn8ip5n+CJ6I3tW4u/SVq1
YlxTaYEUzFln+1/kLxsyiXMKfCn380BI1LbrATji+7EGSd8piO8wKu1aJMjRBsQS
2Dt532c9xAsy890Ql49S2sYMOhW/gw7sOPjtXBjlgjWYGXM4u1K8vBR+dbAw8MtZ
8OeNiVd9G2wAIWxt3gHMyCUmxk30FQZUCmnUN+LrJEH197B4i54Cw8TeM1f9EjHP
jwqyDK26jhiMwSgqbVhwmjfKjmu6OYnCEUroo4ucX3fyOo8NmDOH4X1lDhk5DNXu
gvvcj0L92vXlxh3eatGF+1dWEzc=
-----END CERTIFICATE-----
