Certificate:
    Data:
        Version: 3 (0x2)
        Serial Number: 55 (0x37)
    Signature Algorithm: sha1WithRSAEncryption
        Issuer: C=CN, ST=BEIJING, O=PKU, OU=MicroSoftware, CN=LIHAO/emailAddress=i@digva.com
        Validity
            Not Before: Jul  5 03:14:24 2013 GMT
            Not After : Jul  5 03:14:24 2014 GMT
        Subject: C=CN, ST=BJ, L=BJ, O=PKU, OU=SS, CN=LaoWang/emailAddress=LaoWang@qq.com
        Subject Public Key Info:
            Public Key Algorithm: rsaEncryption
                Public-Key: (2048 bit)
                Modulus:
                    00:c8:6f:e8:87:bf:fb:51:f6:eb:33:cc:68:4c:1a:
                    e1:22:c6:0c:fd:e2:26:da:d4:0e:7b:b7:12:6b:b0:
                    aa:64:c9:19:e3:79:31:24:03:be:a0:1f:e2:1d:8d:
                    02:1f:97:4f:f2:71:de:e7:6b:d6:2b:01:10:96:10:
                    7f:22:12:eb:5f:42:e2:6a:2c:3e:f4:4f:f0:8f:5e:
                    d7:86:ae:c1:57:64:cc:5d:29:2e:4f:23:7a:4f:c2:
                    20:87:09:e2:24:b3:8a:40:48:3a:ce:bf:cf:d6:8f:
                    2f:e7:6f:34:05:d4:78:f3:c6:01:d1:3c:8f:1c:37:
                    80:0c:36:ce:22:3c:9b:35:5a:1f:93:90:c0:1e:27:
                    2b:64:92:4b:08:21:3e:c8:50:85:a4:e9:73:2a:f9:
                    ac:fd:b6:d8:2f:a6:6c:45:c8:b6:82:48:f5:84:a7:
                    54:81:4d:76:03:dc:d1:db:82:36:ff:02:50:8b:1b:
                    a0:af:9c:fa:66:80:57:4f:25:1c:11:b0:cc:13:f5:
                    0d:e1:82:f0:b0:cb:1c:1e:5c:ee:d9:4a:0c:fb:07:
                    18:38:b8:93:c6:fd:96:60:73:9c:18:d3:b1:ea:a8:
                    73:91:d1:b6:8f:60:8e:5b:fa:b2:32:fb:22:35:3e:
                    3b:61:f2:52:e7:00:c3:01:62:8e:77:6e:ae:0d:0c:
                    1b:4b
                Exponent: 65537 (0x10001)
        X509v3 extensions:
            X509v3 Basic Constraints: 
                CA:FALSE
            Netscape Comment: 
                OpenSSL Generated Certificate
            X509v3 Subject Key Identifier: 
                99:F2:07:F1:B2:F9:8E:46:53:E5:FC:EB:4F:C6:CC:5B:D1:64:38:9C
            X509v3 Authority Key Identifier: 
                keyid:79:02:16:CF:4A:A4:4B:68:14:15:80:F1:CA:4E:B0:2F:8E:B4:BA:5E

    Signature Algorithm: sha1WithRSAEncryption
         a6:75:12:5b:f8:a4:06:bb:cf:8f:1f:6f:fd:ce:36:ba:01:64:
         1f:05:12:2c:59:04:73:2c:f6:fa:71:10:a7:62:88:48:ae:51:
         79:26:22:ac:26:9f:54:0f:ca:64:85:f4:16:9f:10:85:9a:62:
         a9:65:a5:d7:c4:1f:4c:e7:67:71:38:91:43:fb:a7:0b:26:2b:
         06:94:32:b7:cd:8c:ab:da:aa:88:fe:29:83:94:f6:90:3b:11:
         8c:17:ad:0e:23:c5:54:c0:16:7b:6f:d3:6b:b7:66:ff:3f:65:
         cd:c0:2b:52:97:24:d4:b4:18:7b:d8:c0:4f:50:58:3f:16:32:
         e4:b2:54:67:52:10:be:5e:5d:fe:8e:6b:61:9e:46:07:95:50:
         91:96:e3:b7:0f:66:a7:dd:71:84:26:12:17:be:e2:a8:62:25:
         40:5e:a6:e9:35:26:7c:e0:4f:ff:7a:f7:61:5a:c1:c8:72:e3:
         c5:6d:bb:9f:82:a5:46:77:8c:06:be:06:d0:07:d6:1e:e1:ec:
         bf:6e:71:f6:73:6a:16:2b:cb:1d:0f:01:4b:0d:0d:47:03:11:
         aa:65:c9:0c:13:23:1b:3e:52:9e:8e:c4:e9:e0:39:6b:3c:2a:
         e9:5d:8c:aa:3b:b3:24:de:04:0c:e6:7c:74:1d:33:7e:d8:92:
         67:7b:7e:99
-----BEGIN CERTIFICATE-----
MIID2jCCAsKgAwIBAgIBNzANBgkqhkiG9w0BAQUFADBxMQswCQYDVQQGEwJDTjEQ
MA4GA1UECAwHQkVJSklORzEMMAoGA1UECgwDUEtVMRYwFAYDVQQLDA1NaWNyb1Nv
ZnR3YXJlMQ4wDAYDVQQDDAVMSUhBTzEaMBgGCSqGSIb3DQEJARYLaUBkaWd2YS5j
b20wHhcNMTMwNzA1MDMxNDI0WhcNMTQwNzA1MDMxNDI0WjBzMQswCQYDVQQGEwJD
TjELMAkGA1UECBMCQkoxCzAJBgNVBAcTAkJKMQwwCgYDVQQKEwNQS1UxCzAJBgNV
BAsTAlNTMRAwDgYDVQQDEwdMYW9XYW5nMR0wGwYJKoZIhvcNAQkBFg5MYW9XYW5n
QHFxLmNvbTCCASIwDQYJKoZIhvcNAQEBBQADggEPADCCAQoCggEBAMhv6Ie/+1H2
6zPMaEwa4SLGDP3iJtrUDnu3EmuwqmTJGeN5MSQDvqAf4h2NAh+XT/Jx3udr1isB
EJYQfyIS619C4mosPvRP8I9e14auwVdkzF0pLk8jek/CIIcJ4iSzikBIOs6/z9aP
L+dvNAXUePPGAdE8jxw3gAw2ziI8mzVaH5OQwB4nK2SSSwghPshQhaTpcyr5rP22
2C+mbEXItoJI9YSnVIFNdgPc0duCNv8CUIsboK+c+maAV08lHBGwzBP1DeGC8LDL
HB5c7tlKDPsHGDi4k8b9lmBznBjTseqoc5HRto9gjlv6sjL7IjU+O2HyUucAwwFi
jndurg0MG0sCAwEAAaN7MHkwCQYDVR0TBAIwADAsBglghkgBhvhCAQ0EHxYdT3Bl
blNTTCBHZW5lcmF0ZWQgQ2VydGlmaWNhdGUwHQYDVR0OBBYEFJnyB/Gy+Y5GU+X8
60/GzFvRZDicMB8GA1UdIwQYMBaAFHkCFs9KpEtoFBWA8cpOsC+OtLpeMA0GCSqG
SIb3DQEBBQUAA4IBAQCmdRJb+KQGu8+PH2/9zja6AWQfBRIsWQRzLPb6cRCnYohI
rlF5JiKsJp9UD8pkhfQWnxCFmmKpZaXXxB9M52dxOJFD+6cLJisGlDK3zYyr2qqI
/imDlPaQOxGMF60OI8VUwBZ7b9Nrt2b/P2XNwCtSlyTUtBh72MBPUFg/FjLkslRn
UhC+Xl3+jmthnkYHlVCRluO3D2an3XGEJhIXvuKoYiVAXqbpNSZ84E//evdhWsHI
cuPFbbufgqVGd4wGvgbQB9Ye4ey/bnH2c2oWK8sdDwFLDQ1HAxGqZckMEyMbPlKe
jsTp4DlrPCrpXYyqO7Mk3gQM5nx0HTN+2JJne36Z
-----END CERTIFICATE-----
