Certificate:
    Data:
        Version: 3 (0x2)
        Serial Number: 56 (0x38)
    Signature Algorithm: sha1WithRSAEncryption
        Issuer: C=CN, ST=BEIJING, O=PKU, OU=MicroSoftware, CN=LIHAO/emailAddress=i@digva.com
        Validity
            Not Before: Jul  8 07:29:00 2013 GMT
            Not After : Jul  8 07:29:00 2014 GMT
        Subject: C=CN, ST=BJ, L=BJ, O=PKU, OU=SS, CN=PKCS#10 Test/emailAddress=zhangyong@qq.com
        Subject Public Key Info:
            Public Key Algorithm: rsaEncryption
                Public-Key: (2048 bit)
                Modulus:
                    00:91:16:76:f1:bd:cb:a6:51:aa:3c:6c:05:e7:d4:
                    88:96:29:9e:1f:d8:1a:08:9e:b7:a6:f3:91:f3:a3:
                    db:2c:78:84:39:02:4a:e2:bf:5b:af:8e:3a:c6:68:
                    2e:d1:4f:6b:27:e3:40:8d:76:bd:c8:70:32:ba:23:
                    37:b1:12:17:65:18:0d:2a:a7:1e:17:e9:78:94:99:
                    fe:5a:88:bb:a1:43:56:e2:3e:60:dc:d5:b3:03:3f:
                    e6:12:7a:a3:1b:50:c7:7a:c3:d4:c3:a7:ef:2f:d3:
                    22:62:e4:2b:7e:1d:5c:da:e6:8d:f0:c0:79:1a:56:
                    bf:8e:b1:2d:b2:69:78:d3:f7:6e:cd:f4:d8:fd:1b:
                    de:9c:61:9b:16:c0:75:2c:f4:36:af:ef:a2:a6:c5:
                    08:a6:04:ed:3c:65:e2:0c:39:8e:85:cf:33:bd:8b:
                    e6:17:99:de:db:7e:d3:0d:f5:5e:da:d4:36:ed:1b:
                    ea:28:73:e7:53:18:0a:d3:bf:6b:ae:31:0c:0e:17:
                    72:95:64:ab:2d:30:f9:7b:16:bd:5b:b5:48:1b:6a:
                    82:ce:48:cf:07:54:6a:71:bd:ba:f6:47:ea:9b:12:
                    e9:a5:52:10:4e:32:de:71:6a:11:d5:7f:1b:9a:84:
                    85:7b:4a:38:61:5d:c8:72:fb:71:d2:93:d7:8e:9d:
                    3e:5d
                Exponent: 65537 (0x10001)
        X509v3 extensions:
            X509v3 Basic Constraints: 
                CA:FALSE
            Netscape Comment: 
                OpenSSL Generated Certificate
            X509v3 Subject Key Identifier: 
                84:86:CD:F4:5D:2C:82:5F:C4:DA:14:6C:19:AD:83:0E:E6:86:2B:6A
            X509v3 Authority Key Identifier: 
                keyid:79:02:16:CF:4A:A4:4B:68:14:15:80:F1:CA:4E:B0:2F:8E:B4:BA:5E

    Signature Algorithm: sha1WithRSAEncryption
         9d:39:eb:fa:e0:7b:76:b6:f0:8e:9d:cb:6e:e4:26:7a:23:8f:
         6a:a8:2d:b6:0e:95:f8:e9:88:95:fc:56:70:67:c6:6c:b3:05:
         9e:83:10:77:5c:1a:a7:a3:8e:9b:4e:30:73:4a:23:cf:5e:ff:
         da:b5:ff:31:8d:5f:ea:61:6f:bd:c4:fc:da:42:f1:cb:62:09:
         ba:38:c6:fd:7c:c8:02:ff:32:b0:b8:b4:50:61:f7:73:35:ab:
         9a:de:1a:aa:ea:4c:c8:f9:96:de:a2:56:a9:71:95:d9:56:19:
         ee:d8:04:01:fc:32:a9:51:6c:03:75:9b:bc:9a:eb:f7:eb:ab:
         34:65:9c:0d:f7:fe:43:6e:1a:e5:3e:62:1d:fe:ae:4d:0a:22:
         8f:34:92:db:af:3d:0d:65:98:04:9c:40:f7:f7:77:30:08:87:
         e7:2d:fd:49:ef:fd:7c:42:70:d1:72:82:df:d2:d5:df:d6:1f:
         d0:80:9e:04:23:dc:f9:b6:08:5d:ea:4c:bb:76:44:93:85:a5:
         0b:b3:09:68:e3:d1:9f:4f:33:4f:6a:36:52:bd:5a:40:42:df:
         38:92:53:5d:a0:cb:f4:04:59:f3:ab:d1:d1:e9:f0:42:90:5d:
         16:65:0f:6b:6f:f0:22:55:74:8a:9c:71:ce:19:21:34:76:51:
         66:a5:ee:d6
-----BEGIN CERTIFICATE-----
MIID4TCCAsmgAwIBAgIBODANBgkqhkiG9w0BAQUFADBxMQswCQYDVQQGEwJDTjEQ
MA4GA1UECAwHQkVJSklORzEMMAoGA1UECgwDUEtVMRYwFAYDVQQLDA1NaWNyb1Nv
ZnR3YXJlMQ4wDAYDVQQDDAVMSUhBTzEaMBgGCSqGSIb3DQEJARYLaUBkaWd2YS5j
b20wHhcNMTMwNzA4MDcyOTAwWhcNMTQwNzA4MDcyOTAwWjB6MQswCQYDVQQGEwJD
TjELMAkGA1UECBMCQkoxCzAJBgNVBAcTAkJKMQwwCgYDVQQKEwNQS1UxCzAJBgNV
BAsTAlNTMRUwEwYDVQQDDAxQS0NTIzEwIFRlc3QxHzAdBgkqhkiG9w0BCQEWEHpo
YW5neW9uZ0BxcS5jb20wggEiMA0GCSqGSIb3DQEBAQUAA4IBDwAwggEKAoIBAQCR
FnbxvcumUao8bAXn1IiWKZ4f2BoInrem85Hzo9sseIQ5Akriv1uvjjrGaC7RT2sn
40CNdr3IcDK6IzexEhdlGA0qpx4X6XiUmf5aiLuhQ1biPmDc1bMDP+YSeqMbUMd6
w9TDp+8v0yJi5Ct+HVza5o3wwHkaVr+OsS2yaXjT927N9Nj9G96cYZsWwHUs9Dav
76KmxQimBO08ZeIMOY6FzzO9i+YXmd7bftMN9V7a1DbtG+ooc+dTGArTv2uuMQwO
F3KVZKstMPl7Fr1btUgbaoLOSM8HVGpxvbr2R+qbEumlUhBOMt5xahHVfxuahIV7
SjhhXchy+3HSk9eOnT5dAgMBAAGjezB5MAkGA1UdEwQCMAAwLAYJYIZIAYb4QgEN
BB8WHU9wZW5TU0wgR2VuZXJhdGVkIENlcnRpZmljYXRlMB0GA1UdDgQWBBSEhs30
XSyCX8TaFGwZrYMO5oYrajAfBgNVHSMEGDAWgBR5AhbPSqRLaBQVgPHKTrAvjrS6
XjANBgkqhkiG9w0BAQUFAAOCAQEAnTnr+uB7drbwjp3LbuQmeiOPaqgttg6V+OmI
lfxWcGfGbLMFnoMQd1wap6OOm04wc0ojz17/2rX/MY1f6mFvvcT82kLxy2IJujjG
/XzIAv8ysLi0UGH3czWrmt4aqupMyPmW3qJWqXGV2VYZ7tgEAfwyqVFsA3WbvJrr
9+urNGWcDff+Q24a5T5iHf6uTQoijzSS2689DWWYBJxA9/d3MAiH5y39Se/9fEJw
0XKC39LV39Yf0ICeBCPc+bYIXepMu3ZEk4WlC7MJaOPRn08zT2o2Ur1aQELfOJJT
XaDL9ARZ86vR0enwQpBdFmUPa2/wIlV0ipxxzhkhNHZRZqXu1g==
-----END CERTIFICATE-----
