Certificate:
    Data:
        Version: 3 (0x2)
        Serial Number: 1 (0x1)
    Signature Algorithm: sha1WithRSAEncryption
        Issuer: C=CN, ST=CN, O=PKU, OU=MicroSoftware, CN=LIHAO/emailAddress=i@digva.com
        Validity
            Not Before: May 16 02:41:51 2013 GMT
            Not After : May 16 02:41:51 2014 GMT
        Subject: C=CN, ST=CN, O=PKU, OU=MicroSoftware, CN=LIHAO/emailAddress=i@digva.com
        Subject Public Key Info:
            Public Key Algorithm: rsaEncryption
                Public-Key: (2048 bit)
                Modulus:
                    00:c3:f5:6b:f6:b8:d8:03:6b:e5:7c:5c:77:c6:23:
                    8e:78:fa:f5:8d:49:7b:c1:ca:8d:79:d3:bb:7d:3b:
                    69:3f:b1:83:c1:e0:a9:ea:4f:e5:e8:50:44:0d:9d:
                    e3:b2:d0:7e:02:7e:da:cb:8d:ac:f1:51:30:c7:86:
                    81:84:a9:84:11:8b:9a:ed:8f:22:c5:53:d9:2a:f7:
                    5a:3c:74:17:09:3a:6e:32:f9:d4:dd:32:c7:fc:ca:
                    61:4d:ea:b2:73:dd:61:9b:ef:44:07:87:ae:b8:38:
                    78:24:03:05:ea:ad:ff:00:74:05:98:ca:d8:36:89:
                    bb:42:f6:e2:27:e4:ff:82:01:73:9f:53:96:6e:54:
                    07:09:5e:18:76:52:d0:a4:13:a1:9b:4f:a4:89:d0:
                    a9:f4:71:5b:6d:f9:7f:52:0e:98:3c:5e:f0:10:8b:
                    67:d0:d1:32:bf:7f:d7:c7:0b:dd:41:94:02:84:c1:
                    3b:7d:4f:c0:a7:ee:78:e4:78:54:e3:5a:be:76:33:
                    d5:e3:4e:79:8c:f6:3b:a5:9a:5c:fb:f9:a4:6e:6c:
                    f8:5c:cb:93:75:4a:3b:2a:e8:41:3e:2e:af:5a:90:
                    75:6d:cf:a6:b5:69:6d:e7:40:f5:8f:3c:24:8c:4e:
                    a0:eb:9c:ca:b3:b4:e5:15:4a:a6:f8:21:6a:2b:c4:
                    1e:c7
                Exponent: 65537 (0x10001)
        X509v3 extensions:
            X509v3 Basic Constraints: 
                CA:FALSE
            Netscape Comment: 
                OpenSSL Generated Certificate
            X509v3 Subject Key Identifier: 
                79:02:16:CF:4A:A4:4B:68:14:15:80:F1:CA:4E:B0:2F:8E:B4:BA:5E
            X509v3 Authority Key Identifier: 
                keyid:79:02:16:CF:4A:A4:4B:68:14:15:80:F1:CA:4E:B0:2F:8E:B4:BA:5E

    Signature Algorithm: sha1WithRSAEncryption
         a1:be:ed:9f:cb:7b:3a:1d:5d:c5:61:32:b7:c5:e2:43:72:bb:
         80:e8:1b:7b:5e:1f:ba:dc:77:53:34:f1:06:fc:5c:fd:e7:24:
         0a:0b:e4:bd:42:2d:1b:6c:6f:40:72:2b:a1:0a:e2:78:64:ed:
         44:97:16:27:96:49:7b:0b:f3:7a:b1:1e:3f:f2:b2:cb:e7:ae:
         2c:d7:29:de:b7:a8:6f:96:96:f9:4b:d5:98:3f:e3:15:ec:c3:
         da:1b:c6:6f:b6:15:0c:79:84:98:9b:a2:a5:71:7d:c4:e2:20:
         5a:36:d0:82:2f:d5:fd:27:8b:85:85:0a:b0:bd:21:5b:46:85:
         0f:69:93:7f:ae:bf:3d:b6:ce:4a:92:1c:19:35:15:1a:0e:72:
         79:6b:dc:d8:33:ab:91:1d:5b:71:53:d3:80:c9:47:d7:0a:1a:
         56:a7:09:52:ee:a5:66:2c:1c:f7:19:f2:b2:43:bf:7f:ea:8f:
         bb:d8:95:99:93:0c:e4:ca:95:76:37:9b:f8:38:d9:72:ea:7d:
         ea:bd:9f:2f:02:76:4f:da:65:7d:6a:0d:0c:fd:f6:29:92:36:
         a8:25:e6:0e:42:61:d5:73:48:b1:3a:2b:0c:06:34:93:e5:94:
         b6:7e:9a:c5:90:4e:82:21:61:84:4a:22:25:8e:41:f2:8a:3a:
         a5:a5:71:fe
-----BEGIN CERTIFICATE-----
MIIDzjCCAragAwIBAgIBATANBgkqhkiG9w0BAQUFADBsMQswCQYDVQQGEwJDTjEL
MAkGA1UECAwCQ04xDDAKBgNVBAoMA1BLVTEWMBQGA1UECwwNTWljcm9Tb2Z0d2Fy
ZTEOMAwGA1UEAwwFTElIQU8xGjAYBgkqhkiG9w0BCQEWC2lAZGlndmEuY29tMB4X
DTEzMDUxNjAyNDE1MVoXDTE0MDUxNjAyNDE1MVowbDELMAkGA1UEBhMCQ04xCzAJ
BgNVBAgMAkNOMQwwCgYDVQQKDANQS1UxFjAUBgNVBAsMDU1pY3JvU29mdHdhcmUx
DjAMBgNVBAMMBUxJSEFPMRowGAYJKoZIhvcNAQkBFgtpQGRpZ3ZhLmNvbTCCASIw
DQYJKoZIhvcNAQEBBQADggEPADCCAQoCggEBAMP1a/a42ANr5Xxcd8Yjjnj69Y1J
e8HKjXnTu307aT+xg8HgqepP5ehQRA2d47LQfgJ+2suNrPFRMMeGgYSphBGLmu2P
IsVT2Sr3Wjx0Fwk6bjL51N0yx/zKYU3qsnPdYZvvRAeHrrg4eCQDBeqt/wB0BZjK
2DaJu0L24ifk/4IBc59Tlm5UBwleGHZS0KQToZtPpInQqfRxW235f1IOmDxe8BCL
Z9DRMr9/18cL3UGUAoTBO31PwKfueOR4VONavnYz1eNOeYz2O6WaXPv5pG5s+FzL
k3VKOyroQT4ur1qQdW3PprVpbedA9Y88JIxOoOucyrO05RVKpvghaivEHscCAwEA
AaN7MHkwCQYDVR0TBAIwADAsBglghkgBhvhCAQ0EHxYdT3BlblNTTCBHZW5lcmF0
ZWQgQ2VydGlmaWNhdGUwHQYDVR0OBBYEFHkCFs9KpEtoFBWA8cpOsC+OtLpeMB8G
A1UdIwQYMBaAFHkCFs9KpEtoFBWA8cpOsC+OtLpeMA0GCSqGSIb3DQEBBQUAA4IB
AQChvu2fy3s6HV3FYTK3xeJDcruA6Bt7Xh+63HdTNPEG/Fz95yQKC+S9Qi0bbG9A
ciuhCuJ4ZO1ElxYnlkl7C/N6sR4/8rLL564s1ynet6hvlpb5S9WYP+MV7MPaG8Zv
thUMeYSYm6KlcX3E4iBaNtCCL9X9J4uFhQqwvSFbRoUPaZN/rr89ts5KkhwZNRUa
DnJ5a9zYM6uRHVtxU9OAyUfXChpWpwlS7qVmLBz3GfKyQ79/6o+72JWZkwzkypV2
N5v4ONly6n3qvZ8vAnZP2mV9ag0M/fYpkjaoJeYOQmHVc0ixOisMBjST5ZS2fprF
kE6CIWGESiIljkHyijqlpXH+
-----END CERTIFICATE-----
