Certificate:
    Data:
        Version: 3 (0x2)
        Serial Number: 2 (0x2)
    Signature Algorithm: sha1WithRSAEncryption
        Issuer: C=CN, ST=CN, O=PKU, OU=MicroSoftware, CN=LIHAO/emailAddress=i@digva.com
        Validity
            Not Before: May 16 03:03:26 2013 GMT
            Not After : May 16 03:03:26 2014 GMT
        Subject: C=CN, ST=CN, O=PKU, OU=sdgsdgs, CN=xbxczsrg/emailAddress=sdfsdg@dgdsg.com
        Subject Public Key Info:
            Public Key Algorithm: rsaEncryption
                Public-Key: (512 bit)
                Modulus:
                    00:f4:34:cf:27:2a:cf:2b:25:fb:db:45:38:07:60:
                    22:99:1c:47:05:0e:2d:1a:57:55:5d:e6:e4:51:dd:
                    03:b9:63:63:0c:b6:d4:ce:1b:48:c0:e1:52:ec:e8:
                    58:2c:84:61:eb:28:52:89:31:1d:f2:92:5c:4c:29:
                    2e:10:aa:82:a1
                Exponent: 65537 (0x10001)
        X509v3 extensions:
            X509v3 Basic Constraints: 
                CA:FALSE
            Netscape Comment: 
                OpenSSL Generated Certificate
            X509v3 Subject Key Identifier: 
                88:00:A4:6A:0C:92:9F:E4:37:EE:18:04:55:24:8E:08:DD:D6:69:E3
            X509v3 Authority Key Identifier: 
                keyid:79:02:16:CF:4A:A4:4B:68:14:15:80:F1:CA:4E:B0:2F:8E:B4:BA:5E

    Signature Algorithm: sha1WithRSAEncryption
         4b:d0:00:f8:c4:fd:c8:e0:86:c0:08:dd:c7:fd:d2:7a:9a:bd:
         c4:3b:11:91:70:10:4d:7e:5c:49:ea:d0:5a:f1:98:51:eb:51:
         68:18:34:75:5d:d3:e6:95:2f:92:6b:e1:ae:bb:05:fe:89:f5:
         fe:9d:59:8c:dc:1d:95:f5:d4:ef:61:20:6e:59:29:16:34:5c:
         07:dc:8a:56:f6:80:1d:93:9a:26:b6:ca:4a:60:fd:14:f7:2d:
         d6:36:cb:42:6e:22:45:3a:b6:e7:a1:7f:0e:d7:39:ed:75:7b:
         7b:ef:ab:7d:7b:ce:63:ab:64:77:14:e3:4f:a5:6b:ef:e0:79:
         d9:c0:79:e4:88:a4:96:dd:f0:57:46:39:08:3f:4c:42:b5:ef:
         0d:4e:b4:9d:f4:ed:00:8c:62:cf:7f:ff:5a:0f:8f:04:8d:c8:
         d3:ce:b2:f0:2d:21:f7:8c:33:13:5c:f1:50:f5:14:72:1d:fc:
         05:6c:e8:ca:cf:5b:57:2c:48:ab:00:24:3b:73:02:b6:5d:15:
         60:a4:2e:77:b2:39:2a:00:db:00:af:74:05:79:8c:a9:8d:0a:
         b4:87:19:33:36:66:4e:47:a9:b6:65:53:d5:2e:bc:a8:4e:e2:
         76:51:a2:93:a7:08:12:72:e4:b0:90:b7:1d:8a:91:59:a2:15:
         db:47:8c:16
-----BEGIN CERTIFICATE-----
MIIDCDCCAfCgAwIBAgIBAjANBgkqhkiG9w0BAQUFADBsMQswCQYDVQQGEwJDTjEL
MAkGA1UECAwCQ04xDDAKBgNVBAoMA1BLVTEWMBQGA1UECwwNTWljcm9Tb2Z0d2Fy
ZTEOMAwGA1UEAwwFTElIQU8xGjAYBgkqhkiG9w0BCQEWC2lAZGlndmEuY29tMB4X
DTEzMDUxNjAzMDMyNloXDTE0MDUxNjAzMDMyNlowbjELMAkGA1UEBhMCQ04xCzAJ
BgNVBAgMAkNOMQwwCgYDVQQKDANQS1UxEDAOBgNVBAsMB3NkZ3NkZ3MxETAPBgNV
BAMMCHhieGN6c3JnMR8wHQYJKoZIhvcNAQkBFhBzZGZzZGdAZGdkc2cuY29tMFww
DQYJKoZIhvcNAQEBBQADSwAwSAJBAPQ0zycqzysl+9tFOAdgIpkcRwUOLRpXVV3m
5FHdA7ljYwy21M4bSMDhUuzoWCyEYesoUokxHfKSXEwpLhCqgqECAwEAAaN7MHkw
CQYDVR0TBAIwADAsBglghkgBhvhCAQ0EHxYdT3BlblNTTCBHZW5lcmF0ZWQgQ2Vy
dGlmaWNhdGUwHQYDVR0OBBYEFIgApGoMkp/kN+4YBFUkjgjd1mnjMB8GA1UdIwQY
MBaAFHkCFs9KpEtoFBWA8cpOsC+OtLpeMA0GCSqGSIb3DQEBBQUAA4IBAQBL0AD4
xP3I4IbACN3H/dJ6mr3EOxGRcBBNflxJ6tBa8ZhR61FoGDR1XdPmlS+Sa+GuuwX+
ifX+nVmM3B2V9dTvYSBuWSkWNFwH3IpW9oAdk5omtspKYP0U9y3WNstCbiJFOrbn
oX8O1zntdXt776t9e85jq2R3FONPpWvv4HnZwHnkiKSW3fBXRjkIP0xCte8NTrSd
9O0AjGLPf/9aD48EjcjTzrLwLSH3jDMTXPFQ9RRyHfwFbOjKz1tXLEirACQ7cwK2
XRVgpC53sjkqANsAr3QFeYypjQq0hxkzNmZOR6m2ZVPVLryoTuJ2UaKTpwgScuSw
kLcdipFZohXbR4wW
-----END CERTIFICATE-----
