Certificate:
    Data:
        Version: 3 (0x2)
        Serial Number: 4 (0x4)
    Signature Algorithm: sha1WithRSAEncryption
        Issuer: C=CN, ST=BEIJING, O=PKU, OU=MicroSoftware, CN=LIHAO/emailAddress=i@digva.com
        Validity
            Not Before: May 17 07:59:14 2013 GMT
            Not After : May 17 07:59:14 2014 GMT
        Subject: C=CN, ST=BEIJING, O=PKU, OU=MicroSoftware, CN=QWERT/emailAddress=QWE@QWE.com
        Subject Public Key Info:
            Public Key Algorithm: rsaEncryption
                Public-Key: (512 bit)
                Modulus:
                    00:f4:34:cf:27:2a:cf:2b:25:fb:db:45:38:07:60:
                    22:99:1c:47:05:0e:2d:1a:57:55:5d:e6:e4:51:dd:
                    03:b9:63:63:0c:b6:d4:ce:1b:48:c0:e1:52:ec:e8:
                    58:2c:84:61:eb:28:52:89:31:1d:f2:92:5c:4c:29:
                    2e:10:aa:82:a1
                Exponent: 65537 (0x10001)
        X509v3 extensions:
            X509v3 Basic Constraints: 
                CA:FALSE
            Netscape Comment: 
                OpenSSL Generated Certificate
            X509v3 Subject Key Identifier: 
                88:00:A4:6A:0C:92:9F:E4:37:EE:18:04:55:24:8E:08:DD:D6:69:E3
            X509v3 Authority Key Identifier: 
                keyid:79:02:16:CF:4A:A4:4B:68:14:15:80:F1:CA:4E:B0:2F:8E:B4:BA:5E

    Signature Algorithm: sha1WithRSAEncryption
         70:82:ae:cb:1e:ed:c2:22:69:ff:01:64:26:63:ec:70:8a:ae:
         91:83:75:6f:e2:a1:08:a5:2d:4b:55:7e:12:3f:00:6a:c3:eb:
         a8:f5:5f:7b:e0:a3:0f:71:b5:6d:f7:bd:06:bd:ad:20:8b:43:
         72:de:d1:4f:56:ba:02:a0:ba:9b:20:e4:0c:aa:e8:34:17:74:
         c0:84:15:b7:ed:63:ed:e7:10:85:24:e0:4e:6e:01:c4:af:d0:
         d7:1c:2d:f1:0b:6f:41:d6:27:9c:e1:70:ed:cd:e5:02:ec:e0:
         12:dc:27:2a:c3:74:eb:c2:ea:9a:12:45:d6:57:cb:37:da:2f:
         12:f2:a7:71:a7:61:52:7c:18:ad:5b:81:fe:93:2a:f8:3f:1e:
         e4:1d:9e:d3:a1:e2:ef:f0:9d:db:62:38:74:e2:64:b8:87:f7:
         ac:cb:5d:7b:cb:f7:38:ed:12:a7:b3:9d:aa:38:46:5b:f4:7d:
         7e:1e:ca:03:b3:57:b3:4e:05:f1:08:f4:a1:9c:0f:1c:27:82:
         eb:16:ba:7f:d8:d0:10:0a:28:f3:05:81:9c:dc:a6:e8:82:89:
         7b:24:69:58:a2:ec:af:da:91:b4:5f:ba:75:ff:93:8a:42:ec:
         b2:81:c4:71:04:94:a2:2f:97:86:7b:f6:8c:85:35:db:46:c9:
         84:07:6b:4a
-----BEGIN CERTIFICATE-----
MIIDEDCCAfigAwIBAgIBBDANBgkqhkiG9w0BAQUFADBxMQswCQYDVQQGEwJDTjEQ
MA4GA1UECAwHQkVJSklORzEMMAoGA1UECgwDUEtVMRYwFAYDVQQLDA1NaWNyb1Nv
ZnR3YXJlMQ4wDAYDVQQDDAVMSUhBTzEaMBgGCSqGSIb3DQEJARYLaUBkaWd2YS5j
b20wHhcNMTMwNTE3MDc1OTE0WhcNMTQwNTE3MDc1OTE0WjBxMQswCQYDVQQGEwJD
TjEQMA4GA1UECAwHQkVJSklORzEMMAoGA1UECgwDUEtVMRYwFAYDVQQLDA1NaWNy
b1NvZnR3YXJlMQ4wDAYDVQQDDAVRV0VSVDEaMBgGCSqGSIb3DQEJARYLUVdFQFFX
RS5jb20wXDANBgkqhkiG9w0BAQEFAANLADBIAkEA9DTPJyrPKyX720U4B2AimRxH
BQ4tGldVXebkUd0DuWNjDLbUzhtIwOFS7OhYLIRh6yhSiTEd8pJcTCkuEKqCoQID
AQABo3sweTAJBgNVHRMEAjAAMCwGCWCGSAGG+EIBDQQfFh1PcGVuU1NMIEdlbmVy
YXRlZCBDZXJ0aWZpY2F0ZTAdBgNVHQ4EFgQUiACkagySn+Q37hgEVSSOCN3WaeMw
HwYDVR0jBBgwFoAUeQIWz0qkS2gUFYDxyk6wL460ul4wDQYJKoZIhvcNAQEFBQAD
ggEBAHCCrsse7cIiaf8BZCZj7HCKrpGDdW/ioQilLUtVfhI/AGrD66j1X3vgow9x
tW33vQa9rSCLQ3Le0U9WugKgupsg5Ayq6DQXdMCEFbftY+3nEIUk4E5uAcSv0Ncc
LfELb0HWJ5zhcO3N5QLs4BLcJyrDdOvC6poSRdZXyzfaLxLyp3GnYVJ8GK1bgf6T
Kvg/HuQdntOh4u/wndtiOHTiZLiH96zLXXvL9zjtEqeznao4Rlv0fX4eygOzV7NO
BfEI9KGcDxwngusWun/Y0BAKKPMFgZzcpuiCiXskaVii7K/akbRfunX/k4pC7LKB
xHEElKIvl4Z79oyFNdtGyYQHa0o=
-----END CERTIFICATE-----
