Certificate:
    Data:
        Version: 3 (0x2)
        Serial Number: 5 (0x5)
    Signature Algorithm: sha1WithRSAEncryption
        Issuer: C=CN, ST=BEIJING, O=PKU, OU=MicroSoftware, CN=LIHAO/emailAddress=i@digva.com
        Validity
            Not Before: May 17 08:03:02 2013 GMT
            Not After : May 17 08:03:02 2014 GMT
        Subject: C=CN, ST=BEIJING, O=PKU, OU=MicroSoftware, CN=QWERT/emailAddress=QWE@QWE.com
        Subject Public Key Info:
            Public Key Algorithm: rsaEncryption
                Public-Key: (512 bit)
                Modulus:
                    00:f4:34:cf:27:2a:cf:2b:25:fb:db:45:38:07:60:
                    22:99:1c:47:05:0e:2d:1a:57:55:5d:e6:e4:51:dd:
                    03:b9:63:63:0c:b6:d4:ce:1b:48:c0:e1:52:ec:e8:
                    58:2c:84:61:eb:28:52:89:31:1d:f2:92:5c:4c:29:
                    2e:10:aa:82:a1
                Exponent: 65537 (0x10001)
        X509v3 extensions:
            X509v3 Basic Constraints: 
                CA:FALSE
            Netscape Comment: 
                OpenSSL Generated Certificate
            X509v3 Subject Key Identifier: 
                88:00:A4:6A:0C:92:9F:E4:37:EE:18:04:55:24:8E:08:DD:D6:69:E3
            X509v3 Authority Key Identifier: 
                keyid:79:02:16:CF:4A:A4:4B:68:14:15:80:F1:CA:4E:B0:2F:8E:B4:BA:5E

    Signature Algorithm: sha1WithRSAEncryption
         8f:34:4d:ef:72:be:68:e5:11:b0:ac:b6:de:d4:50:ae:04:f6:
         13:73:b9:e4:05:80:38:c7:3c:89:88:03:68:d5:ce:3c:07:64:
         08:70:ce:e2:96:c2:2c:07:98:d8:e3:f4:57:9d:cd:e4:e0:77:
         c4:fd:50:28:f3:20:df:1d:58:86:50:d4:bf:2c:2e:f2:35:6d:
         cf:9c:3d:c1:e4:20:54:4f:a8:8d:29:73:50:1e:c2:9e:d8:34:
         94:ab:8e:5b:d1:74:c6:fa:6e:38:6b:76:93:49:78:62:ba:78:
         ad:8d:78:6d:4f:1d:e5:06:02:6a:ca:ca:95:e4:a7:c9:72:55:
         cc:22:8c:65:cc:64:5c:08:19:96:62:f9:1c:e2:c2:81:0e:d9:
         17:76:b1:70:7e:0f:22:04:3a:a6:51:e0:8b:05:ff:6e:84:33:
         b4:03:b3:55:6e:91:e1:71:bd:89:8d:07:56:6d:cb:f3:57:fd:
         55:91:ff:8c:62:77:17:94:b4:43:53:ea:9e:01:7d:0d:16:8d:
         36:6c:b7:b7:58:5e:04:ea:c8:c2:17:f1:64:20:22:f6:38:1f:
         aa:5c:9d:c5:b8:05:79:31:f7:32:74:46:91:2c:55:14:11:39:
         30:c4:0f:63:9f:c7:86:8a:4c:63:81:f7:9e:b9:4f:c9:21:af:
         45:9f:3d:dc
-----BEGIN CERTIFICATE-----
MIIDEDCCAfigAwIBAgIBBTANBgkqhkiG9w0BAQUFADBxMQswCQYDVQQGEwJDTjEQ
MA4GA1UECAwHQkVJSklORzEMMAoGA1UECgwDUEtVMRYwFAYDVQQLDA1NaWNyb1Nv
ZnR3YXJlMQ4wDAYDVQQDDAVMSUhBTzEaMBgGCSqGSIb3DQEJARYLaUBkaWd2YS5j
b20wHhcNMTMwNTE3MDgwMzAyWhcNMTQwNTE3MDgwMzAyWjBxMQswCQYDVQQGEwJD
TjEQMA4GA1UECAwHQkVJSklORzEMMAoGA1UECgwDUEtVMRYwFAYDVQQLDA1NaWNy
b1NvZnR3YXJlMQ4wDAYDVQQDDAVRV0VSVDEaMBgGCSqGSIb3DQEJARYLUVdFQFFX
RS5jb20wXDANBgkqhkiG9w0BAQEFAANLADBIAkEA9DTPJyrPKyX720U4B2AimRxH
BQ4tGldVXebkUd0DuWNjDLbUzhtIwOFS7OhYLIRh6yhSiTEd8pJcTCkuEKqCoQID
AQABo3sweTAJBgNVHRMEAjAAMCwGCWCGSAGG+EIBDQQfFh1PcGVuU1NMIEdlbmVy
YXRlZCBDZXJ0aWZpY2F0ZTAdBgNVHQ4EFgQUiACkagySn+Q37hgEVSSOCN3WaeMw
HwYDVR0jBBgwFoAUeQIWz0qkS2gUFYDxyk6wL460ul4wDQYJKoZIhvcNAQEFBQAD
ggEBAI80Te9yvmjlEbCstt7UUK4E9hNzueQFgDjHPImIA2jVzjwHZAhwzuKWwiwH
mNjj9FedzeTgd8T9UCjzIN8dWIZQ1L8sLvI1bc+cPcHkIFRPqI0pc1Aewp7YNJSr
jlvRdMb6bjhrdpNJeGK6eK2NeG1PHeUGAmrKypXkp8lyVcwijGXMZFwIGZZi+Rzi
woEO2Rd2sXB+DyIEOqZR4IsF/26EM7QDs1VukeFxvYmNB1Zty/NX/VWR/4xidxeU
tENT6p4BfQ0WjTZst7dYXgTqyMIX8WQgIvY4H6pcncW4BXkx9zJ0RpEsVRQROTDE
D2Ofx4aKTGOB9565T8khr0WfPdw=
-----END CERTIFICATE-----
