Certificate:
    Data:
        Version: 3 (0x2)
        Serial Number: 6 (0x6)
    Signature Algorithm: sha1WithRSAEncryption
        Issuer: C=CN, ST=BEIJING, O=PKU, OU=MicroSoftware, CN=LIHAO/emailAddress=i@digva.com
        Validity
            Not Before: May 17 08:10:54 2013 GMT
            Not After : May 17 08:10:54 2014 GMT
        Subject: C=CN, ST=BEIJING, O=PKU, OU=MicroSoftware, CN=QWERT/emailAddress=QWE@QWE.com
        Subject Public Key Info:
            Public Key Algorithm: rsaEncryption
                Public-Key: (512 bit)
                Modulus:
                    00:f4:34:cf:27:2a:cf:2b:25:fb:db:45:38:07:60:
                    22:99:1c:47:05:0e:2d:1a:57:55:5d:e6:e4:51:dd:
                    03:b9:63:63:0c:b6:d4:ce:1b:48:c0:e1:52:ec:e8:
                    58:2c:84:61:eb:28:52:89:31:1d:f2:92:5c:4c:29:
                    2e:10:aa:82:a1
                Exponent: 65537 (0x10001)
        X509v3 extensions:
            X509v3 Basic Constraints: 
                CA:FALSE
            Netscape Comment: 
                OpenSSL Generated Certificate
            X509v3 Subject Key Identifier: 
                88:00:A4:6A:0C:92:9F:E4:37:EE:18:04:55:24:8E:08:DD:D6:69:E3
            X509v3 Authority Key Identifier: 
                keyid:79:02:16:CF:4A:A4:4B:68:14:15:80:F1:CA:4E:B0:2F:8E:B4:BA:5E

    Signature Algorithm: sha1WithRSAEncryption
         44:2b:17:64:2e:52:82:d1:5a:06:11:f8:c7:ca:08:af:26:49:
         10:6a:23:5f:6a:fd:cb:14:0f:22:9a:6f:d4:25:7c:90:0a:e0:
         5c:76:6e:48:35:28:c7:d9:9e:9a:90:a4:72:d3:3c:30:f7:ed:
         82:20:4d:a2:f9:cd:8b:33:d9:52:ee:2b:6c:8d:c3:9d:18:a4:
         c3:eb:e0:37:04:13:ba:5b:ec:2b:7a:74:e4:8f:0d:b7:17:8b:
         ec:5c:42:92:94:31:5e:ca:48:b0:1d:f1:c4:f5:0d:ec:d2:f1:
         d8:63:02:73:da:47:0c:07:bf:d8:cc:c1:82:5e:93:46:ba:66:
         70:09:9f:03:73:0d:ca:01:c7:ea:79:1b:17:d5:7c:45:2b:05:
         f4:55:21:31:bc:eb:3b:d4:04:dc:cd:52:48:1f:9c:4e:72:87:
         f4:03:0e:4f:81:eb:d4:80:d2:16:da:16:98:eb:d3:52:c4:8b:
         82:e8:2b:d9:c5:9b:b9:92:c1:a7:6d:ba:3f:1b:ed:80:36:30:
         8c:05:37:34:c7:3f:66:f4:72:6b:e2:ec:7b:38:13:62:de:8e:
         5d:88:fa:0e:e2:10:c8:aa:eb:56:a6:4e:f3:b3:51:c2:4b:f9:
         d0:e9:cf:48:78:37:16:88:84:6b:d5:c9:be:38:e1:a6:97:be:
         57:35:15:d7
-----BEGIN CERTIFICATE-----
MIIDEDCCAfigAwIBAgIBBjANBgkqhkiG9w0BAQUFADBxMQswCQYDVQQGEwJDTjEQ
MA4GA1UECAwHQkVJSklORzEMMAoGA1UECgwDUEtVMRYwFAYDVQQLDA1NaWNyb1Nv
ZnR3YXJlMQ4wDAYDVQQDDAVMSUhBTzEaMBgGCSqGSIb3DQEJARYLaUBkaWd2YS5j
b20wHhcNMTMwNTE3MDgxMDU0WhcNMTQwNTE3MDgxMDU0WjBxMQswCQYDVQQGEwJD
TjEQMA4GA1UECAwHQkVJSklORzEMMAoGA1UECgwDUEtVMRYwFAYDVQQLDA1NaWNy
b1NvZnR3YXJlMQ4wDAYDVQQDDAVRV0VSVDEaMBgGCSqGSIb3DQEJARYLUVdFQFFX
RS5jb20wXDANBgkqhkiG9w0BAQEFAANLADBIAkEA9DTPJyrPKyX720U4B2AimRxH
BQ4tGldVXebkUd0DuWNjDLbUzhtIwOFS7OhYLIRh6yhSiTEd8pJcTCkuEKqCoQID
AQABo3sweTAJBgNVHRMEAjAAMCwGCWCGSAGG+EIBDQQfFh1PcGVuU1NMIEdlbmVy
YXRlZCBDZXJ0aWZpY2F0ZTAdBgNVHQ4EFgQUiACkagySn+Q37hgEVSSOCN3WaeMw
HwYDVR0jBBgwFoAUeQIWz0qkS2gUFYDxyk6wL460ul4wDQYJKoZIhvcNAQEFBQAD
ggEBAEQrF2QuUoLRWgYR+MfKCK8mSRBqI19q/csUDyKab9QlfJAK4Fx2bkg1KMfZ
npqQpHLTPDD37YIgTaL5zYsz2VLuK2yNw50YpMPr4DcEE7pb7Ct6dOSPDbcXi+xc
QpKUMV7KSLAd8cT1DezS8dhjAnPaRwwHv9jMwYJek0a6ZnAJnwNzDcoBx+p5GxfV
fEUrBfRVITG86zvUBNzNUkgfnE5yh/QDDk+B69SA0hbaFpjr01LEi4LoK9nFm7mS
wadtuj8b7YA2MIwFNzTHP2b0cmvi7Hs4E2Lejl2I+g7iEMiq61amTvOzUcJL+dDp
z0h4NxaIhGvVyb444aaXvlc1Fdc=
-----END CERTIFICATE-----
