Certificate:
    Data:
        Version: 3 (0x2)
        Serial Number: 8 (0x8)
    Signature Algorithm: sha1WithRSAEncryption
        Issuer: C=CN, ST=BEIJING, O=PKU, OU=MicroSoftware, CN=LIHAO/emailAddress=i@digva.com
        Validity
            Not Before: May 20 01:57:02 2013 GMT
            Not After : May 20 01:57:02 2014 GMT
        Subject: C=CN, ST=BEIJING, O=PKU, OU=MicroSoftware, CN=QWERT/emailAddress=QWE@QWE.com
        Subject Public Key Info:
            Public Key Algorithm: rsaEncryption
                Public-Key: (512 bit)
                Modulus:
                    00:f4:34:cf:27:2a:cf:2b:25:fb:db:45:38:07:60:
                    22:99:1c:47:05:0e:2d:1a:57:55:5d:e6:e4:51:dd:
                    03:b9:63:63:0c:b6:d4:ce:1b:48:c0:e1:52:ec:e8:
                    58:2c:84:61:eb:28:52:89:31:1d:f2:92:5c:4c:29:
                    2e:10:aa:82:a1
                Exponent: 65537 (0x10001)
        X509v3 extensions:
            X509v3 Basic Constraints: 
                CA:FALSE
            Netscape Comment: 
                OpenSSL Generated Certificate
            X509v3 Subject Key Identifier: 
                88:00:A4:6A:0C:92:9F:E4:37:EE:18:04:55:24:8E:08:DD:D6:69:E3
            X509v3 Authority Key Identifier: 
                keyid:79:02:16:CF:4A:A4:4B:68:14:15:80:F1:CA:4E:B0:2F:8E:B4:BA:5E

    Signature Algorithm: sha1WithRSAEncryption
         4e:b8:66:a1:64:8f:ec:fe:76:99:60:32:b4:db:35:10:96:3f:
         d5:42:cd:a5:3d:f8:eb:a1:0f:1d:67:b1:99:5c:f3:a2:64:1a:
         c4:da:87:2a:12:be:d0:0a:f3:ea:3f:0a:ca:ac:21:9e:c7:fa:
         4e:be:09:53:86:d9:de:8d:0c:1a:61:44:1a:42:36:2b:cc:c0:
         a3:92:70:20:ae:13:2a:08:ad:19:3f:4c:40:c2:4d:69:79:ef:
         6a:44:79:d0:7d:fb:6a:b5:1f:0b:56:2b:78:70:ad:a0:41:8b:
         d4:0a:1c:44:d1:a0:7b:91:00:e8:b7:2a:05:72:43:d5:e6:6c:
         f8:0d:fb:3e:e7:7f:72:25:39:fe:bc:9a:07:4b:0b:df:bf:78:
         50:7b:df:2a:b0:61:b3:c3:b2:8f:8b:9a:69:e8:ce:7a:89:a0:
         ce:ab:fb:9c:5a:c1:ce:3d:1d:11:1a:35:5e:1c:c7:c7:90:5f:
         6b:c2:36:82:6b:49:c5:c6:5b:1f:4d:e8:8f:27:56:2a:4f:8e:
         7f:d3:92:fe:7e:a0:4b:d7:78:5a:0c:58:39:08:a6:3d:c5:40:
         3b:90:b9:02:f4:dd:78:d2:91:6c:59:1a:15:91:87:cc:61:1d:
         55:a8:ca:2a:a8:e9:23:71:d4:1e:a9:14:66:57:2d:62:61:59:
         28:89:e9:66
-----BEGIN CERTIFICATE-----
MIIDEDCCAfigAwIBAgIBCDANBgkqhkiG9w0BAQUFADBxMQswCQYDVQQGEwJDTjEQ
MA4GA1UECAwHQkVJSklORzEMMAoGA1UECgwDUEtVMRYwFAYDVQQLDA1NaWNyb1Nv
ZnR3YXJlMQ4wDAYDVQQDDAVMSUhBTzEaMBgGCSqGSIb3DQEJARYLaUBkaWd2YS5j
b20wHhcNMTMwNTIwMDE1NzAyWhcNMTQwNTIwMDE1NzAyWjBxMQswCQYDVQQGEwJD
TjEQMA4GA1UECAwHQkVJSklORzEMMAoGA1UECgwDUEtVMRYwFAYDVQQLDA1NaWNy
b1NvZnR3YXJlMQ4wDAYDVQQDDAVRV0VSVDEaMBgGCSqGSIb3DQEJARYLUVdFQFFX
RS5jb20wXDANBgkqhkiG9w0BAQEFAANLADBIAkEA9DTPJyrPKyX720U4B2AimRxH
BQ4tGldVXebkUd0DuWNjDLbUzhtIwOFS7OhYLIRh6yhSiTEd8pJcTCkuEKqCoQID
AQABo3sweTAJBgNVHRMEAjAAMCwGCWCGSAGG+EIBDQQfFh1PcGVuU1NMIEdlbmVy
YXRlZCBDZXJ0aWZpY2F0ZTAdBgNVHQ4EFgQUiACkagySn+Q37hgEVSSOCN3WaeMw
HwYDVR0jBBgwFoAUeQIWz0qkS2gUFYDxyk6wL460ul4wDQYJKoZIhvcNAQEFBQAD
ggEBAE64ZqFkj+z+dplgMrTbNRCWP9VCzaU9+OuhDx1nsZlc86JkGsTahyoSvtAK
8+o/CsqsIZ7H+k6+CVOG2d6NDBphRBpCNivMwKOScCCuEyoIrRk/TEDCTWl572pE
edB9+2q1HwtWK3hwraBBi9QKHETRoHuRAOi3KgVyQ9XmbPgN+z7nf3IlOf68mgdL
C9+/eFB73yqwYbPDso+LmmnoznqJoM6r+5xawc49HREaNV4cx8eQX2vCNoJrScXG
Wx9N6I8nVipPjn/Tkv5+oEvXeFoMWDkIpj3FQDuQuQL03XjSkWxZGhWRh8xhHVWo
yiqo6SNx1B6pFGZXLWJhWSiJ6WY=
-----END CERTIFICATE-----
