Certificate:
    Data:
        Version: 3 (0x2)
        Serial Number: 10 (0xa)
    Signature Algorithm: sha1WithRSAEncryption
        Issuer: C=CN, ST=BEIJING, O=PKU, OU=MicroSoftware, CN=LIHAO/emailAddress=i@digva.com
        Validity
            Not Before: May 20 01:58:34 2013 GMT
            Not After : May 20 01:58:34 2014 GMT
        Subject: C=CN, ST=BEIJING, O=PKU, OU=MicroSoftware, CN=QWERT/emailAddress=QWE@QWE.com
        Subject Public Key Info:
            Public Key Algorithm: rsaEncryption
                Public-Key: (512 bit)
                Modulus:
                    00:f4:34:cf:27:2a:cf:2b:25:fb:db:45:38:07:60:
                    22:99:1c:47:05:0e:2d:1a:57:55:5d:e6:e4:51:dd:
                    03:b9:63:63:0c:b6:d4:ce:1b:48:c0:e1:52:ec:e8:
                    58:2c:84:61:eb:28:52:89:31:1d:f2:92:5c:4c:29:
                    2e:10:aa:82:a1
                Exponent: 65537 (0x10001)
        X509v3 extensions:
            X509v3 Basic Constraints: 
                CA:FALSE
            Netscape Comment: 
                OpenSSL Generated Certificate
            X509v3 Subject Key Identifier: 
                88:00:A4:6A:0C:92:9F:E4:37:EE:18:04:55:24:8E:08:DD:D6:69:E3
            X509v3 Authority Key Identifier: 
                keyid:79:02:16:CF:4A:A4:4B:68:14:15:80:F1:CA:4E:B0:2F:8E:B4:BA:5E

    Signature Algorithm: sha1WithRSAEncryption
         57:9b:1c:43:6a:72:dd:3c:b6:47:4c:46:38:22:35:20:46:29:
         88:ed:ff:8e:fb:60:93:31:ac:3a:72:bd:e3:99:9b:37:fc:ba:
         0c:6f:b9:b8:22:99:e5:f2:5a:c5:6a:c1:5d:47:1a:52:44:ef:
         d7:8c:1a:5c:48:c8:70:6b:5d:bb:88:1f:f4:14:1f:81:e8:3f:
         eb:31:f1:75:39:43:eb:f0:a4:a2:39:ff:b7:25:e0:2c:7c:4e:
         13:c2:e7:1d:71:6a:74:f6:36:a1:9d:9c:c5:95:67:91:2c:d2:
         1f:54:bf:25:97:97:42:ff:64:20:53:ee:7d:fd:76:90:e5:8c:
         e7:e9:e3:f6:96:72:ad:1d:e8:68:93:0a:70:e6:5f:21:bf:3b:
         8c:5a:5b:da:b1:e3:85:a8:84:8d:0c:65:3e:55:54:6e:15:62:
         64:16:82:cc:f1:f2:46:5d:1b:3d:b9:8a:c8:53:64:6f:3a:c7:
         42:51:36:01:24:cb:99:f4:ed:e9:e3:3e:1c:3a:bc:aa:5b:a0:
         fe:4a:16:77:d6:d6:64:95:5b:f4:16:7f:4f:c6:a8:b3:b5:4d:
         5c:8a:db:ef:d3:5b:4c:8c:a4:bb:29:28:55:d0:2b:5f:43:c5:
         ca:c6:42:2d:78:b0:93:e8:0e:54:3e:e1:3b:0c:bc:9e:7f:79:
         9a:17:0a:d8
-----BEGIN CERTIFICATE-----
MIIDEDCCAfigAwIBAgIBCjANBgkqhkiG9w0BAQUFADBxMQswCQYDVQQGEwJDTjEQ
MA4GA1UECAwHQkVJSklORzEMMAoGA1UECgwDUEtVMRYwFAYDVQQLDA1NaWNyb1Nv
ZnR3YXJlMQ4wDAYDVQQDDAVMSUhBTzEaMBgGCSqGSIb3DQEJARYLaUBkaWd2YS5j
b20wHhcNMTMwNTIwMDE1ODM0WhcNMTQwNTIwMDE1ODM0WjBxMQswCQYDVQQGEwJD
TjEQMA4GA1UECAwHQkVJSklORzEMMAoGA1UECgwDUEtVMRYwFAYDVQQLDA1NaWNy
b1NvZnR3YXJlMQ4wDAYDVQQDDAVRV0VSVDEaMBgGCSqGSIb3DQEJARYLUVdFQFFX
RS5jb20wXDANBgkqhkiG9w0BAQEFAANLADBIAkEA9DTPJyrPKyX720U4B2AimRxH
BQ4tGldVXebkUd0DuWNjDLbUzhtIwOFS7OhYLIRh6yhSiTEd8pJcTCkuEKqCoQID
AQABo3sweTAJBgNVHRMEAjAAMCwGCWCGSAGG+EIBDQQfFh1PcGVuU1NMIEdlbmVy
YXRlZCBDZXJ0aWZpY2F0ZTAdBgNVHQ4EFgQUiACkagySn+Q37hgEVSSOCN3WaeMw
HwYDVR0jBBgwFoAUeQIWz0qkS2gUFYDxyk6wL460ul4wDQYJKoZIhvcNAQEFBQAD
ggEBAFebHENqct08tkdMRjgiNSBGKYjt/477YJMxrDpyveOZmzf8ugxvubgimeXy
WsVqwV1HGlJE79eMGlxIyHBrXbuIH/QUH4HoP+sx8XU5Q+vwpKI5/7cl4Cx8ThPC
5x1xanT2NqGdnMWVZ5Es0h9UvyWXl0L/ZCBT7n39dpDljOfp4/aWcq0d6GiTCnDm
XyG/O4xaW9qx44WohI0MZT5VVG4VYmQWgszx8kZdGz25ishTZG86x0JRNgEky5n0
7enjPhw6vKpboP5KFnfW1mSVW/QWf0/GqLO1TVyK2+/TW0yMpLspKFXQK19DxcrG
Qi14sJPoDlQ+4TsMvJ5/eZoXCtg=
-----END CERTIFICATE-----
