Certificate:
    Data:
        Version: 3 (0x2)
        Serial Number: 13 (0xd)
    Signature Algorithm: sha1WithRSAEncryption
        Issuer: C=CN, ST=BEIJING, O=PKU, OU=MicroSoftware, CN=LIHAO/emailAddress=i@digva.com
        Validity
            Not Before: May 20 02:11:14 2013 GMT
            Not After : May 20 02:11:14 2014 GMT
        Subject: C=CN, ST=BEIJING, O=PKU, OU=MicroSoftware, CN=QWERT/emailAddress=QWE@QWE.com
        Subject Public Key Info:
            Public Key Algorithm: rsaEncryption
                Public-Key: (512 bit)
                Modulus:
                    00:f4:34:cf:27:2a:cf:2b:25:fb:db:45:38:07:60:
                    22:99:1c:47:05:0e:2d:1a:57:55:5d:e6:e4:51:dd:
                    03:b9:63:63:0c:b6:d4:ce:1b:48:c0:e1:52:ec:e8:
                    58:2c:84:61:eb:28:52:89:31:1d:f2:92:5c:4c:29:
                    2e:10:aa:82:a1
                Exponent: 65537 (0x10001)
        X509v3 extensions:
            X509v3 Basic Constraints: 
                CA:FALSE
            Netscape Comment: 
                OpenSSL Generated Certificate
            X509v3 Subject Key Identifier: 
                88:00:A4:6A:0C:92:9F:E4:37:EE:18:04:55:24:8E:08:DD:D6:69:E3
            X509v3 Authority Key Identifier: 
                keyid:79:02:16:CF:4A:A4:4B:68:14:15:80:F1:CA:4E:B0:2F:8E:B4:BA:5E

    Signature Algorithm: sha1WithRSAEncryption
         00:00:ed:19:75:6f:61:81:24:68:ac:5a:c5:e5:93:25:7a:09:
         55:da:fd:5f:9a:b7:7f:43:99:12:0f:43:35:ed:2a:77:5d:10:
         29:0b:44:a9:19:f8:b5:d6:1a:5d:1b:8c:22:85:24:05:be:f7:
         cd:93:01:7e:80:a9:24:b3:a5:03:6b:69:f8:1f:23:b8:46:6c:
         15:1e:f0:de:fa:70:61:4a:7f:73:13:3a:cc:a5:d3:49:9f:3c:
         3a:b0:6f:7b:16:66:4a:8b:72:5c:d5:1a:20:fb:22:af:af:fb:
         af:32:88:df:b1:b0:ae:92:25:3d:d9:9e:bc:58:ee:1d:89:ba:
         b7:54:58:b7:57:ac:30:89:d4:f0:9d:d6:03:cb:d9:68:bb:bd:
         eb:98:7d:3f:1f:52:79:e1:c5:64:33:d5:da:ef:c8:8f:d2:6f:
         6f:3a:56:3e:fc:6c:25:31:7c:ce:a1:5c:db:8c:b3:dc:c0:f0:
         20:84:07:27:b2:1e:e0:3a:17:a0:e6:cf:e6:9a:68:a9:5b:5f:
         13:f6:f2:26:c5:0c:89:06:b7:b8:db:ef:0d:8d:eb:d9:b0:93:
         fb:a5:8c:8f:74:24:4c:a0:3f:ae:fe:b2:60:04:2f:2b:f7:18:
         3d:0c:ae:d9:aa:45:e4:67:60:2e:83:fe:bd:b9:08:71:6e:0b:
         1c:ff:1f:8a
-----BEGIN CERTIFICATE-----
MIIDEDCCAfigAwIBAgIBDTANBgkqhkiG9w0BAQUFADBxMQswCQYDVQQGEwJDTjEQ
MA4GA1UECAwHQkVJSklORzEMMAoGA1UECgwDUEtVMRYwFAYDVQQLDA1NaWNyb1Nv
ZnR3YXJlMQ4wDAYDVQQDDAVMSUhBTzEaMBgGCSqGSIb3DQEJARYLaUBkaWd2YS5j
b20wHhcNMTMwNTIwMDIxMTE0WhcNMTQwNTIwMDIxMTE0WjBxMQswCQYDVQQGEwJD
TjEQMA4GA1UECAwHQkVJSklORzEMMAoGA1UECgwDUEtVMRYwFAYDVQQLDA1NaWNy
b1NvZnR3YXJlMQ4wDAYDVQQDDAVRV0VSVDEaMBgGCSqGSIb3DQEJARYLUVdFQFFX
RS5jb20wXDANBgkqhkiG9w0BAQEFAANLADBIAkEA9DTPJyrPKyX720U4B2AimRxH
BQ4tGldVXebkUd0DuWNjDLbUzhtIwOFS7OhYLIRh6yhSiTEd8pJcTCkuEKqCoQID
AQABo3sweTAJBgNVHRMEAjAAMCwGCWCGSAGG+EIBDQQfFh1PcGVuU1NMIEdlbmVy
YXRlZCBDZXJ0aWZpY2F0ZTAdBgNVHQ4EFgQUiACkagySn+Q37hgEVSSOCN3WaeMw
HwYDVR0jBBgwFoAUeQIWz0qkS2gUFYDxyk6wL460ul4wDQYJKoZIhvcNAQEFBQAD
ggEBAAAA7Rl1b2GBJGisWsXlkyV6CVXa/V+at39DmRIPQzXtKnddECkLRKkZ+LXW
Gl0bjCKFJAW+982TAX6AqSSzpQNrafgfI7hGbBUe8N76cGFKf3MTOsyl00mfPDqw
b3sWZkqLclzVGiD7Iq+v+68yiN+xsK6SJT3ZnrxY7h2JurdUWLdXrDCJ1PCd1gPL
2Wi7veuYfT8fUnnhxWQz1drvyI/Sb286Vj78bCUxfM6hXNuMs9zA8CCEByeyHuA6
F6Dmz+aaaKlbXxP28ibFDIkGt7jb7w2N69mwk/uljI90JEygP67+smAELyv3GD0M
rtmqReRnYC6D/r25CHFuCxz/H4o=
-----END CERTIFICATE-----
