Certificate:
    Data:
        Version: 3 (0x2)
        Serial Number: 15 (0xf)
    Signature Algorithm: sha1WithRSAEncryption
        Issuer: C=CN, ST=BEIJING, O=PKU, OU=MicroSoftware, CN=LIHAO/emailAddress=i@digva.com
        Validity
            Not Before: May 20 02:13:13 2013 GMT
            Not After : May 20 02:13:13 2014 GMT
        Subject: C=CN, ST=BEIJING, O=PKU, OU=MicroSoftware, CN=QWERT/emailAddress=QWE@QWE.com
        Subject Public Key Info:
            Public Key Algorithm: rsaEncryption
                Public-Key: (512 bit)
                Modulus:
                    00:f4:34:cf:27:2a:cf:2b:25:fb:db:45:38:07:60:
                    22:99:1c:47:05:0e:2d:1a:57:55:5d:e6:e4:51:dd:
                    03:b9:63:63:0c:b6:d4:ce:1b:48:c0:e1:52:ec:e8:
                    58:2c:84:61:eb:28:52:89:31:1d:f2:92:5c:4c:29:
                    2e:10:aa:82:a1
                Exponent: 65537 (0x10001)
        X509v3 extensions:
            X509v3 Basic Constraints: 
                CA:FALSE
            Netscape Comment: 
                OpenSSL Generated Certificate
            X509v3 Subject Key Identifier: 
                88:00:A4:6A:0C:92:9F:E4:37:EE:18:04:55:24:8E:08:DD:D6:69:E3
            X509v3 Authority Key Identifier: 
                keyid:79:02:16:CF:4A:A4:4B:68:14:15:80:F1:CA:4E:B0:2F:8E:B4:BA:5E

    Signature Algorithm: sha1WithRSAEncryption
         00:a6:8e:21:f3:f2:8d:db:89:18:97:7c:f0:35:6c:44:0d:76:
         d8:26:e0:7e:92:c3:a6:20:5d:f9:7d:db:a1:90:e4:d8:e2:40:
         b4:aa:a4:78:db:4f:91:a5:a6:a3:f7:b9:3a:4f:d5:59:02:55:
         e1:94:cd:34:96:88:c1:7d:39:97:61:0a:78:08:06:8b:6f:a6:
         db:62:c4:36:16:d8:20:da:88:a0:5c:2c:a7:d0:80:a4:35:19:
         21:7f:32:8b:ff:fc:99:33:f1:5d:8f:fa:9e:e1:2d:e5:a1:bd:
         6d:39:fc:dc:e1:33:05:e6:53:4c:23:b4:78:2a:bd:c5:64:b2:
         bb:ca:21:51:80:43:2e:0a:03:58:71:5d:a2:48:13:a8:e4:18:
         a1:cf:7e:e5:22:f5:40:e8:4a:27:7c:ea:f6:c1:e0:c6:28:69:
         67:86:a5:30:2a:30:b1:e9:7d:92:d3:99:c1:b1:f2:cc:78:0e:
         a5:74:d9:5d:16:db:07:30:95:c6:e3:8d:09:f1:b9:45:a6:98:
         61:3a:99:22:7b:8e:93:f0:32:79:56:08:41:f9:d5:ed:69:ec:
         50:c6:20:3b:24:6c:84:4d:5d:e2:f2:70:b3:56:47:bb:67:35:
         5b:4b:f1:cc:97:9c:25:88:5c:0b:a6:dc:9c:7c:0b:3d:0c:c3:
         54:aa:27:f5
-----BEGIN CERTIFICATE-----
MIIDEDCCAfigAwIBAgIBDzANBgkqhkiG9w0BAQUFADBxMQswCQYDVQQGEwJDTjEQ
MA4GA1UECAwHQkVJSklORzEMMAoGA1UECgwDUEtVMRYwFAYDVQQLDA1NaWNyb1Nv
ZnR3YXJlMQ4wDAYDVQQDDAVMSUhBTzEaMBgGCSqGSIb3DQEJARYLaUBkaWd2YS5j
b20wHhcNMTMwNTIwMDIxMzEzWhcNMTQwNTIwMDIxMzEzWjBxMQswCQYDVQQGEwJD
TjEQMA4GA1UECAwHQkVJSklORzEMMAoGA1UECgwDUEtVMRYwFAYDVQQLDA1NaWNy
b1NvZnR3YXJlMQ4wDAYDVQQDDAVRV0VSVDEaMBgGCSqGSIb3DQEJARYLUVdFQFFX
RS5jb20wXDANBgkqhkiG9w0BAQEFAANLADBIAkEA9DTPJyrPKyX720U4B2AimRxH
BQ4tGldVXebkUd0DuWNjDLbUzhtIwOFS7OhYLIRh6yhSiTEd8pJcTCkuEKqCoQID
AQABo3sweTAJBgNVHRMEAjAAMCwGCWCGSAGG+EIBDQQfFh1PcGVuU1NMIEdlbmVy
YXRlZCBDZXJ0aWZpY2F0ZTAdBgNVHQ4EFgQUiACkagySn+Q37hgEVSSOCN3WaeMw
HwYDVR0jBBgwFoAUeQIWz0qkS2gUFYDxyk6wL460ul4wDQYJKoZIhvcNAQEFBQAD
ggEBAACmjiHz8o3biRiXfPA1bEQNdtgm4H6Sw6YgXfl926GQ5NjiQLSqpHjbT5Gl
pqP3uTpP1VkCVeGUzTSWiMF9OZdhCngIBotvpttixDYW2CDaiKBcLKfQgKQ1GSF/
Mov//Jkz8V2P+p7hLeWhvW05/NzhMwXmU0wjtHgqvcVksrvKIVGAQy4KA1hxXaJI
E6jkGKHPfuUi9UDoSid86vbB4MYoaWeGpTAqMLHpfZLTmcGx8sx4DqV02V0W2wcw
lcbjjQnxuUWmmGE6mSJ7jpPwMnlWCEH51e1p7FDGIDskbIRNXeLycLNWR7tnNVtL
8cyXnCWIXAum3Jx8Cz0Mw1SqJ/U=
-----END CERTIFICATE-----
