Certificate:
    Data:
        Version: 3 (0x2)
        Serial Number: 16 (0x10)
    Signature Algorithm: sha1WithRSAEncryption
        Issuer: C=CN, ST=BEIJING, O=PKU, OU=MicroSoftware, CN=LIHAO/emailAddress=i@digva.com
        Validity
            Not Before: May 20 02:13:43 2013 GMT
            Not After : May 20 02:13:43 2014 GMT
        Subject: C=CN, ST=BEIJING, O=PKU, OU=MicroSoftware, CN=QWERT/emailAddress=QWE@QWE.com
        Subject Public Key Info:
            Public Key Algorithm: rsaEncryption
                Public-Key: (512 bit)
                Modulus:
                    00:f4:34:cf:27:2a:cf:2b:25:fb:db:45:38:07:60:
                    22:99:1c:47:05:0e:2d:1a:57:55:5d:e6:e4:51:dd:
                    03:b9:63:63:0c:b6:d4:ce:1b:48:c0:e1:52:ec:e8:
                    58:2c:84:61:eb:28:52:89:31:1d:f2:92:5c:4c:29:
                    2e:10:aa:82:a1
                Exponent: 65537 (0x10001)
        X509v3 extensions:
            X509v3 Basic Constraints: 
                CA:FALSE
            Netscape Comment: 
                OpenSSL Generated Certificate
            X509v3 Subject Key Identifier: 
                88:00:A4:6A:0C:92:9F:E4:37:EE:18:04:55:24:8E:08:DD:D6:69:E3
            X509v3 Authority Key Identifier: 
                keyid:79:02:16:CF:4A:A4:4B:68:14:15:80:F1:CA:4E:B0:2F:8E:B4:BA:5E

    Signature Algorithm: sha1WithRSAEncryption
         b1:f0:1d:06:77:48:a2:2e:09:55:03:c8:25:81:b4:68:ae:eb:
         c0:5f:8e:15:d9:49:0c:5a:33:d0:2a:a2:f4:0a:36:52:1a:b3:
         f3:40:6b:11:d3:2b:53:dc:a6:5d:f5:3b:7f:35:a6:04:f8:f8:
         7d:c8:5e:7a:a8:d4:77:64:2d:7d:8e:59:4d:22:fe:d0:03:07:
         ac:3a:21:cf:72:1d:cc:a0:e8:7f:42:c5:61:1a:12:9a:9d:0d:
         b6:42:89:99:98:34:24:2a:73:d0:d8:8b:20:a2:0a:ff:76:3c:
         6c:ff:18:c9:16:ce:1c:04:1a:d1:ad:c6:ff:32:1f:3c:65:f9:
         48:74:06:f7:75:f1:43:9b:c8:7a:61:72:51:3a:96:4e:65:f0:
         78:2c:df:77:62:be:2a:69:7b:d9:01:0e:31:6f:77:cc:08:86:
         cc:0a:24:f9:8f:ee:1c:23:86:ed:ce:c3:e7:bf:60:e8:c2:19:
         e0:ee:1d:e2:46:a0:6c:b0:76:2b:10:8c:f1:8c:0a:b6:fe:da:
         e8:7c:21:09:db:2a:0b:8d:fd:2c:49:d4:91:08:fe:d5:c0:10:
         f5:47:fb:f5:ea:bc:f9:a5:21:a2:13:c1:00:e2:76:bd:90:da:
         b3:e5:84:97:21:b0:a9:d0:64:78:f8:df:d8:67:b9:94:9c:e8:
         de:a5:d7:d2
-----BEGIN CERTIFICATE-----
MIIDEDCCAfigAwIBAgIBEDANBgkqhkiG9w0BAQUFADBxMQswCQYDVQQGEwJDTjEQ
MA4GA1UECAwHQkVJSklORzEMMAoGA1UECgwDUEtVMRYwFAYDVQQLDA1NaWNyb1Nv
ZnR3YXJlMQ4wDAYDVQQDDAVMSUhBTzEaMBgGCSqGSIb3DQEJARYLaUBkaWd2YS5j
b20wHhcNMTMwNTIwMDIxMzQzWhcNMTQwNTIwMDIxMzQzWjBxMQswCQYDVQQGEwJD
TjEQMA4GA1UECAwHQkVJSklORzEMMAoGA1UECgwDUEtVMRYwFAYDVQQLDA1NaWNy
b1NvZnR3YXJlMQ4wDAYDVQQDDAVRV0VSVDEaMBgGCSqGSIb3DQEJARYLUVdFQFFX
RS5jb20wXDANBgkqhkiG9w0BAQEFAANLADBIAkEA9DTPJyrPKyX720U4B2AimRxH
BQ4tGldVXebkUd0DuWNjDLbUzhtIwOFS7OhYLIRh6yhSiTEd8pJcTCkuEKqCoQID
AQABo3sweTAJBgNVHRMEAjAAMCwGCWCGSAGG+EIBDQQfFh1PcGVuU1NMIEdlbmVy
YXRlZCBDZXJ0aWZpY2F0ZTAdBgNVHQ4EFgQUiACkagySn+Q37hgEVSSOCN3WaeMw
HwYDVR0jBBgwFoAUeQIWz0qkS2gUFYDxyk6wL460ul4wDQYJKoZIhvcNAQEFBQAD
ggEBALHwHQZ3SKIuCVUDyCWBtGiu68BfjhXZSQxaM9AqovQKNlIas/NAaxHTK1Pc
pl31O381pgT4+H3IXnqo1HdkLX2OWU0i/tADB6w6Ic9yHcyg6H9CxWEaEpqdDbZC
iZmYNCQqc9DYiyCiCv92PGz/GMkWzhwEGtGtxv8yHzxl+Uh0Bvd18UObyHphclE6
lk5l8Hgs33divippe9kBDjFvd8wIhswKJPmP7hwjhu3Ow+e/YOjCGeDuHeJGoGyw
disQjPGMCrb+2uh8IQnbKguN/SxJ1JEI/tXAEPVH+/XqvPmlIaITwQDidr2Q2rPl
hJchsKnQZHj439hnuZSc6N6l19I=
-----END CERTIFICATE-----
