Certificate:
    Data:
        Version: 3 (0x2)
        Serial Number: 17 (0x11)
    Signature Algorithm: sha1WithRSAEncryption
        Issuer: C=CN, ST=BEIJING, O=PKU, OU=MicroSoftware, CN=LIHAO/emailAddress=i@digva.com
        Validity
            Not Before: May 20 02:22:31 2013 GMT
            Not After : May 20 02:22:31 2014 GMT
        Subject: C=CN, ST=BEIJING, O=PKU, OU=MicroSoftware, CN=QWERT/emailAddress=QWE@QWE.com
        Subject Public Key Info:
            Public Key Algorithm: rsaEncryption
                Public-Key: (512 bit)
                Modulus:
                    00:f4:34:cf:27:2a:cf:2b:25:fb:db:45:38:07:60:
                    22:99:1c:47:05:0e:2d:1a:57:55:5d:e6:e4:51:dd:
                    03:b9:63:63:0c:b6:d4:ce:1b:48:c0:e1:52:ec:e8:
                    58:2c:84:61:eb:28:52:89:31:1d:f2:92:5c:4c:29:
                    2e:10:aa:82:a1
                Exponent: 65537 (0x10001)
        X509v3 extensions:
            X509v3 Basic Constraints: 
                CA:FALSE
            Netscape Comment: 
                OpenSSL Generated Certificate
            X509v3 Subject Key Identifier: 
                88:00:A4:6A:0C:92:9F:E4:37:EE:18:04:55:24:8E:08:DD:D6:69:E3
            X509v3 Authority Key Identifier: 
                keyid:79:02:16:CF:4A:A4:4B:68:14:15:80:F1:CA:4E:B0:2F:8E:B4:BA:5E

    Signature Algorithm: sha1WithRSAEncryption
         6e:9d:37:f0:b2:54:b1:dd:58:61:09:e1:a3:ab:19:35:62:dc:
         5e:2a:e7:e7:04:2b:0c:50:70:14:0d:13:29:ad:cd:06:a8:d8:
         2a:86:5b:0f:a6:5c:ff:a9:09:d8:1c:ac:ce:4b:cc:f1:80:75:
         b1:29:9f:71:47:1c:bf:d2:f0:d7:4a:09:f4:d8:c1:46:52:8c:
         80:9d:1c:ff:52:ff:4e:10:90:61:8e:9a:61:ed:22:98:67:c8:
         08:35:64:35:cb:c8:2b:ab:32:05:8a:1f:25:a0:61:9d:df:eb:
         eb:2c:38:a4:0d:ea:df:28:e4:ac:f6:44:26:ab:8d:f3:ff:20:
         45:25:c9:19:73:45:bd:a6:9d:35:ea:e6:a7:3c:cd:32:b9:61:
         fa:29:23:41:5e:5b:77:87:e8:4b:22:15:a0:bb:55:d8:83:12:
         48:4c:d9:44:83:7f:98:58:3f:3e:eb:c2:79:8a:af:79:66:b6:
         c3:7f:ca:2b:b7:76:5f:8b:cd:d4:06:ff:3f:12:ab:bf:e8:2a:
         ec:61:4e:1b:a4:1b:71:7a:51:60:ef:3b:bb:63:6b:dc:b0:d2:
         c6:7b:19:0c:dc:4b:bb:78:5a:96:da:aa:92:9f:39:53:2f:64:
         87:a3:0f:a7:c0:d9:37:12:4f:21:10:50:16:29:15:4b:f7:c2:
         4e:6d:c1:2a
-----BEGIN CERTIFICATE-----
MIIDEDCCAfigAwIBAgIBETANBgkqhkiG9w0BAQUFADBxMQswCQYDVQQGEwJDTjEQ
MA4GA1UECAwHQkVJSklORzEMMAoGA1UECgwDUEtVMRYwFAYDVQQLDA1NaWNyb1Nv
ZnR3YXJlMQ4wDAYDVQQDDAVMSUhBTzEaMBgGCSqGSIb3DQEJARYLaUBkaWd2YS5j
b20wHhcNMTMwNTIwMDIyMjMxWhcNMTQwNTIwMDIyMjMxWjBxMQswCQYDVQQGEwJD
TjEQMA4GA1UECAwHQkVJSklORzEMMAoGA1UECgwDUEtVMRYwFAYDVQQLDA1NaWNy
b1NvZnR3YXJlMQ4wDAYDVQQDDAVRV0VSVDEaMBgGCSqGSIb3DQEJARYLUVdFQFFX
RS5jb20wXDANBgkqhkiG9w0BAQEFAANLADBIAkEA9DTPJyrPKyX720U4B2AimRxH
BQ4tGldVXebkUd0DuWNjDLbUzhtIwOFS7OhYLIRh6yhSiTEd8pJcTCkuEKqCoQID
AQABo3sweTAJBgNVHRMEAjAAMCwGCWCGSAGG+EIBDQQfFh1PcGVuU1NMIEdlbmVy
YXRlZCBDZXJ0aWZpY2F0ZTAdBgNVHQ4EFgQUiACkagySn+Q37hgEVSSOCN3WaeMw
HwYDVR0jBBgwFoAUeQIWz0qkS2gUFYDxyk6wL460ul4wDQYJKoZIhvcNAQEFBQAD
ggEBAG6dN/CyVLHdWGEJ4aOrGTVi3F4q5+cEKwxQcBQNEymtzQao2CqGWw+mXP+p
CdgcrM5LzPGAdbEpn3FHHL/S8NdKCfTYwUZSjICdHP9S/04QkGGOmmHtIphnyAg1
ZDXLyCurMgWKHyWgYZ3f6+ssOKQN6t8o5Kz2RCarjfP/IEUlyRlzRb2mnTXq5qc8
zTK5YfopI0FeW3eH6EsiFaC7VdiDEkhM2USDf5hYPz7rwnmKr3lmtsN/yiu3dl+L
zdQG/z8Sq7/oKuxhThukG3F6UWDvO7tja9yw0sZ7GQzcS7t4WpbaqpKfOVMvZIej
D6fA2TcSTyEQUBYpFUv3wk5twSo=
-----END CERTIFICATE-----
