Certificate:
    Data:
        Version: 3 (0x2)
        Serial Number: 18 (0x12)
    Signature Algorithm: sha1WithRSAEncryption
        Issuer: C=CN, ST=BEIJING, O=PKU, OU=MicroSoftware, CN=LIHAO/emailAddress=i@digva.com
        Validity
            Not Before: May 20 02:23:36 2013 GMT
            Not After : May 20 02:23:36 2014 GMT
        Subject: C=CN, ST=BEIJING, O=PKU, OU=MicroSoftware, CN=QWERT/emailAddress=QWE@QWE.com
        Subject Public Key Info:
            Public Key Algorithm: rsaEncryption
                Public-Key: (512 bit)
                Modulus:
                    00:f4:34:cf:27:2a:cf:2b:25:fb:db:45:38:07:60:
                    22:99:1c:47:05:0e:2d:1a:57:55:5d:e6:e4:51:dd:
                    03:b9:63:63:0c:b6:d4:ce:1b:48:c0:e1:52:ec:e8:
                    58:2c:84:61:eb:28:52:89:31:1d:f2:92:5c:4c:29:
                    2e:10:aa:82:a1
                Exponent: 65537 (0x10001)
        X509v3 extensions:
            X509v3 Basic Constraints: 
                CA:FALSE
            Netscape Comment: 
                OpenSSL Generated Certificate
            X509v3 Subject Key Identifier: 
                88:00:A4:6A:0C:92:9F:E4:37:EE:18:04:55:24:8E:08:DD:D6:69:E3
            X509v3 Authority Key Identifier: 
                keyid:79:02:16:CF:4A:A4:4B:68:14:15:80:F1:CA:4E:B0:2F:8E:B4:BA:5E

    Signature Algorithm: sha1WithRSAEncryption
         32:68:01:80:96:c1:ee:dc:ff:86:96:f0:f7:9f:77:b2:b7:b4:
         d5:40:f2:4d:32:37:fd:75:80:2e:78:22:59:5a:6b:4a:95:26:
         33:09:87:00:dc:8b:e2:b7:bb:d7:a4:aa:b6:fa:95:ff:d1:01:
         25:9d:d1:c5:12:29:b6:59:14:79:9b:7b:e7:7e:78:05:af:08:
         8d:43:70:f3:85:0b:06:56:4a:07:f6:18:1b:d3:e0:10:f1:db:
         2c:1f:e9:d6:49:d7:06:de:16:05:03:04:39:f8:9d:61:73:5d:
         b5:91:6b:b0:39:a4:6f:b3:a1:67:e5:d8:1b:9d:c9:94:36:93:
         67:e5:e8:a7:37:1c:2b:49:0a:b9:f1:c8:19:b9:f6:81:03:f9:
         de:a7:57:d8:09:22:4e:d4:1d:d7:8c:01:28:a8:20:82:79:cf:
         d0:9d:f9:c4:14:71:1f:73:df:76:a2:62:11:6e:2a:f0:f6:24:
         f8:06:ad:ed:2a:73:c4:a2:5c:8b:b2:eb:a6:6b:fb:57:20:71:
         61:d3:f4:39:b4:78:9c:bd:3d:2f:75:99:14:15:46:01:1e:31:
         d9:5f:d3:11:31:0b:a2:fc:77:9c:bc:3f:3a:d1:ab:a9:0d:fa:
         27:af:02:57:4c:47:ae:46:2e:66:7d:d8:75:54:d4:cc:ae:41:
         e8:a4:9e:8c
-----BEGIN CERTIFICATE-----
MIIDEDCCAfigAwIBAgIBEjANBgkqhkiG9w0BAQUFADBxMQswCQYDVQQGEwJDTjEQ
MA4GA1UECAwHQkVJSklORzEMMAoGA1UECgwDUEtVMRYwFAYDVQQLDA1NaWNyb1Nv
ZnR3YXJlMQ4wDAYDVQQDDAVMSUhBTzEaMBgGCSqGSIb3DQEJARYLaUBkaWd2YS5j
b20wHhcNMTMwNTIwMDIyMzM2WhcNMTQwNTIwMDIyMzM2WjBxMQswCQYDVQQGEwJD
TjEQMA4GA1UECAwHQkVJSklORzEMMAoGA1UECgwDUEtVMRYwFAYDVQQLDA1NaWNy
b1NvZnR3YXJlMQ4wDAYDVQQDDAVRV0VSVDEaMBgGCSqGSIb3DQEJARYLUVdFQFFX
RS5jb20wXDANBgkqhkiG9w0BAQEFAANLADBIAkEA9DTPJyrPKyX720U4B2AimRxH
BQ4tGldVXebkUd0DuWNjDLbUzhtIwOFS7OhYLIRh6yhSiTEd8pJcTCkuEKqCoQID
AQABo3sweTAJBgNVHRMEAjAAMCwGCWCGSAGG+EIBDQQfFh1PcGVuU1NMIEdlbmVy
YXRlZCBDZXJ0aWZpY2F0ZTAdBgNVHQ4EFgQUiACkagySn+Q37hgEVSSOCN3WaeMw
HwYDVR0jBBgwFoAUeQIWz0qkS2gUFYDxyk6wL460ul4wDQYJKoZIhvcNAQEFBQAD
ggEBADJoAYCWwe7c/4aW8Pefd7K3tNVA8k0yN/11gC54Illaa0qVJjMJhwDci+K3
u9ekqrb6lf/RASWd0cUSKbZZFHmbe+d+eAWvCI1DcPOFCwZWSgf2GBvT4BDx2ywf
6dZJ1wbeFgUDBDn4nWFzXbWRa7A5pG+zoWfl2BudyZQ2k2fl6Kc3HCtJCrnxyBm5
9oED+d6nV9gJIk7UHdeMASioIIJ5z9Cd+cQUcR9z33aiYhFuKvD2JPgGre0qc8Si
XIuy66Zr+1cgcWHT9Dm0eJy9PS91mRQVRgEeMdlf0xExC6L8d5y8PzrRq6kN+iev
AldMR65GLmZ92HVU1MyuQeiknow=
-----END CERTIFICATE-----
