Certificate:
    Data:
        Version: 3 (0x2)
        Serial Number: 20 (0x14)
    Signature Algorithm: sha1WithRSAEncryption
        Issuer: C=CN, ST=BEIJING, O=PKU, OU=MicroSoftware, CN=LIHAO/emailAddress=i@digva.com
        Validity
            Not Before: May 20 02:49:26 2013 GMT
            Not After : May 20 02:49:26 2014 GMT
        Subject: C=CN, ST=BEIJING, O=PKU, OU=MicroSoftware, CN=QWERT/emailAddress=QWE@QWE.com
        Subject Public Key Info:
            Public Key Algorithm: rsaEncryption
                Public-Key: (512 bit)
                Modulus:
                    00:f4:34:cf:27:2a:cf:2b:25:fb:db:45:38:07:60:
                    22:99:1c:47:05:0e:2d:1a:57:55:5d:e6:e4:51:dd:
                    03:b9:63:63:0c:b6:d4:ce:1b:48:c0:e1:52:ec:e8:
                    58:2c:84:61:eb:28:52:89:31:1d:f2:92:5c:4c:29:
                    2e:10:aa:82:a1
                Exponent: 65537 (0x10001)
        X509v3 extensions:
            X509v3 Basic Constraints: 
                CA:FALSE
            Netscape Comment: 
                OpenSSL Generated Certificate
            X509v3 Subject Key Identifier: 
                88:00:A4:6A:0C:92:9F:E4:37:EE:18:04:55:24:8E:08:DD:D6:69:E3
            X509v3 Authority Key Identifier: 
                keyid:79:02:16:CF:4A:A4:4B:68:14:15:80:F1:CA:4E:B0:2F:8E:B4:BA:5E

    Signature Algorithm: sha1WithRSAEncryption
         80:eb:b6:49:bc:c5:e3:1c:c1:0c:af:42:df:8a:54:0a:03:0b:
         9b:0b:b7:79:87:1e:e5:b1:21:08:b9:c2:e9:b9:72:96:f7:7e:
         df:6a:d9:3e:da:ea:08:3b:a8:25:8e:e6:33:3b:b6:b6:d9:22:
         e5:f0:cc:06:9e:f7:75:83:ec:ce:2c:56:1f:5c:eb:26:b6:b7:
         cc:cd:ca:3f:08:a4:98:a0:6c:41:80:8e:e4:14:9c:dc:f4:8c:
         ad:e3:5b:ab:4f:1b:af:a6:93:05:75:39:f7:87:e4:ac:d1:05:
         70:24:cd:04:1b:83:cd:5c:f6:ce:e8:11:87:56:83:21:c9:4d:
         ae:fc:59:aa:19:89:84:e7:7c:1f:cb:b7:3b:16:0d:eb:03:63:
         b6:db:fe:30:f9:24:fd:8a:4d:90:2a:c6:e8:c8:55:32:d1:0e:
         64:8d:24:3a:20:0c:dc:40:53:83:e0:e9:fb:54:93:a3:f6:4e:
         06:b5:87:0a:4b:ba:ae:48:44:c9:ed:6f:fe:f1:e1:d1:e2:d0:
         98:8c:22:e7:d4:f5:7c:14:7b:26:4e:c9:be:50:d3:e6:f1:09:
         10:91:53:fc:a3:c8:f8:5a:d8:6f:3c:1a:e9:9e:e9:d9:50:67:
         a5:49:c9:2d:b5:d6:8f:f6:b5:8c:e1:6c:97:e8:d4:0e:3b:d0:
         9f:c1:01:19
-----BEGIN CERTIFICATE-----
MIIDEDCCAfigAwIBAgIBFDANBgkqhkiG9w0BAQUFADBxMQswCQYDVQQGEwJDTjEQ
MA4GA1UECAwHQkVJSklORzEMMAoGA1UECgwDUEtVMRYwFAYDVQQLDA1NaWNyb1Nv
ZnR3YXJlMQ4wDAYDVQQDDAVMSUhBTzEaMBgGCSqGSIb3DQEJARYLaUBkaWd2YS5j
b20wHhcNMTMwNTIwMDI0OTI2WhcNMTQwNTIwMDI0OTI2WjBxMQswCQYDVQQGEwJD
TjEQMA4GA1UECAwHQkVJSklORzEMMAoGA1UECgwDUEtVMRYwFAYDVQQLDA1NaWNy
b1NvZnR3YXJlMQ4wDAYDVQQDDAVRV0VSVDEaMBgGCSqGSIb3DQEJARYLUVdFQFFX
RS5jb20wXDANBgkqhkiG9w0BAQEFAANLADBIAkEA9DTPJyrPKyX720U4B2AimRxH
BQ4tGldVXebkUd0DuWNjDLbUzhtIwOFS7OhYLIRh6yhSiTEd8pJcTCkuEKqCoQID
AQABo3sweTAJBgNVHRMEAjAAMCwGCWCGSAGG+EIBDQQfFh1PcGVuU1NMIEdlbmVy
YXRlZCBDZXJ0aWZpY2F0ZTAdBgNVHQ4EFgQUiACkagySn+Q37hgEVSSOCN3WaeMw
HwYDVR0jBBgwFoAUeQIWz0qkS2gUFYDxyk6wL460ul4wDQYJKoZIhvcNAQEFBQAD
ggEBAIDrtkm8xeMcwQyvQt+KVAoDC5sLt3mHHuWxIQi5wum5cpb3ft9q2T7a6gg7
qCWO5jM7trbZIuXwzAae93WD7M4sVh9c6ya2t8zNyj8IpJigbEGAjuQUnNz0jK3j
W6tPG6+mkwV1OfeH5KzRBXAkzQQbg81c9s7oEYdWgyHJTa78WaoZiYTnfB/LtzsW
DesDY7bb/jD5JP2KTZAqxujIVTLRDmSNJDogDNxAU4Pg6ftUk6P2Tga1hwpLuq5I
RMntb/7x4dHi0JiMIufU9XwUeyZOyb5Q0+bxCRCRU/yjyPha2G88Gume6dlQZ6VJ
yS211o/2tYzhbJfo1A470J/BARk=
-----END CERTIFICATE-----
