Certificate:
    Data:
        Version: 3 (0x2)
        Serial Number: 21 (0x15)
    Signature Algorithm: sha1WithRSAEncryption
        Issuer: C=CN, ST=BEIJING, O=PKU, OU=MicroSoftware, CN=LIHAO/emailAddress=i@digva.com
        Validity
            Not Before: May 20 02:50:07 2013 GMT
            Not After : May 20 02:50:07 2014 GMT
        Subject: C=CN, ST=BEIJING, O=PKU, OU=MicroSoftware, CN=QWERT/emailAddress=QWE@QWE.com
        Subject Public Key Info:
            Public Key Algorithm: rsaEncryption
                Public-Key: (512 bit)
                Modulus:
                    00:f4:34:cf:27:2a:cf:2b:25:fb:db:45:38:07:60:
                    22:99:1c:47:05:0e:2d:1a:57:55:5d:e6:e4:51:dd:
                    03:b9:63:63:0c:b6:d4:ce:1b:48:c0:e1:52:ec:e8:
                    58:2c:84:61:eb:28:52:89:31:1d:f2:92:5c:4c:29:
                    2e:10:aa:82:a1
                Exponent: 65537 (0x10001)
        X509v3 extensions:
            X509v3 Basic Constraints: 
                CA:FALSE
            Netscape Comment: 
                OpenSSL Generated Certificate
            X509v3 Subject Key Identifier: 
                88:00:A4:6A:0C:92:9F:E4:37:EE:18:04:55:24:8E:08:DD:D6:69:E3
            X509v3 Authority Key Identifier: 
                keyid:79:02:16:CF:4A:A4:4B:68:14:15:80:F1:CA:4E:B0:2F:8E:B4:BA:5E

    Signature Algorithm: sha1WithRSAEncryption
         a6:28:3e:9c:44:ee:6c:9c:47:d0:a2:55:39:1a:ed:f2:be:d5:
         7c:08:ea:66:0a:36:03:9c:3c:a7:d6:96:06:6e:30:61:e8:6c:
         36:b7:70:89:b7:f7:2c:54:04:0d:c6:f2:b6:f6:67:f4:96:65:
         1d:e1:b4:e5:fc:cd:41:2c:2e:c9:30:6c:0a:9c:5d:95:7c:18:
         a0:90:91:34:81:d3:34:ca:3a:75:ee:2c:4f:7d:b1:46:64:86:
         51:b1:92:20:2a:68:9e:92:ca:a4:47:e5:be:ae:d4:4e:fd:89:
         9e:ce:fd:16:b5:f1:fa:c6:43:ab:26:24:a4:5d:5a:49:8e:15:
         99:98:e3:b7:30:62:68:b7:88:30:ec:9c:ed:08:c7:a7:ca:8f:
         df:33:9c:2d:10:f5:96:ed:77:7e:d8:ae:cf:02:fa:c5:1c:97:
         53:51:ec:79:3a:30:7b:f2:12:26:02:f0:ab:8c:73:fa:d6:9b:
         4b:51:fe:60:31:20:99:f5:78:50:30:63:65:80:b5:dd:25:3f:
         b3:b3:db:07:6b:fb:56:4e:a6:eb:10:2c:e5:61:b4:b1:ee:d2:
         ca:46:34:07:24:ad:25:5a:af:90:bf:8c:19:78:11:d5:52:84:
         c2:a9:1b:7f:b5:2e:96:4a:1d:a7:61:fc:3d:57:69:f8:e4:f2:
         11:dc:29:83
-----BEGIN CERTIFICATE-----
MIIDEDCCAfigAwIBAgIBFTANBgkqhkiG9w0BAQUFADBxMQswCQYDVQQGEwJDTjEQ
MA4GA1UECAwHQkVJSklORzEMMAoGA1UECgwDUEtVMRYwFAYDVQQLDA1NaWNyb1Nv
ZnR3YXJlMQ4wDAYDVQQDDAVMSUhBTzEaMBgGCSqGSIb3DQEJARYLaUBkaWd2YS5j
b20wHhcNMTMwNTIwMDI1MDA3WhcNMTQwNTIwMDI1MDA3WjBxMQswCQYDVQQGEwJD
TjEQMA4GA1UECAwHQkVJSklORzEMMAoGA1UECgwDUEtVMRYwFAYDVQQLDA1NaWNy
b1NvZnR3YXJlMQ4wDAYDVQQDDAVRV0VSVDEaMBgGCSqGSIb3DQEJARYLUVdFQFFX
RS5jb20wXDANBgkqhkiG9w0BAQEFAANLADBIAkEA9DTPJyrPKyX720U4B2AimRxH
BQ4tGldVXebkUd0DuWNjDLbUzhtIwOFS7OhYLIRh6yhSiTEd8pJcTCkuEKqCoQID
AQABo3sweTAJBgNVHRMEAjAAMCwGCWCGSAGG+EIBDQQfFh1PcGVuU1NMIEdlbmVy
YXRlZCBDZXJ0aWZpY2F0ZTAdBgNVHQ4EFgQUiACkagySn+Q37hgEVSSOCN3WaeMw
HwYDVR0jBBgwFoAUeQIWz0qkS2gUFYDxyk6wL460ul4wDQYJKoZIhvcNAQEFBQAD
ggEBAKYoPpxE7mycR9CiVTka7fK+1XwI6mYKNgOcPKfWlgZuMGHobDa3cIm39yxU
BA3G8rb2Z/SWZR3htOX8zUEsLskwbAqcXZV8GKCQkTSB0zTKOnXuLE99sUZkhlGx
kiAqaJ6SyqRH5b6u1E79iZ7O/Ra18frGQ6smJKRdWkmOFZmY47cwYmi3iDDsnO0I
x6fKj98znC0Q9Zbtd37Yrs8C+sUcl1NR7Hk6MHvyEiYC8KuMc/rWm0tR/mAxIJn1
eFAwY2WAtd0lP7Oz2wdr+1ZOpusQLOVhtLHu0spGNAckrSVar5C/jBl4EdVShMKp
G3+1LpZKHadh/D1Xafjk8hHcKYM=
-----END CERTIFICATE-----
