Certificate:
    Data:
        Version: 3 (0x2)
        Serial Number: 27 (0x1b)
    Signature Algorithm: sha1WithRSAEncryption
        Issuer: C=CN, ST=BEIJING, O=PKU, OU=MicroSoftware, CN=LIHAO/emailAddress=i@digva.com
        Validity
            Not Before: May 20 06:06:30 2013 GMT
            Not After : May 20 06:06:30 2014 GMT
        Subject: C=CN, ST=BEIJING, O=PKU, OU=MicroSoftware, CN=QWERT/emailAddress=QWE@QWE.com
        Subject Public Key Info:
            Public Key Algorithm: rsaEncryption
                Public-Key: (512 bit)
                Modulus:
                    00:f4:34:cf:27:2a:cf:2b:25:fb:db:45:38:07:60:
                    22:99:1c:47:05:0e:2d:1a:57:55:5d:e6:e4:51:dd:
                    03:b9:63:63:0c:b6:d4:ce:1b:48:c0:e1:52:ec:e8:
                    58:2c:84:61:eb:28:52:89:31:1d:f2:92:5c:4c:29:
                    2e:10:aa:82:a1
                Exponent: 65537 (0x10001)
        X509v3 extensions:
            X509v3 Basic Constraints: 
                CA:FALSE
            Netscape Comment: 
                OpenSSL Generated Certificate
            X509v3 Subject Key Identifier: 
                88:00:A4:6A:0C:92:9F:E4:37:EE:18:04:55:24:8E:08:DD:D6:69:E3
            X509v3 Authority Key Identifier: 
                keyid:79:02:16:CF:4A:A4:4B:68:14:15:80:F1:CA:4E:B0:2F:8E:B4:BA:5E

    Signature Algorithm: sha1WithRSAEncryption
         04:83:c0:dc:5c:95:ab:f7:57:35:b5:a8:eb:3f:d8:79:0c:1c:
         02:e2:22:75:98:77:1b:05:77:48:cc:0f:da:5f:75:9f:37:fe:
         8c:bf:f6:37:53:a7:9e:ec:1f:19:18:37:b8:ef:41:ff:09:30:
         72:25:bf:5d:38:ea:01:5d:6a:70:91:50:77:bf:bc:f4:74:e6:
         f5:a7:a9:13:46:58:60:96:36:94:e8:1d:3d:d9:7f:b6:09:6b:
         99:8b:e5:dd:39:aa:ed:aa:4d:ac:0e:2d:64:5c:fa:cb:39:c5:
         65:e3:6b:48:24:ef:cc:17:47:49:55:6e:52:b0:f9:e3:09:63:
         e6:60:f1:48:36:0a:6c:0d:61:f5:95:ee:f1:c7:22:5d:ae:33:
         8b:02:d9:e4:b3:8e:05:37:bc:cf:1d:f0:32:e8:98:c2:df:29:
         9a:a0:01:d7:51:65:6a:91:9f:6f:5c:cc:d9:76:5c:22:f5:30:
         7d:af:59:27:30:37:d2:05:66:47:cc:40:f5:b7:f1:e8:70:c2:
         00:6f:c3:9b:31:d1:30:f2:e0:c9:df:c0:38:e6:30:d4:6b:e6:
         16:17:99:9f:7c:8d:c9:d7:21:fb:66:d8:81:30:a2:dd:71:b7:
         6b:75:cd:67:c1:bd:f8:ca:8b:e6:2d:df:03:94:d4:c4:b8:b4:
         4e:9e:b5:28
-----BEGIN CERTIFICATE-----
MIIDEDCCAfigAwIBAgIBGzANBgkqhkiG9w0BAQUFADBxMQswCQYDVQQGEwJDTjEQ
MA4GA1UECAwHQkVJSklORzEMMAoGA1UECgwDUEtVMRYwFAYDVQQLDA1NaWNyb1Nv
ZnR3YXJlMQ4wDAYDVQQDDAVMSUhBTzEaMBgGCSqGSIb3DQEJARYLaUBkaWd2YS5j
b20wHhcNMTMwNTIwMDYwNjMwWhcNMTQwNTIwMDYwNjMwWjBxMQswCQYDVQQGEwJD
TjEQMA4GA1UECAwHQkVJSklORzEMMAoGA1UECgwDUEtVMRYwFAYDVQQLDA1NaWNy
b1NvZnR3YXJlMQ4wDAYDVQQDDAVRV0VSVDEaMBgGCSqGSIb3DQEJARYLUVdFQFFX
RS5jb20wXDANBgkqhkiG9w0BAQEFAANLADBIAkEA9DTPJyrPKyX720U4B2AimRxH
BQ4tGldVXebkUd0DuWNjDLbUzhtIwOFS7OhYLIRh6yhSiTEd8pJcTCkuEKqCoQID
AQABo3sweTAJBgNVHRMEAjAAMCwGCWCGSAGG+EIBDQQfFh1PcGVuU1NMIEdlbmVy
YXRlZCBDZXJ0aWZpY2F0ZTAdBgNVHQ4EFgQUiACkagySn+Q37hgEVSSOCN3WaeMw
HwYDVR0jBBgwFoAUeQIWz0qkS2gUFYDxyk6wL460ul4wDQYJKoZIhvcNAQEFBQAD
ggEBAASDwNxclav3VzW1qOs/2HkMHALiInWYdxsFd0jMD9pfdZ83/oy/9jdTp57s
HxkYN7jvQf8JMHIlv1046gFdanCRUHe/vPR05vWnqRNGWGCWNpToHT3Zf7YJa5mL
5d05qu2qTawOLWRc+ss5xWXja0gk78wXR0lVblKw+eMJY+Zg8Ug2CmwNYfWV7vHH
Il2uM4sC2eSzjgU3vM8d8DLomMLfKZqgAddRZWqRn29czNl2XCL1MH2vWScwN9IF
ZkfMQPW38ehwwgBvw5sx0TDy4MnfwDjmMNRr5hYXmZ98jcnXIftm2IEwot1xt2t1
zWfBvfjKi+Yt3wOU1MS4tE6etSg=
-----END CERTIFICATE-----
