Certificate:
    Data:
        Version: 3 (0x2)
        Serial Number: 28 (0x1c)
    Signature Algorithm: sha1WithRSAEncryption
        Issuer: C=CN, ST=BEIJING, O=PKU, OU=MicroSoftware, CN=LIHAO/emailAddress=i@digva.com
        Validity
            Not Before: May 20 06:17:44 2013 GMT
            Not After : May 20 06:17:44 2014 GMT
        Subject: C=CN, ST=BEIJING, O=PKU, OU=MicroSoftware, CN=QWERT/emailAddress=QWE@QWE.com
        Subject Public Key Info:
            Public Key Algorithm: rsaEncryption
                Public-Key: (512 bit)
                Modulus:
                    00:f4:34:cf:27:2a:cf:2b:25:fb:db:45:38:07:60:
                    22:99:1c:47:05:0e:2d:1a:57:55:5d:e6:e4:51:dd:
                    03:b9:63:63:0c:b6:d4:ce:1b:48:c0:e1:52:ec:e8:
                    58:2c:84:61:eb:28:52:89:31:1d:f2:92:5c:4c:29:
                    2e:10:aa:82:a1
                Exponent: 65537 (0x10001)
        X509v3 extensions:
            X509v3 Basic Constraints: 
                CA:FALSE
            Netscape Comment: 
                OpenSSL Generated Certificate
            X509v3 Subject Key Identifier: 
                88:00:A4:6A:0C:92:9F:E4:37:EE:18:04:55:24:8E:08:DD:D6:69:E3
            X509v3 Authority Key Identifier: 
                keyid:79:02:16:CF:4A:A4:4B:68:14:15:80:F1:CA:4E:B0:2F:8E:B4:BA:5E

    Signature Algorithm: sha1WithRSAEncryption
         43:ef:3c:eb:ef:2b:a1:3b:01:35:24:97:64:66:7e:e1:4a:a1:
         0e:5a:e4:33:41:51:76:53:7b:ba:69:8f:d2:05:b0:fb:4e:78:
         16:a9:74:5f:cc:a6:86:32:fd:6a:4c:bd:8a:bd:38:dd:54:ac:
         5a:af:26:f3:82:07:f5:d1:e3:5b:eb:58:2c:ca:8b:fb:df:35:
         26:62:04:6b:32:04:96:60:b9:9a:7b:da:fc:87:dd:f6:80:87:
         8b:03:4a:85:5d:1b:d6:1a:66:91:4f:76:2b:42:61:b7:e8:77:
         e7:ac:ae:31:44:8f:a9:72:23:b1:5d:98:87:66:af:f9:11:79:
         83:88:6e:e5:f2:82:b5:69:49:37:d6:d1:69:37:00:49:4d:b9:
         8b:4e:8b:fd:89:8c:dc:8d:bb:25:cf:84:6f:4c:82:97:7d:98:
         15:5c:de:c5:bc:2a:12:82:38:52:e0:88:dc:9f:f1:5e:c2:81:
         94:0f:67:48:0d:95:3c:bd:31:69:66:fe:b2:c8:c3:44:9f:e2:
         29:d7:39:6b:f8:10:f8:d4:22:52:10:87:ff:4b:e9:2e:1e:14:
         ea:45:33:38:31:66:e9:b6:77:83:e5:63:33:37:b1:71:d6:fb:
         b1:43:37:8c:23:ef:f3:d0:bf:2f:6c:52:33:69:c1:c3:25:cc:
         2f:6b:5b:03
-----BEGIN CERTIFICATE-----
MIIDEDCCAfigAwIBAgIBHDANBgkqhkiG9w0BAQUFADBxMQswCQYDVQQGEwJDTjEQ
MA4GA1UECAwHQkVJSklORzEMMAoGA1UECgwDUEtVMRYwFAYDVQQLDA1NaWNyb1Nv
ZnR3YXJlMQ4wDAYDVQQDDAVMSUhBTzEaMBgGCSqGSIb3DQEJARYLaUBkaWd2YS5j
b20wHhcNMTMwNTIwMDYxNzQ0WhcNMTQwNTIwMDYxNzQ0WjBxMQswCQYDVQQGEwJD
TjEQMA4GA1UECAwHQkVJSklORzEMMAoGA1UECgwDUEtVMRYwFAYDVQQLDA1NaWNy
b1NvZnR3YXJlMQ4wDAYDVQQDDAVRV0VSVDEaMBgGCSqGSIb3DQEJARYLUVdFQFFX
RS5jb20wXDANBgkqhkiG9w0BAQEFAANLADBIAkEA9DTPJyrPKyX720U4B2AimRxH
BQ4tGldVXebkUd0DuWNjDLbUzhtIwOFS7OhYLIRh6yhSiTEd8pJcTCkuEKqCoQID
AQABo3sweTAJBgNVHRMEAjAAMCwGCWCGSAGG+EIBDQQfFh1PcGVuU1NMIEdlbmVy
YXRlZCBDZXJ0aWZpY2F0ZTAdBgNVHQ4EFgQUiACkagySn+Q37hgEVSSOCN3WaeMw
HwYDVR0jBBgwFoAUeQIWz0qkS2gUFYDxyk6wL460ul4wDQYJKoZIhvcNAQEFBQAD
ggEBAEPvPOvvK6E7ATUkl2RmfuFKoQ5a5DNBUXZTe7ppj9IFsPtOeBapdF/MpoYy
/WpMvYq9ON1UrFqvJvOCB/XR41vrWCzKi/vfNSZiBGsyBJZguZp72vyH3faAh4sD
SoVdG9YaZpFPditCYbfod+esrjFEj6lyI7FdmIdmr/kReYOIbuXygrVpSTfW0Wk3
AElNuYtOi/2JjNyNuyXPhG9Mgpd9mBVc3sW8KhKCOFLgiNyf8V7CgZQPZ0gNlTy9
MWlm/rLIw0Sf4inXOWv4EPjUIlIQh/9L6S4eFOpFMzgxZum2d4PlYzM3sXHW+7FD
N4wj7/PQvy9sUjNpwcMlzC9rWwM=
-----END CERTIFICATE-----
