Certificate:
    Data:
        Version: 3 (0x2)
        Serial Number: 29 (0x1d)
    Signature Algorithm: sha1WithRSAEncryption
        Issuer: C=CN, ST=BEIJING, O=PKU, OU=MicroSoftware, CN=LIHAO/emailAddress=i@digva.com
        Validity
            Not Before: May 20 06:18:50 2013 GMT
            Not After : May 20 06:18:50 2014 GMT
        Subject: C=CN, ST=BEIJING, O=PKU, OU=MicroSoftware, CN=QWERT/emailAddress=QWE@QWE.com
        Subject Public Key Info:
            Public Key Algorithm: rsaEncryption
                Public-Key: (512 bit)
                Modulus:
                    00:f4:34:cf:27:2a:cf:2b:25:fb:db:45:38:07:60:
                    22:99:1c:47:05:0e:2d:1a:57:55:5d:e6:e4:51:dd:
                    03:b9:63:63:0c:b6:d4:ce:1b:48:c0:e1:52:ec:e8:
                    58:2c:84:61:eb:28:52:89:31:1d:f2:92:5c:4c:29:
                    2e:10:aa:82:a1
                Exponent: 65537 (0x10001)
        X509v3 extensions:
            X509v3 Basic Constraints: 
                CA:FALSE
            Netscape Comment: 
                OpenSSL Generated Certificate
            X509v3 Subject Key Identifier: 
                88:00:A4:6A:0C:92:9F:E4:37:EE:18:04:55:24:8E:08:DD:D6:69:E3
            X509v3 Authority Key Identifier: 
                keyid:79:02:16:CF:4A:A4:4B:68:14:15:80:F1:CA:4E:B0:2F:8E:B4:BA:5E

    Signature Algorithm: sha1WithRSAEncryption
         08:95:93:a4:74:f7:e1:75:b7:de:20:98:09:9e:48:6d:76:1b:
         e5:86:7a:bc:ed:65:6e:f5:28:3a:cc:38:0c:a2:f9:d6:bf:7e:
         e7:0e:69:69:8c:f7:e2:cd:35:6e:3b:b6:1b:22:b2:7f:17:ec:
         4f:3a:ec:02:0d:ba:87:5e:df:24:27:1b:36:90:12:23:c9:68:
         2a:8b:19:34:dc:1f:68:12:ba:96:8a:60:23:e1:18:6b:f8:5e:
         e7:fa:56:77:97:8e:e1:01:a9:22:53:db:86:c5:02:37:c6:af:
         67:51:56:cb:dc:59:de:37:70:1c:87:96:2c:b1:f8:58:a0:f4:
         5a:86:db:ff:30:6e:e7:4a:20:70:44:8d:98:bd:99:6e:4e:68:
         08:a8:06:8d:1d:0c:c8:5f:cf:2d:19:4f:cf:95:7e:58:76:4d:
         22:93:28:84:a6:ec:20:50:c4:44:6a:31:a2:a7:4a:b2:89:e9:
         29:6d:47:ea:f2:92:20:3e:54:81:9f:c8:c3:8f:57:b2:2e:82:
         a7:dc:25:31:fd:32:c7:96:68:3b:33:89:9e:8a:15:85:56:2b:
         ff:b8:e2:35:a3:97:01:a0:59:75:14:c2:61:41:00:66:43:fc:
         cc:65:8a:85:72:d7:ae:88:79:62:f6:47:45:7a:1e:18:88:a1:
         56:01:a6:96
-----BEGIN CERTIFICATE-----
MIIDEDCCAfigAwIBAgIBHTANBgkqhkiG9w0BAQUFADBxMQswCQYDVQQGEwJDTjEQ
MA4GA1UECAwHQkVJSklORzEMMAoGA1UECgwDUEtVMRYwFAYDVQQLDA1NaWNyb1Nv
ZnR3YXJlMQ4wDAYDVQQDDAVMSUhBTzEaMBgGCSqGSIb3DQEJARYLaUBkaWd2YS5j
b20wHhcNMTMwNTIwMDYxODUwWhcNMTQwNTIwMDYxODUwWjBxMQswCQYDVQQGEwJD
TjEQMA4GA1UECAwHQkVJSklORzEMMAoGA1UECgwDUEtVMRYwFAYDVQQLDA1NaWNy
b1NvZnR3YXJlMQ4wDAYDVQQDDAVRV0VSVDEaMBgGCSqGSIb3DQEJARYLUVdFQFFX
RS5jb20wXDANBgkqhkiG9w0BAQEFAANLADBIAkEA9DTPJyrPKyX720U4B2AimRxH
BQ4tGldVXebkUd0DuWNjDLbUzhtIwOFS7OhYLIRh6yhSiTEd8pJcTCkuEKqCoQID
AQABo3sweTAJBgNVHRMEAjAAMCwGCWCGSAGG+EIBDQQfFh1PcGVuU1NMIEdlbmVy
YXRlZCBDZXJ0aWZpY2F0ZTAdBgNVHQ4EFgQUiACkagySn+Q37hgEVSSOCN3WaeMw
HwYDVR0jBBgwFoAUeQIWz0qkS2gUFYDxyk6wL460ul4wDQYJKoZIhvcNAQEFBQAD
ggEBAAiVk6R09+F1t94gmAmeSG12G+WGerztZW71KDrMOAyi+da/fucOaWmM9+LN
NW47thsisn8X7E867AINuode3yQnGzaQEiPJaCqLGTTcH2gSupaKYCPhGGv4Xuf6
VneXjuEBqSJT24bFAjfGr2dRVsvcWd43cByHliyx+Fig9FqG2/8wbudKIHBEjZi9
mW5OaAioBo0dDMhfzy0ZT8+Vflh2TSKTKISm7CBQxERqMaKnSrKJ6SltR+rykiA+
VIGfyMOPV7IugqfcJTH9MseWaDsziZ6KFYVWK/+44jWjlwGgWXUUwmFBAGZD/Mxl
ioVy166IeWL2R0V6HhiIoVYBppY=
-----END CERTIFICATE-----
