Certificate:
    Data:
        Version: 3 (0x2)
        Serial Number: 30 (0x1e)
    Signature Algorithm: sha1WithRSAEncryption
        Issuer: C=CN, ST=BEIJING, O=PKU, OU=MicroSoftware, CN=LIHAO/emailAddress=i@digva.com
        Validity
            Not Before: May 20 06:19:29 2013 GMT
            Not After : May 20 06:19:29 2014 GMT
        Subject: C=CN, ST=BEIJING, O=PKU, OU=MicroSoftware, CN=QWERT/emailAddress=QWE@QWE.com
        Subject Public Key Info:
            Public Key Algorithm: rsaEncryption
                Public-Key: (512 bit)
                Modulus:
                    00:f4:34:cf:27:2a:cf:2b:25:fb:db:45:38:07:60:
                    22:99:1c:47:05:0e:2d:1a:57:55:5d:e6:e4:51:dd:
                    03:b9:63:63:0c:b6:d4:ce:1b:48:c0:e1:52:ec:e8:
                    58:2c:84:61:eb:28:52:89:31:1d:f2:92:5c:4c:29:
                    2e:10:aa:82:a1
                Exponent: 65537 (0x10001)
        X509v3 extensions:
            X509v3 Basic Constraints: 
                CA:FALSE
            Netscape Comment: 
                OpenSSL Generated Certificate
            X509v3 Subject Key Identifier: 
                88:00:A4:6A:0C:92:9F:E4:37:EE:18:04:55:24:8E:08:DD:D6:69:E3
            X509v3 Authority Key Identifier: 
                keyid:79:02:16:CF:4A:A4:4B:68:14:15:80:F1:CA:4E:B0:2F:8E:B4:BA:5E

    Signature Algorithm: sha1WithRSAEncryption
         8f:f0:96:e7:e4:9b:b0:9e:c1:89:1a:68:70:d7:9e:88:9d:82:
         6c:aa:75:01:a1:87:2a:23:32:90:4d:50:d2:69:58:ac:8b:c4:
         4c:3e:09:f2:98:9b:64:d3:26:0f:70:c3:86:17:04:58:2a:0c:
         85:c8:83:78:3f:a8:7e:fb:3f:ba:16:df:94:94:3a:8b:2b:92:
         87:34:64:30:f5:d6:34:a6:6c:f4:e9:da:1a:c6:2f:be:5d:b1:
         68:d0:c6:02:85:92:34:e4:49:4b:05:ea:bc:d3:8b:6e:a8:88:
         44:9f:f6:81:a4:80:05:fc:ea:cd:6d:17:9f:55:2c:08:e9:72:
         4a:2f:d3:6e:37:ba:32:52:23:1c:c1:75:c8:d4:8c:60:db:7e:
         70:6b:04:55:07:51:23:d3:7a:a7:44:de:68:45:21:af:73:19:
         fb:f3:a6:ef:3d:08:b4:d4:b5:69:8d:e3:33:2b:d1:71:a8:6d:
         48:65:d4:b8:16:a0:f5:27:eb:9a:26:46:9f:6f:cc:ce:9d:85:
         9a:aa:7a:59:e4:1d:85:ec:58:93:da:ef:e9:9d:92:6d:5a:6d:
         be:5c:98:45:3a:d0:7f:2d:4c:84:7c:81:bb:9a:99:2c:5a:78:
         67:0c:ad:4e:e6:ff:69:08:3c:a8:f9:af:f8:30:5b:e4:a3:63:
         f6:f4:74:34
-----BEGIN CERTIFICATE-----
MIIDEDCCAfigAwIBAgIBHjANBgkqhkiG9w0BAQUFADBxMQswCQYDVQQGEwJDTjEQ
MA4GA1UECAwHQkVJSklORzEMMAoGA1UECgwDUEtVMRYwFAYDVQQLDA1NaWNyb1Nv
ZnR3YXJlMQ4wDAYDVQQDDAVMSUhBTzEaMBgGCSqGSIb3DQEJARYLaUBkaWd2YS5j
b20wHhcNMTMwNTIwMDYxOTI5WhcNMTQwNTIwMDYxOTI5WjBxMQswCQYDVQQGEwJD
TjEQMA4GA1UECAwHQkVJSklORzEMMAoGA1UECgwDUEtVMRYwFAYDVQQLDA1NaWNy
b1NvZnR3YXJlMQ4wDAYDVQQDDAVRV0VSVDEaMBgGCSqGSIb3DQEJARYLUVdFQFFX
RS5jb20wXDANBgkqhkiG9w0BAQEFAANLADBIAkEA9DTPJyrPKyX720U4B2AimRxH
BQ4tGldVXebkUd0DuWNjDLbUzhtIwOFS7OhYLIRh6yhSiTEd8pJcTCkuEKqCoQID
AQABo3sweTAJBgNVHRMEAjAAMCwGCWCGSAGG+EIBDQQfFh1PcGVuU1NMIEdlbmVy
YXRlZCBDZXJ0aWZpY2F0ZTAdBgNVHQ4EFgQUiACkagySn+Q37hgEVSSOCN3WaeMw
HwYDVR0jBBgwFoAUeQIWz0qkS2gUFYDxyk6wL460ul4wDQYJKoZIhvcNAQEFBQAD
ggEBAI/wlufkm7CewYkaaHDXnoidgmyqdQGhhyojMpBNUNJpWKyLxEw+CfKYm2TT
Jg9ww4YXBFgqDIXIg3g/qH77P7oW35SUOosrkoc0ZDD11jSmbPTp2hrGL75dsWjQ
xgKFkjTkSUsF6rzTi26oiESf9oGkgAX86s1tF59VLAjpckov0243ujJSIxzBdcjU
jGDbfnBrBFUHUSPTeqdE3mhFIa9zGfvzpu89CLTUtWmN4zMr0XGobUhl1LgWoPUn
65omRp9vzM6dhZqqelnkHYXsWJPa7+mdkm1abb5cmEU60H8tTIR8gbuamSxaeGcM
rU7m/2kIPKj5r/gwW+SjY/b0dDQ=
-----END CERTIFICATE-----
