Certificate:
    Data:
        Version: 3 (0x2)
        Serial Number: 33 (0x21)
    Signature Algorithm: sha1WithRSAEncryption
        Issuer: C=CN, ST=BEIJING, O=PKU, OU=MicroSoftware, CN=LIHAO/emailAddress=i@digva.com
        Validity
            Not Before: May 20 08:38:51 2013 GMT
            Not After : May 20 08:38:51 2014 GMT
        Subject: C=CN, ST=BJ, L=BJ, O=PKU, OU=SS, CN=PKCS#10 Test/emailAddress=zhangyong@qq.com
        Subject Public Key Info:
            Public Key Algorithm: rsaEncryption
                Public-Key: (2048 bit)
                Modulus:
                    00:91:16:76:f1:bd:cb:a6:51:aa:3c:6c:05:e7:d4:
                    88:96:29:9e:1f:d8:1a:08:9e:b7:a6:f3:91:f3:a3:
                    db:2c:78:84:39:02:4a:e2:bf:5b:af:8e:3a:c6:68:
                    2e:d1:4f:6b:27:e3:40:8d:76:bd:c8:70:32:ba:23:
                    37:b1:12:17:65:18:0d:2a:a7:1e:17:e9:78:94:99:
                    fe:5a:88:bb:a1:43:56:e2:3e:60:dc:d5:b3:03:3f:
                    e6:12:7a:a3:1b:50:c7:7a:c3:d4:c3:a7:ef:2f:d3:
                    22:62:e4:2b:7e:1d:5c:da:e6:8d:f0:c0:79:1a:56:
                    bf:8e:b1:2d:b2:69:78:d3:f7:6e:cd:f4:d8:fd:1b:
                    de:9c:61:9b:16:c0:75:2c:f4:36:af:ef:a2:a6:c5:
                    08:a6:04:ed:3c:65:e2:0c:39:8e:85:cf:33:bd:8b:
                    e6:17:99:de:db:7e:d3:0d:f5:5e:da:d4:36:ed:1b:
                    ea:28:73:e7:53:18:0a:d3:bf:6b:ae:31:0c:0e:17:
                    72:95:64:ab:2d:30:f9:7b:16:bd:5b:b5:48:1b:6a:
                    82:ce:48:cf:07:54:6a:71:bd:ba:f6:47:ea:9b:12:
                    e9:a5:52:10:4e:32:de:71:6a:11:d5:7f:1b:9a:84:
                    85:7b:4a:38:61:5d:c8:72:fb:71:d2:93:d7:8e:9d:
                    3e:5d
                Exponent: 65537 (0x10001)
        X509v3 extensions:
            X509v3 Basic Constraints: 
                CA:FALSE
            Netscape Comment: 
                OpenSSL Generated Certificate
            X509v3 Subject Key Identifier: 
                84:86:CD:F4:5D:2C:82:5F:C4:DA:14:6C:19:AD:83:0E:E6:86:2B:6A
            X509v3 Authority Key Identifier: 
                keyid:79:02:16:CF:4A:A4:4B:68:14:15:80:F1:CA:4E:B0:2F:8E:B4:BA:5E

    Signature Algorithm: sha1WithRSAEncryption
         2c:5a:c9:1f:b0:90:8c:13:18:14:71:6b:11:31:88:bd:bc:f6:
         5f:70:30:73:f6:4e:4d:40:95:f8:cf:fb:01:88:d5:9b:5e:e3:
         a9:14:11:c0:bd:ea:9c:3f:75:ae:a0:57:98:02:ab:24:20:99:
         50:ce:59:5e:1a:a1:e5:e9:a0:27:fa:e3:30:30:51:0f:7c:9a:
         7f:17:be:4d:af:99:d5:0b:79:a3:c7:3d:93:30:17:1b:bc:8d:
         b4:a7:13:19:86:86:a0:16:c0:20:9d:53:38:60:4f:a3:a4:ad:
         c3:64:fb:63:a3:aa:4c:8b:d9:27:83:3f:39:00:2a:32:c6:55:
         5e:6b:e8:c0:13:70:b1:ad:20:ba:5c:fa:c7:a4:47:ed:18:59:
         53:df:38:ff:bb:ad:d6:29:68:87:06:d9:2e:14:43:ca:ba:11:
         09:ce:aa:36:5f:7b:db:0e:ac:69:1f:be:ef:eb:ba:d3:03:41:
         31:1f:98:1e:f0:dc:25:95:3f:e3:62:c0:03:87:97:52:ff:38:
         c9:c8:47:d5:a6:6e:eb:81:a4:fc:f4:49:bd:0c:a4:86:58:ba:
         60:b7:a2:c5:bf:45:c2:f6:64:33:c0:20:ae:72:8f:37:a5:86:
         3b:95:67:76:ec:3e:98:24:f2:5d:e7:ef:aa:15:93:a8:af:33:
         cb:bf:67:70
-----BEGIN CERTIFICATE-----
MIID4TCCAsmgAwIBAgIBITANBgkqhkiG9w0BAQUFADBxMQswCQYDVQQGEwJDTjEQ
MA4GA1UECAwHQkVJSklORzEMMAoGA1UECgwDUEtVMRYwFAYDVQQLDA1NaWNyb1Nv
ZnR3YXJlMQ4wDAYDVQQDDAVMSUhBTzEaMBgGCSqGSIb3DQEJARYLaUBkaWd2YS5j
b20wHhcNMTMwNTIwMDgzODUxWhcNMTQwNTIwMDgzODUxWjB6MQswCQYDVQQGEwJD
TjELMAkGA1UECBMCQkoxCzAJBgNVBAcTAkJKMQwwCgYDVQQKEwNQS1UxCzAJBgNV
BAsTAlNTMRUwEwYDVQQDDAxQS0NTIzEwIFRlc3QxHzAdBgkqhkiG9w0BCQEWEHpo
YW5neW9uZ0BxcS5jb20wggEiMA0GCSqGSIb3DQEBAQUAA4IBDwAwggEKAoIBAQCR
FnbxvcumUao8bAXn1IiWKZ4f2BoInrem85Hzo9sseIQ5Akriv1uvjjrGaC7RT2sn
40CNdr3IcDK6IzexEhdlGA0qpx4X6XiUmf5aiLuhQ1biPmDc1bMDP+YSeqMbUMd6
w9TDp+8v0yJi5Ct+HVza5o3wwHkaVr+OsS2yaXjT927N9Nj9G96cYZsWwHUs9Dav
76KmxQimBO08ZeIMOY6FzzO9i+YXmd7bftMN9V7a1DbtG+ooc+dTGArTv2uuMQwO
F3KVZKstMPl7Fr1btUgbaoLOSM8HVGpxvbr2R+qbEumlUhBOMt5xahHVfxuahIV7
SjhhXchy+3HSk9eOnT5dAgMBAAGjezB5MAkGA1UdEwQCMAAwLAYJYIZIAYb4QgEN
BB8WHU9wZW5TU0wgR2VuZXJhdGVkIENlcnRpZmljYXRlMB0GA1UdDgQWBBSEhs30
XSyCX8TaFGwZrYMO5oYrajAfBgNVHSMEGDAWgBR5AhbPSqRLaBQVgPHKTrAvjrS6
XjANBgkqhkiG9w0BAQUFAAOCAQEALFrJH7CQjBMYFHFrETGIvbz2X3Awc/ZOTUCV
+M/7AYjVm17jqRQRwL3qnD91rqBXmAKrJCCZUM5ZXhqh5emgJ/rjMDBRD3yafxe+
Ta+Z1Qt5o8c9kzAXG7yNtKcTGYaGoBbAIJ1TOGBPo6Stw2T7Y6OqTIvZJ4M/OQAq
MsZVXmvowBNwsa0gulz6x6RH7RhZU984/7ut1ilohwbZLhRDyroRCc6qNl972w6s
aR++7+u60wNBMR+YHvDcJZU/42LAA4eXUv84ychH1aZu64Gk/PRJvQykhli6YLei
xb9FwvZkM8AgrnKPN6WGO5Vnduw+mCTyXefvqhWTqK8zy79ncA==
-----END CERTIFICATE-----
