Certificate:
    Data:
        Version: 3 (0x2)
        Serial Number: 36 (0x24)
    Signature Algorithm: sha1WithRSAEncryption
        Issuer: C=CN, ST=BEIJING, O=PKU, OU=MicroSoftware, CN=LIHAO/emailAddress=i@digva.com
        Validity
            Not Before: May 21 06:20:03 2013 GMT
            Not After : May 21 06:20:03 2014 GMT
        Subject: C=CN, ST=BEIJING, O=PKU, OU=MicroSoftware, CN=QWERT/emailAddress=QWE@QWE.com
        Subject Public Key Info:
            Public Key Algorithm: rsaEncryption
                Public-Key: (512 bit)
                Modulus:
                    00:f4:34:cf:27:2a:cf:2b:25:fb:db:45:38:07:60:
                    22:99:1c:47:05:0e:2d:1a:57:55:5d:e6:e4:51:dd:
                    03:b9:63:63:0c:b6:d4:ce:1b:48:c0:e1:52:ec:e8:
                    58:2c:84:61:eb:28:52:89:31:1d:f2:92:5c:4c:29:
                    2e:10:aa:82:a1
                Exponent: 65537 (0x10001)
        X509v3 extensions:
            X509v3 Basic Constraints: 
                CA:FALSE
            Netscape Comment: 
                OpenSSL Generated Certificate
            X509v3 Subject Key Identifier: 
                88:00:A4:6A:0C:92:9F:E4:37:EE:18:04:55:24:8E:08:DD:D6:69:E3
            X509v3 Authority Key Identifier: 
                keyid:79:02:16:CF:4A:A4:4B:68:14:15:80:F1:CA:4E:B0:2F:8E:B4:BA:5E

    Signature Algorithm: sha1WithRSAEncryption
         81:18:d0:c6:54:35:70:ff:20:47:84:76:ae:c2:e7:aa:b1:16:
         11:19:87:18:86:8f:6a:4c:12:1b:71:4a:09:a5:07:77:62:53:
         3c:83:10:33:ba:80:63:6c:c9:5a:b9:09:88:5e:b8:c9:7c:7d:
         7b:ba:1a:f3:aa:09:bb:a4:a9:cb:32:f7:c6:4c:32:ad:fa:0b:
         43:f6:c7:3c:ca:89:21:d0:d8:a2:59:4a:db:09:a4:0d:51:76:
         34:df:5f:49:65:51:ca:11:1a:98:5b:a3:04:c9:03:a9:0b:b2:
         98:fe:ae:a2:94:d0:f9:01:08:64:0a:b2:e1:b7:ab:4d:eb:3f:
         ce:dd:2e:1d:14:34:13:ba:5b:6b:b4:e2:19:7a:1e:0b:e2:ba:
         49:de:30:bf:45:ba:cd:cf:10:61:56:3e:b3:61:c6:5f:15:3f:
         48:9a:58:bb:3a:38:7a:34:42:c0:cd:e2:32:65:f7:4e:fa:03:
         8d:2e:71:bc:08:c3:89:21:11:bd:a8:97:8b:f5:ec:83:d6:11:
         5f:28:e1:4c:f0:99:50:d1:19:61:b2:a6:42:06:7d:2e:cf:e2:
         fa:e3:4a:47:c8:69:11:95:95:da:83:af:8d:a6:9e:64:da:17:
         fa:63:b3:ab:22:72:e5:f6:f4:de:73:37:c2:03:5a:96:f2:83:
         0c:dc:2b:99
-----BEGIN CERTIFICATE-----
MIIDEDCCAfigAwIBAgIBJDANBgkqhkiG9w0BAQUFADBxMQswCQYDVQQGEwJDTjEQ
MA4GA1UECAwHQkVJSklORzEMMAoGA1UECgwDUEtVMRYwFAYDVQQLDA1NaWNyb1Nv
ZnR3YXJlMQ4wDAYDVQQDDAVMSUhBTzEaMBgGCSqGSIb3DQEJARYLaUBkaWd2YS5j
b20wHhcNMTMwNTIxMDYyMDAzWhcNMTQwNTIxMDYyMDAzWjBxMQswCQYDVQQGEwJD
TjEQMA4GA1UECAwHQkVJSklORzEMMAoGA1UECgwDUEtVMRYwFAYDVQQLDA1NaWNy
b1NvZnR3YXJlMQ4wDAYDVQQDDAVRV0VSVDEaMBgGCSqGSIb3DQEJARYLUVdFQFFX
RS5jb20wXDANBgkqhkiG9w0BAQEFAANLADBIAkEA9DTPJyrPKyX720U4B2AimRxH
BQ4tGldVXebkUd0DuWNjDLbUzhtIwOFS7OhYLIRh6yhSiTEd8pJcTCkuEKqCoQID
AQABo3sweTAJBgNVHRMEAjAAMCwGCWCGSAGG+EIBDQQfFh1PcGVuU1NMIEdlbmVy
YXRlZCBDZXJ0aWZpY2F0ZTAdBgNVHQ4EFgQUiACkagySn+Q37hgEVSSOCN3WaeMw
HwYDVR0jBBgwFoAUeQIWz0qkS2gUFYDxyk6wL460ul4wDQYJKoZIhvcNAQEFBQAD
ggEBAIEY0MZUNXD/IEeEdq7C56qxFhEZhxiGj2pMEhtxSgmlB3diUzyDEDO6gGNs
yVq5CYheuMl8fXu6GvOqCbukqcsy98ZMMq36C0P2xzzKiSHQ2KJZStsJpA1RdjTf
X0llUcoRGphbowTJA6kLspj+rqKU0PkBCGQKsuG3q03rP87dLh0UNBO6W2u04hl6
HgviukneML9Fus3PEGFWPrNhxl8VP0iaWLs6OHo0QsDN4jJl9076A40ucbwIw4kh
Eb2ol4v17IPWEV8o4UzwmVDRGWGypkIGfS7P4vrjSkfIaRGVldqDr42mnmTaF/pj
s6sicuX29N5zN8IDWpbygwzcK5k=
-----END CERTIFICATE-----
