Certificate:
    Data:
        Version: 3 (0x2)
        Serial Number: 37 (0x25)
    Signature Algorithm: sha1WithRSAEncryption
        Issuer: C=CN, ST=BEIJING, O=PKU, OU=MicroSoftware, CN=LIHAO/emailAddress=i@digva.com
        Validity
            Not Before: May 21 06:57:27 2013 GMT
            Not After : May 21 06:57:27 2014 GMT
        Subject: C=CN, ST=BEIJING, O=PKU, OU=MicroSoftware, CN=QWERT/emailAddress=QWE@QWE.com
        Subject Public Key Info:
            Public Key Algorithm: rsaEncryption
                Public-Key: (512 bit)
                Modulus:
                    00:f4:34:cf:27:2a:cf:2b:25:fb:db:45:38:07:60:
                    22:99:1c:47:05:0e:2d:1a:57:55:5d:e6:e4:51:dd:
                    03:b9:63:63:0c:b6:d4:ce:1b:48:c0:e1:52:ec:e8:
                    58:2c:84:61:eb:28:52:89:31:1d:f2:92:5c:4c:29:
                    2e:10:aa:82:a1
                Exponent: 65537 (0x10001)
        X509v3 extensions:
            X509v3 Basic Constraints: 
                CA:FALSE
            Netscape Comment: 
                OpenSSL Generated Certificate
            X509v3 Subject Key Identifier: 
                88:00:A4:6A:0C:92:9F:E4:37:EE:18:04:55:24:8E:08:DD:D6:69:E3
            X509v3 Authority Key Identifier: 
                keyid:79:02:16:CF:4A:A4:4B:68:14:15:80:F1:CA:4E:B0:2F:8E:B4:BA:5E

    Signature Algorithm: sha1WithRSAEncryption
         96:3b:03:08:17:00:72:81:e9:c8:59:da:24:aa:60:94:9c:92:
         1f:05:18:21:91:7c:32:96:81:ce:d5:1e:f0:ae:d9:a5:61:d8:
         07:09:8a:1d:22:ed:9d:c8:ac:95:91:bc:b0:c1:c5:7c:de:87:
         7b:57:55:13:e8:2d:09:24:98:af:57:89:ca:5b:a9:e5:f2:4a:
         66:b4:e1:c1:13:9d:b1:15:f7:a2:61:88:8e:55:fb:cb:50:11:
         d6:c2:1a:b6:04:88:e1:0e:cb:94:54:10:db:3a:59:37:14:3c:
         f1:1a:da:21:46:54:7d:bb:0c:b3:d6:b2:f5:25:be:0d:7c:e1:
         b4:66:db:f8:a8:4f:87:54:a9:84:ba:64:f1:94:11:cd:a1:bd:
         0e:4f:17:3f:e6:38:53:18:21:05:d5:a6:8b:f7:c9:d1:5c:d9:
         d1:cb:05:4f:44:ef:63:cc:5e:1f:26:3b:25:82:0f:96:ba:cf:
         d4:92:0c:f7:a3:e2:07:0a:72:ea:f4:f3:dd:d3:93:e1:db:a0:
         73:5d:95:2f:59:73:fe:f6:b3:32:57:80:5f:c3:4d:49:f6:f5:
         af:3e:c7:f6:a1:1c:78:ac:11:ea:1f:59:48:e2:6d:44:69:e3:
         77:ea:a3:06:1c:3a:56:9f:ab:51:24:9a:77:a5:5c:b1:1c:12:
         fa:85:d3:b4
-----BEGIN CERTIFICATE-----
MIIDEDCCAfigAwIBAgIBJTANBgkqhkiG9w0BAQUFADBxMQswCQYDVQQGEwJDTjEQ
MA4GA1UECAwHQkVJSklORzEMMAoGA1UECgwDUEtVMRYwFAYDVQQLDA1NaWNyb1Nv
ZnR3YXJlMQ4wDAYDVQQDDAVMSUhBTzEaMBgGCSqGSIb3DQEJARYLaUBkaWd2YS5j
b20wHhcNMTMwNTIxMDY1NzI3WhcNMTQwNTIxMDY1NzI3WjBxMQswCQYDVQQGEwJD
TjEQMA4GA1UECAwHQkVJSklORzEMMAoGA1UECgwDUEtVMRYwFAYDVQQLDA1NaWNy
b1NvZnR3YXJlMQ4wDAYDVQQDDAVRV0VSVDEaMBgGCSqGSIb3DQEJARYLUVdFQFFX
RS5jb20wXDANBgkqhkiG9w0BAQEFAANLADBIAkEA9DTPJyrPKyX720U4B2AimRxH
BQ4tGldVXebkUd0DuWNjDLbUzhtIwOFS7OhYLIRh6yhSiTEd8pJcTCkuEKqCoQID
AQABo3sweTAJBgNVHRMEAjAAMCwGCWCGSAGG+EIBDQQfFh1PcGVuU1NMIEdlbmVy
YXRlZCBDZXJ0aWZpY2F0ZTAdBgNVHQ4EFgQUiACkagySn+Q37hgEVSSOCN3WaeMw
HwYDVR0jBBgwFoAUeQIWz0qkS2gUFYDxyk6wL460ul4wDQYJKoZIhvcNAQEFBQAD
ggEBAJY7AwgXAHKB6chZ2iSqYJSckh8FGCGRfDKWgc7VHvCu2aVh2AcJih0i7Z3I
rJWRvLDBxXzeh3tXVRPoLQkkmK9XicpbqeXySma04cETnbEV96JhiI5V+8tQEdbC
GrYEiOEOy5RUENs6WTcUPPEa2iFGVH27DLPWsvUlvg184bRm2/ioT4dUqYS6ZPGU
Ec2hvQ5PFz/mOFMYIQXVpov3ydFc2dHLBU9E72PMXh8mOyWCD5a6z9SSDPej4gcK
cur0893Tk+HboHNdlS9Zc/72szJXgF/DTUn29a8+x/ahHHisEeofWUjibURp43fq
owYcOlafq1EkmnelXLEcEvqF07Q=
-----END CERTIFICATE-----
