Certificate:
    Data:
        Version: 3 (0x2)
        Serial Number: 38 (0x26)
    Signature Algorithm: sha1WithRSAEncryption
        Issuer: C=CN, ST=BEIJING, O=PKU, OU=MicroSoftware, CN=LIHAO/emailAddress=i@digva.com
        Validity
            Not Before: May 22 08:10:54 2013 GMT
            Not After : May 22 08:10:54 2014 GMT
        Subject: C=CN, ST=BJ, L=BJ, O=PKU, OU=SS, CN=PKCS#10 Test/emailAddress=zhangyong@qq.com
        Subject Public Key Info:
            Public Key Algorithm: rsaEncryption
                Public-Key: (2048 bit)
                Modulus:
                    00:c8:6f:e8:87:bf:fb:51:f6:eb:33:cc:68:4c:1a:
                    e1:22:c6:0c:fd:e2:26:da:d4:0e:7b:b7:12:6b:b0:
                    aa:64:c9:19:e3:79:31:24:03:be:a0:1f:e2:1d:8d:
                    02:1f:97:4f:f2:71:de:e7:6b:d6:2b:01:10:96:10:
                    7f:22:12:eb:5f:42:e2:6a:2c:3e:f4:4f:f0:8f:5e:
                    d7:86:ae:c1:57:64:cc:5d:29:2e:4f:23:7a:4f:c2:
                    20:87:09:e2:24:b3:8a:40:48:3a:ce:bf:cf:d6:8f:
                    2f:e7:6f:34:05:d4:78:f3:c6:01:d1:3c:8f:1c:37:
                    80:0c:36:ce:22:3c:9b:35:5a:1f:93:90:c0:1e:27:
                    2b:64:92:4b:08:21:3e:c8:50:85:a4:e9:73:2a:f9:
                    ac:fd:b6:d8:2f:a6:6c:45:c8:b6:82:48:f5:84:a7:
                    54:81:4d:76:03:dc:d1:db:82:36:ff:02:50:8b:1b:
                    a0:af:9c:fa:66:80:57:4f:25:1c:11:b0:cc:13:f5:
                    0d:e1:82:f0:b0:cb:1c:1e:5c:ee:d9:4a:0c:fb:07:
                    18:38:b8:93:c6:fd:96:60:73:9c:18:d3:b1:ea:a8:
                    73:91:d1:b6:8f:60:8e:5b:fa:b2:32:fb:22:35:3e:
                    3b:61:f2:52:e7:00:c3:01:62:8e:77:6e:ae:0d:0c:
                    1b:4b
                Exponent: 65537 (0x10001)
        X509v3 extensions:
            X509v3 Basic Constraints: 
                CA:FALSE
            Netscape Comment: 
                OpenSSL Generated Certificate
            X509v3 Subject Key Identifier: 
                99:F2:07:F1:B2:F9:8E:46:53:E5:FC:EB:4F:C6:CC:5B:D1:64:38:9C
            X509v3 Authority Key Identifier: 
                keyid:79:02:16:CF:4A:A4:4B:68:14:15:80:F1:CA:4E:B0:2F:8E:B4:BA:5E

    Signature Algorithm: sha1WithRSAEncryption
         09:f5:df:4b:36:81:f1:32:dc:0f:33:db:3b:e8:67:96:0d:63:
         b6:01:b0:b4:60:6d:c4:5e:82:57:ad:55:6f:96:d9:79:ee:d4:
         0b:98:bf:03:cc:2c:29:01:fb:7a:1e:ca:93:7d:ad:42:54:b4:
         00:be:88:e7:05:50:e2:96:93:12:58:e7:73:67:30:2c:7a:b2:
         42:9b:a4:38:f5:76:c3:51:7b:87:cf:ac:5a:20:22:c0:29:69:
         bc:57:b8:eb:51:21:43:c8:82:d9:b8:93:4d:af:7f:89:4b:93:
         20:fb:4c:c6:2d:49:a7:d9:e2:5a:ac:5e:67:4f:8a:7a:ef:76:
         2d:13:1b:d6:a0:58:0a:e3:fc:cf:8c:d4:8c:21:ee:02:a2:ff:
         61:95:77:8b:0f:e3:40:cd:fb:30:6c:54:31:2d:e4:4f:ac:93:
         03:a1:6b:85:f4:3b:b1:3d:b8:4b:37:f9:24:b1:ee:a4:0c:f8:
         da:28:32:82:2c:09:22:d0:ae:87:4a:83:20:37:94:36:f7:e2:
         20:4e:ea:d2:48:45:98:f8:e7:07:9e:db:0d:70:b1:40:b1:a2:
         20:b0:a1:c9:27:ea:cd:3d:d1:30:01:6e:47:3b:95:b2:7c:2e:
         1e:cc:08:73:ef:84:51:c7:90:ff:38:6f:20:5e:e0:c0:ab:44:
         5e:c0:48:50
-----BEGIN CERTIFICATE-----
MIID4TCCAsmgAwIBAgIBJjANBgkqhkiG9w0BAQUFADBxMQswCQYDVQQGEwJDTjEQ
MA4GA1UECAwHQkVJSklORzEMMAoGA1UECgwDUEtVMRYwFAYDVQQLDA1NaWNyb1Nv
ZnR3YXJlMQ4wDAYDVQQDDAVMSUhBTzEaMBgGCSqGSIb3DQEJARYLaUBkaWd2YS5j
b20wHhcNMTMwNTIyMDgxMDU0WhcNMTQwNTIyMDgxMDU0WjB6MQswCQYDVQQGEwJD
TjELMAkGA1UECBMCQkoxCzAJBgNVBAcTAkJKMQwwCgYDVQQKEwNQS1UxCzAJBgNV
BAsTAlNTMRUwEwYDVQQDDAxQS0NTIzEwIFRlc3QxHzAdBgkqhkiG9w0BCQEWEHpo
YW5neW9uZ0BxcS5jb20wggEiMA0GCSqGSIb3DQEBAQUAA4IBDwAwggEKAoIBAQDI
b+iHv/tR9uszzGhMGuEixgz94iba1A57txJrsKpkyRnjeTEkA76gH+IdjQIfl0/y
cd7na9YrARCWEH8iEutfQuJqLD70T/CPXteGrsFXZMxdKS5PI3pPwiCHCeIks4pA
SDrOv8/Wjy/nbzQF1HjzxgHRPI8cN4AMNs4iPJs1Wh+TkMAeJytkkksIIT7IUIWk
6XMq+az9ttgvpmxFyLaCSPWEp1SBTXYD3NHbgjb/AlCLG6CvnPpmgFdPJRwRsMwT
9Q3hgvCwyxweXO7ZSgz7Bxg4uJPG/ZZgc5wY07HqqHOR0baPYI5b+rIy+yI1Pjth
8lLnAMMBYo53bq4NDBtLAgMBAAGjezB5MAkGA1UdEwQCMAAwLAYJYIZIAYb4QgEN
BB8WHU9wZW5TU0wgR2VuZXJhdGVkIENlcnRpZmljYXRlMB0GA1UdDgQWBBSZ8gfx
svmORlPl/OtPxsxb0WQ4nDAfBgNVHSMEGDAWgBR5AhbPSqRLaBQVgPHKTrAvjrS6
XjANBgkqhkiG9w0BAQUFAAOCAQEACfXfSzaB8TLcDzPbO+hnlg1jtgGwtGBtxF6C
V61Vb5bZee7UC5i/A8wsKQH7eh7Kk32tQlS0AL6I5wVQ4paTEljnc2cwLHqyQpuk
OPV2w1F7h8+sWiAiwClpvFe461EhQ8iC2biTTa9/iUuTIPtMxi1Jp9niWqxeZ0+K
eu92LRMb1qBYCuP8z4zUjCHuAqL/YZV3iw/jQM37MGxUMS3kT6yTA6FrhfQ7sT24
Szf5JLHupAz42igygiwJItCuh0qDIDeUNvfiIE7q0khFmPjnB57bDXCxQLGiILCh
ySfqzT3RMAFuRzuVsnwuHswIc++EUceQ/zhvIF7gwKtEXsBIUA==
-----END CERTIFICATE-----
