Certificate:
    Data:
        Version: 3 (0x2)
        Serial Number: 40 (0x28)
    Signature Algorithm: sha1WithRSAEncryption
        Issuer: C=CN, ST=BEIJING, O=PKU, OU=MicroSoftware, CN=LIHAO/emailAddress=i@digva.com
        Validity
            Not Before: May 23 07:14:50 2013 GMT
            Not After : May 23 07:14:50 2014 GMT
        Subject: C=CN, ST=BJ, L=BJ, O=PKU, OU=SS, CN=PKCS#10 Test/emailAddress=zhangyong@qq.com
        Subject Public Key Info:
            Public Key Algorithm: rsaEncryption
                Public-Key: (2048 bit)
                Modulus:
                    00:c8:6f:e8:87:bf:fb:51:f6:eb:33:cc:68:4c:1a:
                    e1:22:c6:0c:fd:e2:26:da:d4:0e:7b:b7:12:6b:b0:
                    aa:64:c9:19:e3:79:31:24:03:be:a0:1f:e2:1d:8d:
                    02:1f:97:4f:f2:71:de:e7:6b:d6:2b:01:10:96:10:
                    7f:22:12:eb:5f:42:e2:6a:2c:3e:f4:4f:f0:8f:5e:
                    d7:86:ae:c1:57:64:cc:5d:29:2e:4f:23:7a:4f:c2:
                    20:87:09:e2:24:b3:8a:40:48:3a:ce:bf:cf:d6:8f:
                    2f:e7:6f:34:05:d4:78:f3:c6:01:d1:3c:8f:1c:37:
                    80:0c:36:ce:22:3c:9b:35:5a:1f:93:90:c0:1e:27:
                    2b:64:92:4b:08:21:3e:c8:50:85:a4:e9:73:2a:f9:
                    ac:fd:b6:d8:2f:a6:6c:45:c8:b6:82:48:f5:84:a7:
                    54:81:4d:76:03:dc:d1:db:82:36:ff:02:50:8b:1b:
                    a0:af:9c:fa:66:80:57:4f:25:1c:11:b0:cc:13:f5:
                    0d:e1:82:f0:b0:cb:1c:1e:5c:ee:d9:4a:0c:fb:07:
                    18:38:b8:93:c6:fd:96:60:73:9c:18:d3:b1:ea:a8:
                    73:91:d1:b6:8f:60:8e:5b:fa:b2:32:fb:22:35:3e:
                    3b:61:f2:52:e7:00:c3:01:62:8e:77:6e:ae:0d:0c:
                    1b:4b
                Exponent: 65537 (0x10001)
        X509v3 extensions:
            X509v3 Basic Constraints: 
                CA:FALSE
            Netscape Comment: 
                OpenSSL Generated Certificate
            X509v3 Subject Key Identifier: 
                99:F2:07:F1:B2:F9:8E:46:53:E5:FC:EB:4F:C6:CC:5B:D1:64:38:9C
            X509v3 Authority Key Identifier: 
                keyid:79:02:16:CF:4A:A4:4B:68:14:15:80:F1:CA:4E:B0:2F:8E:B4:BA:5E

    Signature Algorithm: sha1WithRSAEncryption
         92:61:af:20:2a:6e:0a:59:59:df:1d:d4:9e:95:eb:5b:20:6f:
         df:ea:b6:e3:9f:7c:73:5a:11:50:94:c1:77:77:75:8c:31:67:
         18:1e:f6:59:5e:0b:c2:76:e4:f9:2e:78:bb:0d:32:4f:6a:2f:
         61:b9:d9:21:dc:4f:ca:ca:98:b7:4e:a0:0e:95:2b:87:9e:64:
         17:b6:f6:4b:5e:6a:63:4a:ef:96:47:d6:01:9e:fa:77:0b:24:
         41:17:90:06:f3:bd:4b:77:c7:81:84:1d:5b:9f:72:3c:4b:75:
         19:7e:8f:09:b6:5c:19:30:cd:48:97:af:43:7c:26:6e:a5:2f:
         ce:e9:97:a8:f7:b7:5c:e1:89:4b:87:dd:39:b7:3d:47:75:55:
         5f:d2:d4:fe:b3:b3:46:bc:93:e2:96:ea:3a:50:78:76:38:d7:
         47:93:f2:ac:c1:20:31:8d:ea:c0:91:0e:2f:c7:2a:02:31:01:
         be:fa:dc:0d:ac:a7:9c:0d:be:f1:8b:3e:e1:53:e1:cf:8b:61:
         f3:39:2f:65:3e:3c:f6:93:18:60:5e:49:21:41:14:02:96:4a:
         b2:6d:f0:65:51:c5:03:3b:93:b8:67:86:eb:5a:1d:21:37:a0:
         2e:00:33:ef:09:51:52:71:e0:a8:f8:4d:11:82:d6:0f:5b:b1:
         15:bf:00:69
-----BEGIN CERTIFICATE-----
MIID4TCCAsmgAwIBAgIBKDANBgkqhkiG9w0BAQUFADBxMQswCQYDVQQGEwJDTjEQ
MA4GA1UECAwHQkVJSklORzEMMAoGA1UECgwDUEtVMRYwFAYDVQQLDA1NaWNyb1Nv
ZnR3YXJlMQ4wDAYDVQQDDAVMSUhBTzEaMBgGCSqGSIb3DQEJARYLaUBkaWd2YS5j
b20wHhcNMTMwNTIzMDcxNDUwWhcNMTQwNTIzMDcxNDUwWjB6MQswCQYDVQQGEwJD
TjELMAkGA1UECBMCQkoxCzAJBgNVBAcTAkJKMQwwCgYDVQQKEwNQS1UxCzAJBgNV
BAsTAlNTMRUwEwYDVQQDDAxQS0NTIzEwIFRlc3QxHzAdBgkqhkiG9w0BCQEWEHpo
YW5neW9uZ0BxcS5jb20wggEiMA0GCSqGSIb3DQEBAQUAA4IBDwAwggEKAoIBAQDI
b+iHv/tR9uszzGhMGuEixgz94iba1A57txJrsKpkyRnjeTEkA76gH+IdjQIfl0/y
cd7na9YrARCWEH8iEutfQuJqLD70T/CPXteGrsFXZMxdKS5PI3pPwiCHCeIks4pA
SDrOv8/Wjy/nbzQF1HjzxgHRPI8cN4AMNs4iPJs1Wh+TkMAeJytkkksIIT7IUIWk
6XMq+az9ttgvpmxFyLaCSPWEp1SBTXYD3NHbgjb/AlCLG6CvnPpmgFdPJRwRsMwT
9Q3hgvCwyxweXO7ZSgz7Bxg4uJPG/ZZgc5wY07HqqHOR0baPYI5b+rIy+yI1Pjth
8lLnAMMBYo53bq4NDBtLAgMBAAGjezB5MAkGA1UdEwQCMAAwLAYJYIZIAYb4QgEN
BB8WHU9wZW5TU0wgR2VuZXJhdGVkIENlcnRpZmljYXRlMB0GA1UdDgQWBBSZ8gfx
svmORlPl/OtPxsxb0WQ4nDAfBgNVHSMEGDAWgBR5AhbPSqRLaBQVgPHKTrAvjrS6
XjANBgkqhkiG9w0BAQUFAAOCAQEAkmGvICpuCllZ3x3UnpXrWyBv3+q24598c1oR
UJTBd3d1jDFnGB72WV4Lwnbk+S54uw0yT2ovYbnZIdxPysqYt06gDpUrh55kF7b2
S15qY0rvlkfWAZ76dwskQReQBvO9S3fHgYQdW59yPEt1GX6PCbZcGTDNSJevQ3wm
bqUvzumXqPe3XOGJS4fdObc9R3VVX9LU/rOzRryT4pbqOlB4djjXR5PyrMEgMY3q
wJEOL8cqAjEBvvrcDaynnA2+8Ys+4VPhz4th8zkvZT489pMYYF5JIUEUApZKsm3w
ZVHFAzuTuGeG61odITegLgAz7wlRUnHgqPhNEYLWD1uxFb8AaQ==
-----END CERTIFICATE-----
