Certificate:
    Data:
        Version: 3 (0x2)
        Serial Number: 41 (0x29)
    Signature Algorithm: sha1WithRSAEncryption
        Issuer: C=CN, ST=BEIJING, O=PKU, OU=MicroSoftware, CN=LIHAO/emailAddress=i@digva.com
        Validity
            Not Before: May 23 07:36:17 2013 GMT
            Not After : May 23 07:36:17 2014 GMT
        Subject: C=CN, ST=BJ, L=BJ, O=PKU, OU=SS, CN=XiaoLi/emailAddress=XiaoLi@qq.com
        Subject Public Key Info:
            Public Key Algorithm: rsaEncryption
                Public-Key: (2048 bit)
                Modulus:
                    00:c8:6f:e8:87:bf:fb:51:f6:eb:33:cc:68:4c:1a:
                    e1:22:c6:0c:fd:e2:26:da:d4:0e:7b:b7:12:6b:b0:
                    aa:64:c9:19:e3:79:31:24:03:be:a0:1f:e2:1d:8d:
                    02:1f:97:4f:f2:71:de:e7:6b:d6:2b:01:10:96:10:
                    7f:22:12:eb:5f:42:e2:6a:2c:3e:f4:4f:f0:8f:5e:
                    d7:86:ae:c1:57:64:cc:5d:29:2e:4f:23:7a:4f:c2:
                    20:87:09:e2:24:b3:8a:40:48:3a:ce:bf:cf:d6:8f:
                    2f:e7:6f:34:05:d4:78:f3:c6:01:d1:3c:8f:1c:37:
                    80:0c:36:ce:22:3c:9b:35:5a:1f:93:90:c0:1e:27:
                    2b:64:92:4b:08:21:3e:c8:50:85:a4:e9:73:2a:f9:
                    ac:fd:b6:d8:2f:a6:6c:45:c8:b6:82:48:f5:84:a7:
                    54:81:4d:76:03:dc:d1:db:82:36:ff:02:50:8b:1b:
                    a0:af:9c:fa:66:80:57:4f:25:1c:11:b0:cc:13:f5:
                    0d:e1:82:f0:b0:cb:1c:1e:5c:ee:d9:4a:0c:fb:07:
                    18:38:b8:93:c6:fd:96:60:73:9c:18:d3:b1:ea:a8:
                    73:91:d1:b6:8f:60:8e:5b:fa:b2:32:fb:22:35:3e:
                    3b:61:f2:52:e7:00:c3:01:62:8e:77:6e:ae:0d:0c:
                    1b:4b
                Exponent: 65537 (0x10001)
        X509v3 extensions:
            X509v3 Basic Constraints: 
                CA:FALSE
            Netscape Comment: 
                OpenSSL Generated Certificate
            X509v3 Subject Key Identifier: 
                99:F2:07:F1:B2:F9:8E:46:53:E5:FC:EB:4F:C6:CC:5B:D1:64:38:9C
            X509v3 Authority Key Identifier: 
                keyid:79:02:16:CF:4A:A4:4B:68:14:15:80:F1:CA:4E:B0:2F:8E:B4:BA:5E

    Signature Algorithm: sha1WithRSAEncryption
         53:0f:98:69:e0:2b:8a:80:cf:f6:08:88:5f:8e:68:8f:a0:7f:
         f5:57:c2:1f:ba:ff:27:22:93:d1:a9:52:0a:96:e6:c3:4e:6d:
         06:14:52:33:e9:f8:90:23:df:1d:99:cf:5d:fd:6b:41:87:c0:
         d3:46:59:34:7a:18:e7:03:de:63:96:d2:ca:d3:88:91:2a:e5:
         7a:84:ac:1b:23:ff:75:6d:23:d7:62:78:07:c0:37:6d:8c:63:
         9d:ae:e2:99:65:7a:5f:13:62:ae:da:d6:23:42:82:36:88:96:
         2a:10:ce:c5:dd:a5:30:2d:d8:88:3a:f9:ee:49:63:e2:a1:e5:
         d1:64:25:4c:eb:33:fd:8e:61:d7:ea:51:be:4b:da:a8:2e:7c:
         24:69:b0:24:c6:f1:0c:e8:7e:84:98:b7:85:bb:ca:53:be:b3:
         f7:07:a0:4c:60:15:61:db:3b:be:d1:1b:7b:f3:bf:9c:af:09:
         d9:8a:e7:3f:63:08:3d:1f:4e:fd:85:4b:78:c9:ef:15:b9:ff:
         69:84:13:f3:b7:11:61:71:73:4c:5f:b4:23:5e:04:3e:1f:98:
         ab:97:8c:1d:2e:f6:25:81:9b:0e:01:df:49:fb:5a:4b:14:17:
         5f:f6:55:11:c3:f4:cc:43:db:bd:ae:8d:35:21:e6:51:eb:74:
         a9:00:64:35
-----BEGIN CERTIFICATE-----
MIID2DCCAsCgAwIBAgIBKTANBgkqhkiG9w0BAQUFADBxMQswCQYDVQQGEwJDTjEQ
MA4GA1UECAwHQkVJSklORzEMMAoGA1UECgwDUEtVMRYwFAYDVQQLDA1NaWNyb1Nv
ZnR3YXJlMQ4wDAYDVQQDDAVMSUhBTzEaMBgGCSqGSIb3DQEJARYLaUBkaWd2YS5j
b20wHhcNMTMwNTIzMDczNjE3WhcNMTQwNTIzMDczNjE3WjBxMQswCQYDVQQGEwJD
TjELMAkGA1UECBMCQkoxCzAJBgNVBAcTAkJKMQwwCgYDVQQKEwNQS1UxCzAJBgNV
BAsTAlNTMQ8wDQYDVQQDEwZYaWFvTGkxHDAaBgkqhkiG9w0BCQEWDVhpYW9MaUBx
cS5jb20wggEiMA0GCSqGSIb3DQEBAQUAA4IBDwAwggEKAoIBAQDIb+iHv/tR9usz
zGhMGuEixgz94iba1A57txJrsKpkyRnjeTEkA76gH+IdjQIfl0/ycd7na9YrARCW
EH8iEutfQuJqLD70T/CPXteGrsFXZMxdKS5PI3pPwiCHCeIks4pASDrOv8/Wjy/n
bzQF1HjzxgHRPI8cN4AMNs4iPJs1Wh+TkMAeJytkkksIIT7IUIWk6XMq+az9ttgv
pmxFyLaCSPWEp1SBTXYD3NHbgjb/AlCLG6CvnPpmgFdPJRwRsMwT9Q3hgvCwyxwe
XO7ZSgz7Bxg4uJPG/ZZgc5wY07HqqHOR0baPYI5b+rIy+yI1Pjth8lLnAMMBYo53
bq4NDBtLAgMBAAGjezB5MAkGA1UdEwQCMAAwLAYJYIZIAYb4QgENBB8WHU9wZW5T
U0wgR2VuZXJhdGVkIENlcnRpZmljYXRlMB0GA1UdDgQWBBSZ8gfxsvmORlPl/OtP
xsxb0WQ4nDAfBgNVHSMEGDAWgBR5AhbPSqRLaBQVgPHKTrAvjrS6XjANBgkqhkiG
9w0BAQUFAAOCAQEAUw+YaeArioDP9giIX45oj6B/9VfCH7r/JyKT0alSCpbmw05t
BhRSM+n4kCPfHZnPXf1rQYfA00ZZNHoY5wPeY5bSytOIkSrleoSsGyP/dW0j12J4
B8A3bYxjna7imWV6XxNirtrWI0KCNoiWKhDOxd2lMC3YiDr57klj4qHl0WQlTOsz
/Y5h1+pRvkvaqC58JGmwJMbxDOh+hJi3hbvKU76z9wegTGAVYds7vtEbe/O/nK8J
2YrnP2MIPR9O/YVLeMnvFbn/aYQT87cRYXFzTF+0I14EPh+Yq5eMHS72JYGbDgHf
SftaSxQXX/ZVEcP0zEPbva6NNSHmUet0qQBkNQ==
-----END CERTIFICATE-----
