Certificate:
    Data:
        Version: 3 (0x2)
        Serial Number: 42 (0x2a)
    Signature Algorithm: sha1WithRSAEncryption
        Issuer: C=CN, ST=BEIJING, O=PKU, OU=MicroSoftware, CN=LIHAO/emailAddress=i@digva.com
        Validity
            Not Before: May 23 07:37:33 2013 GMT
            Not After : May 23 07:37:33 2014 GMT
        Subject: C=CN, ST=BJ, L=BJ, O=PKU, OU=SS, CN=LaoWang/emailAddress=LaoWang@qq.com
        Subject Public Key Info:
            Public Key Algorithm: rsaEncryption
                Public-Key: (2048 bit)
                Modulus:
                    00:c8:6f:e8:87:bf:fb:51:f6:eb:33:cc:68:4c:1a:
                    e1:22:c6:0c:fd:e2:26:da:d4:0e:7b:b7:12:6b:b0:
                    aa:64:c9:19:e3:79:31:24:03:be:a0:1f:e2:1d:8d:
                    02:1f:97:4f:f2:71:de:e7:6b:d6:2b:01:10:96:10:
                    7f:22:12:eb:5f:42:e2:6a:2c:3e:f4:4f:f0:8f:5e:
                    d7:86:ae:c1:57:64:cc:5d:29:2e:4f:23:7a:4f:c2:
                    20:87:09:e2:24:b3:8a:40:48:3a:ce:bf:cf:d6:8f:
                    2f:e7:6f:34:05:d4:78:f3:c6:01:d1:3c:8f:1c:37:
                    80:0c:36:ce:22:3c:9b:35:5a:1f:93:90:c0:1e:27:
                    2b:64:92:4b:08:21:3e:c8:50:85:a4:e9:73:2a:f9:
                    ac:fd:b6:d8:2f:a6:6c:45:c8:b6:82:48:f5:84:a7:
                    54:81:4d:76:03:dc:d1:db:82:36:ff:02:50:8b:1b:
                    a0:af:9c:fa:66:80:57:4f:25:1c:11:b0:cc:13:f5:
                    0d:e1:82:f0:b0:cb:1c:1e:5c:ee:d9:4a:0c:fb:07:
                    18:38:b8:93:c6:fd:96:60:73:9c:18:d3:b1:ea:a8:
                    73:91:d1:b6:8f:60:8e:5b:fa:b2:32:fb:22:35:3e:
                    3b:61:f2:52:e7:00:c3:01:62:8e:77:6e:ae:0d:0c:
                    1b:4b
                Exponent: 65537 (0x10001)
        X509v3 extensions:
            X509v3 Basic Constraints: 
                CA:FALSE
            Netscape Comment: 
                OpenSSL Generated Certificate
            X509v3 Subject Key Identifier: 
                99:F2:07:F1:B2:F9:8E:46:53:E5:FC:EB:4F:C6:CC:5B:D1:64:38:9C
            X509v3 Authority Key Identifier: 
                keyid:79:02:16:CF:4A:A4:4B:68:14:15:80:F1:CA:4E:B0:2F:8E:B4:BA:5E

    Signature Algorithm: sha1WithRSAEncryption
         99:1c:d6:cb:3c:0d:4b:f8:c7:36:cd:10:f8:d1:16:22:e3:e5:
         d0:97:d3:a3:16:b6:cc:4f:c2:8c:9d:6e:c1:85:a3:2a:8c:30:
         29:34:62:da:14:85:b5:8a:19:af:03:cd:6d:fd:88:93:7a:0b:
         65:bb:5d:f4:0a:1e:ec:5d:36:55:22:79:74:2f:f1:9c:8f:6e:
         bf:1b:9b:62:c3:6f:c0:f6:c4:09:53:f5:65:11:d3:2f:d5:a8:
         80:4d:63:de:aa:8a:53:5c:7c:58:6a:d3:b3:31:a1:12:b6:aa:
         9a:4f:f2:62:03:44:11:1b:36:a6:e9:22:71:ff:f3:f0:ca:92:
         10:ef:93:29:4e:27:27:75:a8:0b:74:e1:eb:ab:68:3f:ed:32:
         99:c8:1b:17:67:04:69:b3:29:ad:7a:b6:c5:5d:09:3b:ab:a6:
         99:85:24:05:9e:3a:77:e9:41:9c:5f:c9:04:4f:5f:41:c1:a4:
         28:ed:46:43:36:d6:1f:8c:54:45:1c:70:05:f4:86:a6:ec:0a:
         e1:00:8d:7d:f9:fa:a0:fe:83:99:9d:49:be:24:80:ff:b6:f1:
         c1:41:5e:ff:73:b6:96:a8:ba:83:40:35:8a:d3:52:a1:f1:02:
         e5:4b:59:2e:74:f7:2c:aa:b2:93:60:a5:1d:23:39:5d:fe:44:
         f2:53:f5:95
-----BEGIN CERTIFICATE-----
MIID2jCCAsKgAwIBAgIBKjANBgkqhkiG9w0BAQUFADBxMQswCQYDVQQGEwJDTjEQ
MA4GA1UECAwHQkVJSklORzEMMAoGA1UECgwDUEtVMRYwFAYDVQQLDA1NaWNyb1Nv
ZnR3YXJlMQ4wDAYDVQQDDAVMSUhBTzEaMBgGCSqGSIb3DQEJARYLaUBkaWd2YS5j
b20wHhcNMTMwNTIzMDczNzMzWhcNMTQwNTIzMDczNzMzWjBzMQswCQYDVQQGEwJD
TjELMAkGA1UECBMCQkoxCzAJBgNVBAcTAkJKMQwwCgYDVQQKEwNQS1UxCzAJBgNV
BAsTAlNTMRAwDgYDVQQDEwdMYW9XYW5nMR0wGwYJKoZIhvcNAQkBFg5MYW9XYW5n
QHFxLmNvbTCCASIwDQYJKoZIhvcNAQEBBQADggEPADCCAQoCggEBAMhv6Ie/+1H2
6zPMaEwa4SLGDP3iJtrUDnu3EmuwqmTJGeN5MSQDvqAf4h2NAh+XT/Jx3udr1isB
EJYQfyIS619C4mosPvRP8I9e14auwVdkzF0pLk8jek/CIIcJ4iSzikBIOs6/z9aP
L+dvNAXUePPGAdE8jxw3gAw2ziI8mzVaH5OQwB4nK2SSSwghPshQhaTpcyr5rP22
2C+mbEXItoJI9YSnVIFNdgPc0duCNv8CUIsboK+c+maAV08lHBGwzBP1DeGC8LDL
HB5c7tlKDPsHGDi4k8b9lmBznBjTseqoc5HRto9gjlv6sjL7IjU+O2HyUucAwwFi
jndurg0MG0sCAwEAAaN7MHkwCQYDVR0TBAIwADAsBglghkgBhvhCAQ0EHxYdT3Bl
blNTTCBHZW5lcmF0ZWQgQ2VydGlmaWNhdGUwHQYDVR0OBBYEFJnyB/Gy+Y5GU+X8
60/GzFvRZDicMB8GA1UdIwQYMBaAFHkCFs9KpEtoFBWA8cpOsC+OtLpeMA0GCSqG
SIb3DQEBBQUAA4IBAQCZHNbLPA1L+Mc2zRD40RYi4+XQl9OjFrbMT8KMnW7BhaMq
jDApNGLaFIW1ihmvA81t/YiTegtlu130Ch7sXTZVInl0L/Gcj26/G5tiw2/A9sQJ
U/VlEdMv1aiATWPeqopTXHxYatOzMaEStqqaT/JiA0QRGzam6SJx//PwypIQ75Mp
TicndagLdOHrq2g/7TKZyBsXZwRpsymterbFXQk7q6aZhSQFnjp36UGcX8kET19B
waQo7UZDNtYfjFRFHHAF9Iam7ArhAI19+fqg/oOZnUm+JID/tvHBQV7/c7aWqLqD
QDWK01Kh8QLlS1kudPcsqrKTYKUdIzld/kTyU/WV
-----END CERTIFICATE-----
