Certificate:
    Data:
        Version: 3 (0x2)
        Serial Number: 45 (0x2d)
    Signature Algorithm: sha1WithRSAEncryption
        Issuer: C=CN, ST=BEIJING, O=PKU, OU=MicroSoftware, CN=LIHAO/emailAddress=i@digva.com
        Validity
            Not Before: May 23 08:02:07 2013 GMT
            Not After : May 23 08:02:07 2014 GMT
        Subject: C=CN, ST=BJ, L=BJ, O=PKU, OU=SS, CN=LaoWang/emailAddress=LaoWang@qq.com
        Subject Public Key Info:
            Public Key Algorithm: rsaEncryption
                Public-Key: (2048 bit)
                Modulus:
                    00:c8:6f:e8:87:bf:fb:51:f6:eb:33:cc:68:4c:1a:
                    e1:22:c6:0c:fd:e2:26:da:d4:0e:7b:b7:12:6b:b0:
                    aa:64:c9:19:e3:79:31:24:03:be:a0:1f:e2:1d:8d:
                    02:1f:97:4f:f2:71:de:e7:6b:d6:2b:01:10:96:10:
                    7f:22:12:eb:5f:42:e2:6a:2c:3e:f4:4f:f0:8f:5e:
                    d7:86:ae:c1:57:64:cc:5d:29:2e:4f:23:7a:4f:c2:
                    20:87:09:e2:24:b3:8a:40:48:3a:ce:bf:cf:d6:8f:
                    2f:e7:6f:34:05:d4:78:f3:c6:01:d1:3c:8f:1c:37:
                    80:0c:36:ce:22:3c:9b:35:5a:1f:93:90:c0:1e:27:
                    2b:64:92:4b:08:21:3e:c8:50:85:a4:e9:73:2a:f9:
                    ac:fd:b6:d8:2f:a6:6c:45:c8:b6:82:48:f5:84:a7:
                    54:81:4d:76:03:dc:d1:db:82:36:ff:02:50:8b:1b:
                    a0:af:9c:fa:66:80:57:4f:25:1c:11:b0:cc:13:f5:
                    0d:e1:82:f0:b0:cb:1c:1e:5c:ee:d9:4a:0c:fb:07:
                    18:38:b8:93:c6:fd:96:60:73:9c:18:d3:b1:ea:a8:
                    73:91:d1:b6:8f:60:8e:5b:fa:b2:32:fb:22:35:3e:
                    3b:61:f2:52:e7:00:c3:01:62:8e:77:6e:ae:0d:0c:
                    1b:4b
                Exponent: 65537 (0x10001)
        X509v3 extensions:
            X509v3 Basic Constraints: 
                CA:FALSE
            Netscape Comment: 
                OpenSSL Generated Certificate
            X509v3 Subject Key Identifier: 
                99:F2:07:F1:B2:F9:8E:46:53:E5:FC:EB:4F:C6:CC:5B:D1:64:38:9C
            X509v3 Authority Key Identifier: 
                keyid:79:02:16:CF:4A:A4:4B:68:14:15:80:F1:CA:4E:B0:2F:8E:B4:BA:5E

    Signature Algorithm: sha1WithRSAEncryption
         37:89:4a:c3:97:4c:ac:7b:a7:e8:d4:9e:a6:12:be:19:59:2b:
         b0:a3:42:c4:84:d6:aa:99:0a:32:74:e3:21:91:e2:ca:88:f5:
         13:e8:b7:a2:75:31:e5:79:af:a4:c8:f9:95:7e:3e:71:bc:5f:
         3f:74:19:7c:54:2d:74:f7:c5:41:54:ae:bf:06:83:9d:3b:e1:
         6c:ef:08:5a:7b:bf:6b:c0:1b:cf:9e:69:a9:25:e0:d6:db:f9:
         9f:4d:6a:ac:03:88:ae:a4:2e:c9:c1:71:32:15:aa:ad:32:7d:
         dc:e1:25:36:ad:cb:67:e2:3c:c6:aa:c8:22:39:dd:b6:66:10:
         bf:82:c2:c9:3b:e3:a3:23:8d:50:c8:40:f6:ae:c7:3c:7e:2b:
         a7:7d:70:bd:b0:6e:c9:d7:f1:26:85:27:30:b0:ac:d0:e0:b5:
         6d:c9:90:f8:a0:80:71:0a:2b:a8:aa:9e:3e:a9:77:a9:1d:6d:
         53:7f:bf:c0:1e:63:96:fb:d7:ed:83:1c:08:f5:11:cc:6a:73:
         af:3d:e7:e5:87:a0:31:f6:98:4b:da:ee:da:3e:a5:3b:a3:1d:
         0b:f8:00:1f:d6:46:44:82:45:f5:f8:b2:5d:d5:6f:ac:24:c7:
         dd:5b:34:4f:51:b3:63:57:d7:c2:b0:3a:94:aa:17:18:45:88:
         38:06:f3:19
-----BEGIN CERTIFICATE-----
MIID2jCCAsKgAwIBAgIBLTANBgkqhkiG9w0BAQUFADBxMQswCQYDVQQGEwJDTjEQ
MA4GA1UECAwHQkVJSklORzEMMAoGA1UECgwDUEtVMRYwFAYDVQQLDA1NaWNyb1Nv
ZnR3YXJlMQ4wDAYDVQQDDAVMSUhBTzEaMBgGCSqGSIb3DQEJARYLaUBkaWd2YS5j
b20wHhcNMTMwNTIzMDgwMjA3WhcNMTQwNTIzMDgwMjA3WjBzMQswCQYDVQQGEwJD
TjELMAkGA1UECBMCQkoxCzAJBgNVBAcTAkJKMQwwCgYDVQQKEwNQS1UxCzAJBgNV
BAsTAlNTMRAwDgYDVQQDEwdMYW9XYW5nMR0wGwYJKoZIhvcNAQkBFg5MYW9XYW5n
QHFxLmNvbTCCASIwDQYJKoZIhvcNAQEBBQADggEPADCCAQoCggEBAMhv6Ie/+1H2
6zPMaEwa4SLGDP3iJtrUDnu3EmuwqmTJGeN5MSQDvqAf4h2NAh+XT/Jx3udr1isB
EJYQfyIS619C4mosPvRP8I9e14auwVdkzF0pLk8jek/CIIcJ4iSzikBIOs6/z9aP
L+dvNAXUePPGAdE8jxw3gAw2ziI8mzVaH5OQwB4nK2SSSwghPshQhaTpcyr5rP22
2C+mbEXItoJI9YSnVIFNdgPc0duCNv8CUIsboK+c+maAV08lHBGwzBP1DeGC8LDL
HB5c7tlKDPsHGDi4k8b9lmBznBjTseqoc5HRto9gjlv6sjL7IjU+O2HyUucAwwFi
jndurg0MG0sCAwEAAaN7MHkwCQYDVR0TBAIwADAsBglghkgBhvhCAQ0EHxYdT3Bl
blNTTCBHZW5lcmF0ZWQgQ2VydGlmaWNhdGUwHQYDVR0OBBYEFJnyB/Gy+Y5GU+X8
60/GzFvRZDicMB8GA1UdIwQYMBaAFHkCFs9KpEtoFBWA8cpOsC+OtLpeMA0GCSqG
SIb3DQEBBQUAA4IBAQA3iUrDl0yse6fo1J6mEr4ZWSuwo0LEhNaqmQoydOMhkeLK
iPUT6LeidTHlea+kyPmVfj5xvF8/dBl8VC1098VBVK6/BoOdO+Fs7whae79rwBvP
nmmpJeDW2/mfTWqsA4iupC7JwXEyFaqtMn3c4SU2rctn4jzGqsgiOd22ZhC/gsLJ
O+OjI41QyED2rsc8fiunfXC9sG7J1/EmhScwsKzQ4LVtyZD4oIBxCiuoqp4+qXep
HW1Tf7/AHmOW+9ftgxwI9RHManOvPeflh6Ax9phL2u7aPqU7ox0L+AAf1kZEgkX1
+LJd1W+sJMfdWzRPUbNjV9fCsDqUqhcYRYg4BvMZ
-----END CERTIFICATE-----
