Certificate:
    Data:
        Version: 3 (0x2)
        Serial Number: 48 (0x30)
    Signature Algorithm: sha1WithRSAEncryption
        Issuer: C=CN, ST=BEIJING, O=PKU, OU=MicroSoftware, CN=LIHAO/emailAddress=i@digva.com
        Validity
            Not Before: May 23 08:05:37 2013 GMT
            Not After : May 23 08:05:37 2014 GMT
        Subject: C=CN, ST=BJ, L=BJ, O=PKU, OU=SS, CN=LaoWang/emailAddress=LaoWang@qq.com
        Subject Public Key Info:
            Public Key Algorithm: rsaEncryption
                Public-Key: (2048 bit)
                Modulus:
                    00:c8:6f:e8:87:bf:fb:51:f6:eb:33:cc:68:4c:1a:
                    e1:22:c6:0c:fd:e2:26:da:d4:0e:7b:b7:12:6b:b0:
                    aa:64:c9:19:e3:79:31:24:03:be:a0:1f:e2:1d:8d:
                    02:1f:97:4f:f2:71:de:e7:6b:d6:2b:01:10:96:10:
                    7f:22:12:eb:5f:42:e2:6a:2c:3e:f4:4f:f0:8f:5e:
                    d7:86:ae:c1:57:64:cc:5d:29:2e:4f:23:7a:4f:c2:
                    20:87:09:e2:24:b3:8a:40:48:3a:ce:bf:cf:d6:8f:
                    2f:e7:6f:34:05:d4:78:f3:c6:01:d1:3c:8f:1c:37:
                    80:0c:36:ce:22:3c:9b:35:5a:1f:93:90:c0:1e:27:
                    2b:64:92:4b:08:21:3e:c8:50:85:a4:e9:73:2a:f9:
                    ac:fd:b6:d8:2f:a6:6c:45:c8:b6:82:48:f5:84:a7:
                    54:81:4d:76:03:dc:d1:db:82:36:ff:02:50:8b:1b:
                    a0:af:9c:fa:66:80:57:4f:25:1c:11:b0:cc:13:f5:
                    0d:e1:82:f0:b0:cb:1c:1e:5c:ee:d9:4a:0c:fb:07:
                    18:38:b8:93:c6:fd:96:60:73:9c:18:d3:b1:ea:a8:
                    73:91:d1:b6:8f:60:8e:5b:fa:b2:32:fb:22:35:3e:
                    3b:61:f2:52:e7:00:c3:01:62:8e:77:6e:ae:0d:0c:
                    1b:4b
                Exponent: 65537 (0x10001)
        X509v3 extensions:
            X509v3 Basic Constraints: 
                CA:FALSE
            Netscape Comment: 
                OpenSSL Generated Certificate
            X509v3 Subject Key Identifier: 
                99:F2:07:F1:B2:F9:8E:46:53:E5:FC:EB:4F:C6:CC:5B:D1:64:38:9C
            X509v3 Authority Key Identifier: 
                keyid:79:02:16:CF:4A:A4:4B:68:14:15:80:F1:CA:4E:B0:2F:8E:B4:BA:5E

    Signature Algorithm: sha1WithRSAEncryption
         c0:ad:f5:c8:08:72:82:52:a6:07:3a:27:61:3e:08:b9:32:ee:
         3c:54:ef:64:37:d8:a0:fd:fe:e3:b6:7f:20:c2:b3:2e:74:98:
         d1:fd:39:4e:60:c4:57:9f:59:97:86:2f:9b:c8:1d:db:4d:61:
         48:c4:2d:81:48:28:3c:bf:ee:3a:06:94:2a:57:ea:c7:96:83:
         08:99:27:14:2f:c8:48:98:c8:ad:8d:52:a0:1f:97:7f:5a:4f:
         a3:9e:0d:5f:a1:32:89:14:56:57:a5:16:83:ec:43:8a:51:11:
         05:9a:67:5a:cf:15:c1:84:e6:df:14:51:95:72:a9:44:97:0d:
         1e:5d:4c:e9:4e:fd:53:19:3a:73:e1:73:5b:ba:fd:22:d4:34:
         cf:c6:22:9a:5e:ca:2e:7c:1a:af:94:4d:c4:93:fa:c6:3c:b2:
         b3:26:68:2e:b7:99:18:09:56:54:f4:f7:80:57:21:a9:54:f7:
         61:ea:38:f8:21:f9:62:cd:19:d1:f4:4e:17:a6:cc:33:0a:44:
         33:f1:25:8d:c0:8a:04:c9:4b:67:f9:ba:11:4b:c8:25:0a:a8:
         84:13:54:2c:9d:d4:9b:93:ff:9f:af:cf:03:cd:a2:04:2d:b6:
         cd:9f:15:d9:0b:64:ba:5a:3a:40:61:b2:09:45:5e:9e:fd:c9:
         33:08:2c:01
-----BEGIN CERTIFICATE-----
MIID2jCCAsKgAwIBAgIBMDANBgkqhkiG9w0BAQUFADBxMQswCQYDVQQGEwJDTjEQ
MA4GA1UECAwHQkVJSklORzEMMAoGA1UECgwDUEtVMRYwFAYDVQQLDA1NaWNyb1Nv
ZnR3YXJlMQ4wDAYDVQQDDAVMSUhBTzEaMBgGCSqGSIb3DQEJARYLaUBkaWd2YS5j
b20wHhcNMTMwNTIzMDgwNTM3WhcNMTQwNTIzMDgwNTM3WjBzMQswCQYDVQQGEwJD
TjELMAkGA1UECBMCQkoxCzAJBgNVBAcTAkJKMQwwCgYDVQQKEwNQS1UxCzAJBgNV
BAsTAlNTMRAwDgYDVQQDEwdMYW9XYW5nMR0wGwYJKoZIhvcNAQkBFg5MYW9XYW5n
QHFxLmNvbTCCASIwDQYJKoZIhvcNAQEBBQADggEPADCCAQoCggEBAMhv6Ie/+1H2
6zPMaEwa4SLGDP3iJtrUDnu3EmuwqmTJGeN5MSQDvqAf4h2NAh+XT/Jx3udr1isB
EJYQfyIS619C4mosPvRP8I9e14auwVdkzF0pLk8jek/CIIcJ4iSzikBIOs6/z9aP
L+dvNAXUePPGAdE8jxw3gAw2ziI8mzVaH5OQwB4nK2SSSwghPshQhaTpcyr5rP22
2C+mbEXItoJI9YSnVIFNdgPc0duCNv8CUIsboK+c+maAV08lHBGwzBP1DeGC8LDL
HB5c7tlKDPsHGDi4k8b9lmBznBjTseqoc5HRto9gjlv6sjL7IjU+O2HyUucAwwFi
jndurg0MG0sCAwEAAaN7MHkwCQYDVR0TBAIwADAsBglghkgBhvhCAQ0EHxYdT3Bl
blNTTCBHZW5lcmF0ZWQgQ2VydGlmaWNhdGUwHQYDVR0OBBYEFJnyB/Gy+Y5GU+X8
60/GzFvRZDicMB8GA1UdIwQYMBaAFHkCFs9KpEtoFBWA8cpOsC+OtLpeMA0GCSqG
SIb3DQEBBQUAA4IBAQDArfXICHKCUqYHOidhPgi5Mu48VO9kN9ig/f7jtn8gwrMu
dJjR/TlOYMRXn1mXhi+byB3bTWFIxC2BSCg8v+46BpQqV+rHloMImScUL8hImMit
jVKgH5d/Wk+jng1foTKJFFZXpRaD7EOKUREFmmdazxXBhObfFFGVcqlElw0eXUzp
Tv1TGTpz4XNbuv0i1DTPxiKaXsoufBqvlE3Ek/rGPLKzJmgut5kYCVZU9PeAVyGp
VPdh6jj4IflizRnR9E4XpswzCkQz8SWNwIoEyUtn+boRS8glCqiEE1QsndSbk/+f
r88DzaIELbbNnxXZC2S6WjpAYbIJRV6e/ckzCCwB
-----END CERTIFICATE-----
