Certificate:
    Data:
        Version: 3 (0x2)
        Serial Number: 49 (0x31)
    Signature Algorithm: sha1WithRSAEncryption
        Issuer: C=CN, ST=BEIJING, O=PKU, OU=MicroSoftware, CN=LIHAO/emailAddress=i@digva.com
        Validity
            Not Before: May 23 08:06:46 2013 GMT
            Not After : May 23 08:06:46 2014 GMT
        Subject: C=CN, ST=BJ, L=BJ, O=PKU, OU=SS, CN=XiaoLi/emailAddress=XiaoLi@qq.com
        Subject Public Key Info:
            Public Key Algorithm: rsaEncryption
                Public-Key: (2048 bit)
                Modulus:
                    00:c8:6f:e8:87:bf:fb:51:f6:eb:33:cc:68:4c:1a:
                    e1:22:c6:0c:fd:e2:26:da:d4:0e:7b:b7:12:6b:b0:
                    aa:64:c9:19:e3:79:31:24:03:be:a0:1f:e2:1d:8d:
                    02:1f:97:4f:f2:71:de:e7:6b:d6:2b:01:10:96:10:
                    7f:22:12:eb:5f:42:e2:6a:2c:3e:f4:4f:f0:8f:5e:
                    d7:86:ae:c1:57:64:cc:5d:29:2e:4f:23:7a:4f:c2:
                    20:87:09:e2:24:b3:8a:40:48:3a:ce:bf:cf:d6:8f:
                    2f:e7:6f:34:05:d4:78:f3:c6:01:d1:3c:8f:1c:37:
                    80:0c:36:ce:22:3c:9b:35:5a:1f:93:90:c0:1e:27:
                    2b:64:92:4b:08:21:3e:c8:50:85:a4:e9:73:2a:f9:
                    ac:fd:b6:d8:2f:a6:6c:45:c8:b6:82:48:f5:84:a7:
                    54:81:4d:76:03:dc:d1:db:82:36:ff:02:50:8b:1b:
                    a0:af:9c:fa:66:80:57:4f:25:1c:11:b0:cc:13:f5:
                    0d:e1:82:f0:b0:cb:1c:1e:5c:ee:d9:4a:0c:fb:07:
                    18:38:b8:93:c6:fd:96:60:73:9c:18:d3:b1:ea:a8:
                    73:91:d1:b6:8f:60:8e:5b:fa:b2:32:fb:22:35:3e:
                    3b:61:f2:52:e7:00:c3:01:62:8e:77:6e:ae:0d:0c:
                    1b:4b
                Exponent: 65537 (0x10001)
        X509v3 extensions:
            X509v3 Basic Constraints: 
                CA:FALSE
            Netscape Comment: 
                OpenSSL Generated Certificate
            X509v3 Subject Key Identifier: 
                99:F2:07:F1:B2:F9:8E:46:53:E5:FC:EB:4F:C6:CC:5B:D1:64:38:9C
            X509v3 Authority Key Identifier: 
                keyid:79:02:16:CF:4A:A4:4B:68:14:15:80:F1:CA:4E:B0:2F:8E:B4:BA:5E

    Signature Algorithm: sha1WithRSAEncryption
         96:0d:d4:cd:fe:30:a5:2d:9d:1f:52:d7:9c:86:6f:48:e6:47:
         26:0d:a6:17:58:e7:a8:7d:87:cc:96:71:3c:9a:72:5b:49:31:
         7d:39:c5:af:7f:50:73:87:78:23:9c:3b:eb:0b:5b:86:05:25:
         fc:fe:21:27:1c:4c:96:ee:95:f0:ff:73:b8:62:7a:49:51:56:
         67:93:be:03:4c:2c:b2:19:37:9b:df:1f:8f:3b:c2:d2:8f:63:
         e7:38:87:9d:8d:78:dd:d8:00:b3:6c:5f:93:fc:63:1b:54:43:
         d2:f5:c6:d9:73:ce:51:10:a9:92:65:6f:45:31:69:ac:33:e5:
         81:0b:37:35:fe:bf:0f:4d:a9:1f:04:94:13:f8:be:8b:31:41:
         b2:5c:d1:98:d2:71:a0:61:99:f7:61:45:5c:32:64:5a:73:af:
         28:59:44:0e:c5:51:de:36:f1:05:1d:df:16:21:58:87:34:75:
         24:b9:31:14:6b:83:e5:38:ff:89:18:8d:41:bf:55:f2:a0:0a:
         1f:fe:ee:12:3d:bb:62:cd:66:ca:4a:8f:f0:e7:d7:ed:3a:a1:
         cb:39:4f:01:d6:f6:b4:23:34:d5:65:e4:12:2e:2c:2f:79:e4:
         0e:a1:89:f0:53:2a:72:76:8b:81:b2:c7:c8:34:2f:65:e9:7d:
         1a:4c:e3:6c
-----BEGIN CERTIFICATE-----
MIID2DCCAsCgAwIBAgIBMTANBgkqhkiG9w0BAQUFADBxMQswCQYDVQQGEwJDTjEQ
MA4GA1UECAwHQkVJSklORzEMMAoGA1UECgwDUEtVMRYwFAYDVQQLDA1NaWNyb1Nv
ZnR3YXJlMQ4wDAYDVQQDDAVMSUhBTzEaMBgGCSqGSIb3DQEJARYLaUBkaWd2YS5j
b20wHhcNMTMwNTIzMDgwNjQ2WhcNMTQwNTIzMDgwNjQ2WjBxMQswCQYDVQQGEwJD
TjELMAkGA1UECBMCQkoxCzAJBgNVBAcTAkJKMQwwCgYDVQQKEwNQS1UxCzAJBgNV
BAsTAlNTMQ8wDQYDVQQDEwZYaWFvTGkxHDAaBgkqhkiG9w0BCQEWDVhpYW9MaUBx
cS5jb20wggEiMA0GCSqGSIb3DQEBAQUAA4IBDwAwggEKAoIBAQDIb+iHv/tR9usz
zGhMGuEixgz94iba1A57txJrsKpkyRnjeTEkA76gH+IdjQIfl0/ycd7na9YrARCW
EH8iEutfQuJqLD70T/CPXteGrsFXZMxdKS5PI3pPwiCHCeIks4pASDrOv8/Wjy/n
bzQF1HjzxgHRPI8cN4AMNs4iPJs1Wh+TkMAeJytkkksIIT7IUIWk6XMq+az9ttgv
pmxFyLaCSPWEp1SBTXYD3NHbgjb/AlCLG6CvnPpmgFdPJRwRsMwT9Q3hgvCwyxwe
XO7ZSgz7Bxg4uJPG/ZZgc5wY07HqqHOR0baPYI5b+rIy+yI1Pjth8lLnAMMBYo53
bq4NDBtLAgMBAAGjezB5MAkGA1UdEwQCMAAwLAYJYIZIAYb4QgENBB8WHU9wZW5T
U0wgR2VuZXJhdGVkIENlcnRpZmljYXRlMB0GA1UdDgQWBBSZ8gfxsvmORlPl/OtP
xsxb0WQ4nDAfBgNVHSMEGDAWgBR5AhbPSqRLaBQVgPHKTrAvjrS6XjANBgkqhkiG
9w0BAQUFAAOCAQEAlg3Uzf4wpS2dH1LXnIZvSOZHJg2mF1jnqH2HzJZxPJpyW0kx
fTnFr39Qc4d4I5w76wtbhgUl/P4hJxxMlu6V8P9zuGJ6SVFWZ5O+A0wsshk3m98f
jzvC0o9j5ziHnY143dgAs2xfk/xjG1RD0vXG2XPOURCpkmVvRTFprDPlgQs3Nf6/
D02pHwSUE/i+izFBslzRmNJxoGGZ92FFXDJkWnOvKFlEDsVR3jbxBR3fFiFYhzR1
JLkxFGuD5Tj/iRiNQb9V8qAKH/7uEj27Ys1mykqP8OfX7TqhyzlPAdb2tCM01WXk
Ei4sL3nkDqGJ8FMqcnaLgbLHyDQvZel9GkzjbA==
-----END CERTIFICATE-----
