Certificate:
    Data:
        Version: 3 (0x2)
        Serial Number: 50 (0x32)
    Signature Algorithm: sha1WithRSAEncryption
        Issuer: C=CN, ST=BEIJING, O=PKU, OU=MicroSoftware, CN=LIHAO/emailAddress=i@digva.com
        Validity
            Not Before: May 23 08:06:47 2013 GMT
            Not After : May 23 08:06:47 2014 GMT
        Subject: C=CN, ST=BJ, L=BJ, O=PKU, OU=SS, CN=LaoWang/emailAddress=LaoWang@qq.com
        Subject Public Key Info:
            Public Key Algorithm: rsaEncryption
                Public-Key: (2048 bit)
                Modulus:
                    00:c8:6f:e8:87:bf:fb:51:f6:eb:33:cc:68:4c:1a:
                    e1:22:c6:0c:fd:e2:26:da:d4:0e:7b:b7:12:6b:b0:
                    aa:64:c9:19:e3:79:31:24:03:be:a0:1f:e2:1d:8d:
                    02:1f:97:4f:f2:71:de:e7:6b:d6:2b:01:10:96:10:
                    7f:22:12:eb:5f:42:e2:6a:2c:3e:f4:4f:f0:8f:5e:
                    d7:86:ae:c1:57:64:cc:5d:29:2e:4f:23:7a:4f:c2:
                    20:87:09:e2:24:b3:8a:40:48:3a:ce:bf:cf:d6:8f:
                    2f:e7:6f:34:05:d4:78:f3:c6:01:d1:3c:8f:1c:37:
                    80:0c:36:ce:22:3c:9b:35:5a:1f:93:90:c0:1e:27:
                    2b:64:92:4b:08:21:3e:c8:50:85:a4:e9:73:2a:f9:
                    ac:fd:b6:d8:2f:a6:6c:45:c8:b6:82:48:f5:84:a7:
                    54:81:4d:76:03:dc:d1:db:82:36:ff:02:50:8b:1b:
                    a0:af:9c:fa:66:80:57:4f:25:1c:11:b0:cc:13:f5:
                    0d:e1:82:f0:b0:cb:1c:1e:5c:ee:d9:4a:0c:fb:07:
                    18:38:b8:93:c6:fd:96:60:73:9c:18:d3:b1:ea:a8:
                    73:91:d1:b6:8f:60:8e:5b:fa:b2:32:fb:22:35:3e:
                    3b:61:f2:52:e7:00:c3:01:62:8e:77:6e:ae:0d:0c:
                    1b:4b
                Exponent: 65537 (0x10001)
        X509v3 extensions:
            X509v3 Basic Constraints: 
                CA:FALSE
            Netscape Comment: 
                OpenSSL Generated Certificate
            X509v3 Subject Key Identifier: 
                99:F2:07:F1:B2:F9:8E:46:53:E5:FC:EB:4F:C6:CC:5B:D1:64:38:9C
            X509v3 Authority Key Identifier: 
                keyid:79:02:16:CF:4A:A4:4B:68:14:15:80:F1:CA:4E:B0:2F:8E:B4:BA:5E

    Signature Algorithm: sha1WithRSAEncryption
         7f:7f:bf:4e:01:cd:c9:49:15:a6:0d:64:36:c4:1f:7b:7b:8d:
         d0:18:8c:25:fa:40:ad:c9:97:26:3d:d7:bf:6e:f3:c4:ed:7e:
         a9:49:c8:40:fc:98:a1:a9:65:ec:e2:7e:a4:4a:79:d0:c6:c5:
         cd:c2:60:ef:66:ff:ec:9b:0d:21:53:5d:64:93:58:5d:74:8a:
         8b:c4:d1:6f:6a:2b:d3:14:c2:81:3e:b3:56:87:c7:4d:74:97:
         e3:2c:3e:31:1e:ea:86:48:53:01:5f:24:51:f2:5b:40:15:27:
         f8:85:20:0b:64:36:fa:0e:74:eb:66:87:32:f1:2e:92:fc:83:
         d2:fb:4d:71:e3:c4:43:a9:c2:ec:bc:ec:97:1d:e6:96:b6:9e:
         1d:31:22:6c:28:c5:31:f6:a2:8e:49:87:32:e2:c1:2a:7d:2b:
         e8:0d:2a:40:df:54:05:d2:df:43:b8:b5:3f:40:22:e4:1c:ea:
         25:da:7a:1e:4c:6f:2d:42:fc:cb:a1:34:5b:d3:bf:41:57:05:
         ca:9b:ac:8a:5d:92:55:da:64:16:10:73:71:87:1a:a7:e1:ce:
         9c:1f:5e:c8:85:0f:a4:80:aa:76:b0:02:9e:fb:3b:56:7e:c5:
         c8:02:11:21:6e:63:9d:e9:86:11:ae:ac:f8:33:2f:08:99:4e:
         e9:80:c2:5e
-----BEGIN CERTIFICATE-----
MIID2jCCAsKgAwIBAgIBMjANBgkqhkiG9w0BAQUFADBxMQswCQYDVQQGEwJDTjEQ
MA4GA1UECAwHQkVJSklORzEMMAoGA1UECgwDUEtVMRYwFAYDVQQLDA1NaWNyb1Nv
ZnR3YXJlMQ4wDAYDVQQDDAVMSUhBTzEaMBgGCSqGSIb3DQEJARYLaUBkaWd2YS5j
b20wHhcNMTMwNTIzMDgwNjQ3WhcNMTQwNTIzMDgwNjQ3WjBzMQswCQYDVQQGEwJD
TjELMAkGA1UECBMCQkoxCzAJBgNVBAcTAkJKMQwwCgYDVQQKEwNQS1UxCzAJBgNV
BAsTAlNTMRAwDgYDVQQDEwdMYW9XYW5nMR0wGwYJKoZIhvcNAQkBFg5MYW9XYW5n
QHFxLmNvbTCCASIwDQYJKoZIhvcNAQEBBQADggEPADCCAQoCggEBAMhv6Ie/+1H2
6zPMaEwa4SLGDP3iJtrUDnu3EmuwqmTJGeN5MSQDvqAf4h2NAh+XT/Jx3udr1isB
EJYQfyIS619C4mosPvRP8I9e14auwVdkzF0pLk8jek/CIIcJ4iSzikBIOs6/z9aP
L+dvNAXUePPGAdE8jxw3gAw2ziI8mzVaH5OQwB4nK2SSSwghPshQhaTpcyr5rP22
2C+mbEXItoJI9YSnVIFNdgPc0duCNv8CUIsboK+c+maAV08lHBGwzBP1DeGC8LDL
HB5c7tlKDPsHGDi4k8b9lmBznBjTseqoc5HRto9gjlv6sjL7IjU+O2HyUucAwwFi
jndurg0MG0sCAwEAAaN7MHkwCQYDVR0TBAIwADAsBglghkgBhvhCAQ0EHxYdT3Bl
blNTTCBHZW5lcmF0ZWQgQ2VydGlmaWNhdGUwHQYDVR0OBBYEFJnyB/Gy+Y5GU+X8
60/GzFvRZDicMB8GA1UdIwQYMBaAFHkCFs9KpEtoFBWA8cpOsC+OtLpeMA0GCSqG
SIb3DQEBBQUAA4IBAQB/f79OAc3JSRWmDWQ2xB97e43QGIwl+kCtyZcmPde/bvPE
7X6pSchA/JihqWXs4n6kSnnQxsXNwmDvZv/smw0hU11kk1hddIqLxNFvaivTFMKB
PrNWh8dNdJfjLD4xHuqGSFMBXyRR8ltAFSf4hSALZDb6DnTrZocy8S6S/IPS+01x
48RDqcLsvOyXHeaWtp4dMSJsKMUx9qKOSYcy4sEqfSvoDSpA31QF0t9DuLU/QCLk
HOol2noeTG8tQvzLoTRb079BVwXKm6yKXZJV2mQWEHNxhxqn4c6cH17IhQ+kgKp2
sAKe+ztWfsXIAhEhbmOd6YYRrqz4My8ImU7pgMJe
-----END CERTIFICATE-----
