Certificate:
    Data:
        Version: 3 (0x2)
        Serial Number: 52 (0x34)
    Signature Algorithm: sha1WithRSAEncryption
        Issuer: C=CN, ST=BEIJING, O=PKU, OU=MicroSoftware, CN=LIHAO/emailAddress=i@digva.com
        Validity
            Not Before: May 23 08:08:42 2013 GMT
            Not After : May 23 08:08:42 2014 GMT
        Subject: C=CN, ST=BJ, L=BJ, O=PKU, OU=SS, CN=LaoWang/emailAddress=LaoWang@qq.com
        Subject Public Key Info:
            Public Key Algorithm: rsaEncryption
                Public-Key: (2048 bit)
                Modulus:
                    00:c8:6f:e8:87:bf:fb:51:f6:eb:33:cc:68:4c:1a:
                    e1:22:c6:0c:fd:e2:26:da:d4:0e:7b:b7:12:6b:b0:
                    aa:64:c9:19:e3:79:31:24:03:be:a0:1f:e2:1d:8d:
                    02:1f:97:4f:f2:71:de:e7:6b:d6:2b:01:10:96:10:
                    7f:22:12:eb:5f:42:e2:6a:2c:3e:f4:4f:f0:8f:5e:
                    d7:86:ae:c1:57:64:cc:5d:29:2e:4f:23:7a:4f:c2:
                    20:87:09:e2:24:b3:8a:40:48:3a:ce:bf:cf:d6:8f:
                    2f:e7:6f:34:05:d4:78:f3:c6:01:d1:3c:8f:1c:37:
                    80:0c:36:ce:22:3c:9b:35:5a:1f:93:90:c0:1e:27:
                    2b:64:92:4b:08:21:3e:c8:50:85:a4:e9:73:2a:f9:
                    ac:fd:b6:d8:2f:a6:6c:45:c8:b6:82:48:f5:84:a7:
                    54:81:4d:76:03:dc:d1:db:82:36:ff:02:50:8b:1b:
                    a0:af:9c:fa:66:80:57:4f:25:1c:11:b0:cc:13:f5:
                    0d:e1:82:f0:b0:cb:1c:1e:5c:ee:d9:4a:0c:fb:07:
                    18:38:b8:93:c6:fd:96:60:73:9c:18:d3:b1:ea:a8:
                    73:91:d1:b6:8f:60:8e:5b:fa:b2:32:fb:22:35:3e:
                    3b:61:f2:52:e7:00:c3:01:62:8e:77:6e:ae:0d:0c:
                    1b:4b
                Exponent: 65537 (0x10001)
        X509v3 extensions:
            X509v3 Basic Constraints: 
                CA:FALSE
            Netscape Comment: 
                OpenSSL Generated Certificate
            X509v3 Subject Key Identifier: 
                99:F2:07:F1:B2:F9:8E:46:53:E5:FC:EB:4F:C6:CC:5B:D1:64:38:9C
            X509v3 Authority Key Identifier: 
                keyid:79:02:16:CF:4A:A4:4B:68:14:15:80:F1:CA:4E:B0:2F:8E:B4:BA:5E

    Signature Algorithm: sha1WithRSAEncryption
         36:b3:57:f5:76:94:c0:4e:92:3e:bb:93:a0:b7:a2:4d:4e:0c:
         a6:d9:2b:52:e6:d2:de:ab:74:1b:be:cc:69:b9:f8:1c:cb:89:
         a6:ca:e3:ae:66:fd:73:51:98:de:1d:f1:3b:5a:8c:94:be:a6:
         0d:06:f2:83:53:9b:0b:7c:ca:a2:7d:01:88:57:b0:a3:3d:2d:
         da:6d:de:1c:37:c1:7e:36:78:40:fe:76:f1:33:2e:c6:a1:9e:
         99:e2:72:7c:ab:a3:77:9b:da:99:59:93:43:a7:c3:d1:6a:ec:
         b1:f9:b4:26:04:13:06:be:c7:5c:88:5c:1c:58:a5:ba:c7:19:
         af:40:aa:22:07:9d:0d:f8:c0:9b:4f:aa:4e:93:6e:5e:9e:67:
         ea:03:05:46:7a:4e:b1:c3:d1:34:be:c8:ee:d1:fe:a5:ef:34:
         6c:9e:97:55:31:98:7b:5d:3f:fd:dc:f5:70:30:bf:2c:d0:f7:
         54:ff:4a:7f:9d:87:5a:6c:9c:bc:56:12:c9:9f:24:5c:a0:50:
         0d:a5:64:ef:1f:b3:d2:cb:93:19:d9:2f:3e:99:e9:9c:be:c5:
         ac:fb:81:6a:28:08:86:72:24:8d:95:6c:7c:b0:e9:9a:7d:42:
         a6:eb:53:63:7a:04:e6:10:54:87:4a:96:90:05:f8:20:a5:37:
         09:64:15:71
-----BEGIN CERTIFICATE-----
MIID2jCCAsKgAwIBAgIBNDANBgkqhkiG9w0BAQUFADBxMQswCQYDVQQGEwJDTjEQ
MA4GA1UECAwHQkVJSklORzEMMAoGA1UECgwDUEtVMRYwFAYDVQQLDA1NaWNyb1Nv
ZnR3YXJlMQ4wDAYDVQQDDAVMSUhBTzEaMBgGCSqGSIb3DQEJARYLaUBkaWd2YS5j
b20wHhcNMTMwNTIzMDgwODQyWhcNMTQwNTIzMDgwODQyWjBzMQswCQYDVQQGEwJD
TjELMAkGA1UECBMCQkoxCzAJBgNVBAcTAkJKMQwwCgYDVQQKEwNQS1UxCzAJBgNV
BAsTAlNTMRAwDgYDVQQDEwdMYW9XYW5nMR0wGwYJKoZIhvcNAQkBFg5MYW9XYW5n
QHFxLmNvbTCCASIwDQYJKoZIhvcNAQEBBQADggEPADCCAQoCggEBAMhv6Ie/+1H2
6zPMaEwa4SLGDP3iJtrUDnu3EmuwqmTJGeN5MSQDvqAf4h2NAh+XT/Jx3udr1isB
EJYQfyIS619C4mosPvRP8I9e14auwVdkzF0pLk8jek/CIIcJ4iSzikBIOs6/z9aP
L+dvNAXUePPGAdE8jxw3gAw2ziI8mzVaH5OQwB4nK2SSSwghPshQhaTpcyr5rP22
2C+mbEXItoJI9YSnVIFNdgPc0duCNv8CUIsboK+c+maAV08lHBGwzBP1DeGC8LDL
HB5c7tlKDPsHGDi4k8b9lmBznBjTseqoc5HRto9gjlv6sjL7IjU+O2HyUucAwwFi
jndurg0MG0sCAwEAAaN7MHkwCQYDVR0TBAIwADAsBglghkgBhvhCAQ0EHxYdT3Bl
blNTTCBHZW5lcmF0ZWQgQ2VydGlmaWNhdGUwHQYDVR0OBBYEFJnyB/Gy+Y5GU+X8
60/GzFvRZDicMB8GA1UdIwQYMBaAFHkCFs9KpEtoFBWA8cpOsC+OtLpeMA0GCSqG
SIb3DQEBBQUAA4IBAQA2s1f1dpTATpI+u5Ogt6JNTgym2StS5tLeq3Qbvsxpufgc
y4mmyuOuZv1zUZjeHfE7WoyUvqYNBvKDU5sLfMqifQGIV7CjPS3abd4cN8F+NnhA
/nbxMy7GoZ6Z4nJ8q6N3m9qZWZNDp8PRauyx+bQmBBMGvsdciFwcWKW6xxmvQKoi
B50N+MCbT6pOk25enmfqAwVGek6xw9E0vsju0f6l7zRsnpdVMZh7XT/93PVwML8s
0PdU/0p/nYdabJy8VhLJnyRcoFANpWTvH7PSy5MZ2S8+memcvsWs+4FqKAiGciSN
lWx8sOmafUKm61NjegTmEFSHSpaQBfggpTcJZBVx
-----END CERTIFICATE-----
