Certificate:
    Data:
        Version: 3 (0x2)
        Serial Number: 53 (0x35)
    Signature Algorithm: sha1WithRSAEncryption
        Issuer: C=CN, ST=BEIJING, O=PKU, OU=MicroSoftware, CN=LIHAO/emailAddress=i@digva.com
        Validity
            Not Before: May 24 03:21:41 2013 GMT
            Not After : May 24 03:21:41 2014 GMT
        Subject: C=CN, ST=BJ, L=BJ, O=PKU, OU=SS, CN=LaoWang/emailAddress=LaoWang@qq.com
        Subject Public Key Info:
            Public Key Algorithm: rsaEncryption
                Public-Key: (2048 bit)
                Modulus:
                    00:c8:6f:e8:87:bf:fb:51:f6:eb:33:cc:68:4c:1a:
                    e1:22:c6:0c:fd:e2:26:da:d4:0e:7b:b7:12:6b:b0:
                    aa:64:c9:19:e3:79:31:24:03:be:a0:1f:e2:1d:8d:
                    02:1f:97:4f:f2:71:de:e7:6b:d6:2b:01:10:96:10:
                    7f:22:12:eb:5f:42:e2:6a:2c:3e:f4:4f:f0:8f:5e:
                    d7:86:ae:c1:57:64:cc:5d:29:2e:4f:23:7a:4f:c2:
                    20:87:09:e2:24:b3:8a:40:48:3a:ce:bf:cf:d6:8f:
                    2f:e7:6f:34:05:d4:78:f3:c6:01:d1:3c:8f:1c:37:
                    80:0c:36:ce:22:3c:9b:35:5a:1f:93:90:c0:1e:27:
                    2b:64:92:4b:08:21:3e:c8:50:85:a4:e9:73:2a:f9:
                    ac:fd:b6:d8:2f:a6:6c:45:c8:b6:82:48:f5:84:a7:
                    54:81:4d:76:03:dc:d1:db:82:36:ff:02:50:8b:1b:
                    a0:af:9c:fa:66:80:57:4f:25:1c:11:b0:cc:13:f5:
                    0d:e1:82:f0:b0:cb:1c:1e:5c:ee:d9:4a:0c:fb:07:
                    18:38:b8:93:c6:fd:96:60:73:9c:18:d3:b1:ea:a8:
                    73:91:d1:b6:8f:60:8e:5b:fa:b2:32:fb:22:35:3e:
                    3b:61:f2:52:e7:00:c3:01:62:8e:77:6e:ae:0d:0c:
                    1b:4b
                Exponent: 65537 (0x10001)
        X509v3 extensions:
            X509v3 Basic Constraints: 
                CA:FALSE
            Netscape Comment: 
                OpenSSL Generated Certificate
            X509v3 Subject Key Identifier: 
                99:F2:07:F1:B2:F9:8E:46:53:E5:FC:EB:4F:C6:CC:5B:D1:64:38:9C
            X509v3 Authority Key Identifier: 
                keyid:79:02:16:CF:4A:A4:4B:68:14:15:80:F1:CA:4E:B0:2F:8E:B4:BA:5E

    Signature Algorithm: sha1WithRSAEncryption
         52:9b:1a:fa:ff:99:3a:ea:6d:7f:59:7e:e9:fc:7d:eb:4b:83:
         92:30:a5:bf:af:fd:cc:ad:05:c6:69:33:8a:4d:ed:e2:f4:bf:
         c0:ef:fc:47:aa:38:7c:73:d1:50:31:68:6c:b5:74:72:43:7a:
         35:26:28:35:59:3f:f7:26:91:3a:a0:af:74:7a:4a:24:fa:f7:
         24:77:8d:00:f1:f7:d0:61:92:6e:9a:1e:74:fb:aa:6d:93:dd:
         a1:3b:c6:ef:5e:df:8a:61:03:ef:9f:c9:6c:9b:65:bd:42:5e:
         79:9d:4c:d1:b5:03:2a:5f:04:d5:01:f1:66:00:1b:1f:9d:d7:
         2e:05:1d:2f:a4:c7:b2:11:e0:c7:cf:27:5b:e5:45:fd:5e:e1:
         36:ac:30:9f:f8:6f:e9:2b:eb:47:dc:c0:6c:67:d7:36:eb:36:
         c8:51:27:7b:63:5f:63:ae:53:74:d4:d9:db:5d:b8:d1:67:49:
         d1:93:5a:3b:b2:c0:d2:33:df:ba:cf:5b:88:61:08:bf:47:8d:
         42:b3:64:12:49:5f:39:81:25:6c:af:f4:1e:e0:6b:e7:eb:29:
         9d:46:e7:43:9a:9d:b5:9f:e3:50:d7:dc:20:3a:cf:47:a1:5e:
         41:dc:7e:7d:99:f7:11:80:db:4a:c3:ca:d4:b3:9f:27:1a:29:
         9b:d0:2d:a4
-----BEGIN CERTIFICATE-----
MIID2jCCAsKgAwIBAgIBNTANBgkqhkiG9w0BAQUFADBxMQswCQYDVQQGEwJDTjEQ
MA4GA1UECAwHQkVJSklORzEMMAoGA1UECgwDUEtVMRYwFAYDVQQLDA1NaWNyb1Nv
ZnR3YXJlMQ4wDAYDVQQDDAVMSUhBTzEaMBgGCSqGSIb3DQEJARYLaUBkaWd2YS5j
b20wHhcNMTMwNTI0MDMyMTQxWhcNMTQwNTI0MDMyMTQxWjBzMQswCQYDVQQGEwJD
TjELMAkGA1UECBMCQkoxCzAJBgNVBAcTAkJKMQwwCgYDVQQKEwNQS1UxCzAJBgNV
BAsTAlNTMRAwDgYDVQQDEwdMYW9XYW5nMR0wGwYJKoZIhvcNAQkBFg5MYW9XYW5n
QHFxLmNvbTCCASIwDQYJKoZIhvcNAQEBBQADggEPADCCAQoCggEBAMhv6Ie/+1H2
6zPMaEwa4SLGDP3iJtrUDnu3EmuwqmTJGeN5MSQDvqAf4h2NAh+XT/Jx3udr1isB
EJYQfyIS619C4mosPvRP8I9e14auwVdkzF0pLk8jek/CIIcJ4iSzikBIOs6/z9aP
L+dvNAXUePPGAdE8jxw3gAw2ziI8mzVaH5OQwB4nK2SSSwghPshQhaTpcyr5rP22
2C+mbEXItoJI9YSnVIFNdgPc0duCNv8CUIsboK+c+maAV08lHBGwzBP1DeGC8LDL
HB5c7tlKDPsHGDi4k8b9lmBznBjTseqoc5HRto9gjlv6sjL7IjU+O2HyUucAwwFi
jndurg0MG0sCAwEAAaN7MHkwCQYDVR0TBAIwADAsBglghkgBhvhCAQ0EHxYdT3Bl
blNTTCBHZW5lcmF0ZWQgQ2VydGlmaWNhdGUwHQYDVR0OBBYEFJnyB/Gy+Y5GU+X8
60/GzFvRZDicMB8GA1UdIwQYMBaAFHkCFs9KpEtoFBWA8cpOsC+OtLpeMA0GCSqG
SIb3DQEBBQUAA4IBAQBSmxr6/5k66m1/WX7p/H3rS4OSMKW/r/3MrQXGaTOKTe3i
9L/A7/xHqjh8c9FQMWhstXRyQ3o1Jig1WT/3JpE6oK90ekok+vckd40A8ffQYZJu
mh50+6ptk92hO8bvXt+KYQPvn8lsm2W9Ql55nUzRtQMqXwTVAfFmABsfndcuBR0v
pMeyEeDHzydb5UX9XuE2rDCf+G/pK+tH3MBsZ9c26zbIUSd7Y19jrlN01NnbXbjR
Z0nRk1o7ssDSM9+6z1uIYQi/R41Cs2QSSV85gSVsr/Qe4Gvn6ymdRudDmp21n+NQ
19wgOs9HoV5B3H59mfcRgNtKw8rUs58nGimb0C2k
-----END CERTIFICATE-----
