Certificate:
    Data:
        Version: 3 (0x2)
        Serial Number: 57 (0x39)
    Signature Algorithm: sha1WithRSAEncryption
        Issuer: C=CN, ST=BEIJING, O=PKU, OU=MicroSoftware, CN=LIHAO/emailAddress=i@digva.com
        Validity
            Not Before: Jul  8 07:31:08 2013 GMT
            Not After : Jul  8 07:31:08 2014 GMT
        Subject: C=CN, ST=BJ, L=BJ, O=PKU, OU=SS, CN=PKCS#10 Test/emailAddress=zhangyong@qq.com
        Subject Public Key Info:
            Public Key Algorithm: rsaEncryption
                Public-Key: (2048 bit)
                Modulus:
                    00:91:16:76:f1:bd:cb:a6:51:aa:3c:6c:05:e7:d4:
                    88:96:29:9e:1f:d8:1a:08:9e:b7:a6:f3:91:f3:a3:
                    db:2c:78:84:39:02:4a:e2:bf:5b:af:8e:3a:c6:68:
                    2e:d1:4f:6b:27:e3:40:8d:76:bd:c8:70:32:ba:23:
                    37:b1:12:17:65:18:0d:2a:a7:1e:17:e9:78:94:99:
                    fe:5a:88:bb:a1:43:56:e2:3e:60:dc:d5:b3:03:3f:
                    e6:12:7a:a3:1b:50:c7:7a:c3:d4:c3:a7:ef:2f:d3:
                    22:62:e4:2b:7e:1d:5c:da:e6:8d:f0:c0:79:1a:56:
                    bf:8e:b1:2d:b2:69:78:d3:f7:6e:cd:f4:d8:fd:1b:
                    de:9c:61:9b:16:c0:75:2c:f4:36:af:ef:a2:a6:c5:
                    08:a6:04:ed:3c:65:e2:0c:39:8e:85:cf:33:bd:8b:
                    e6:17:99:de:db:7e:d3:0d:f5:5e:da:d4:36:ed:1b:
                    ea:28:73:e7:53:18:0a:d3:bf:6b:ae:31:0c:0e:17:
                    72:95:64:ab:2d:30:f9:7b:16:bd:5b:b5:48:1b:6a:
                    82:ce:48:cf:07:54:6a:71:bd:ba:f6:47:ea:9b:12:
                    e9:a5:52:10:4e:32:de:71:6a:11:d5:7f:1b:9a:84:
                    85:7b:4a:38:61:5d:c8:72:fb:71:d2:93:d7:8e:9d:
                    3e:5d
                Exponent: 65537 (0x10001)
        X509v3 extensions:
            X509v3 Basic Constraints: 
                CA:FALSE
            Netscape Comment: 
                OpenSSL Generated Certificate
            X509v3 Subject Key Identifier: 
                84:86:CD:F4:5D:2C:82:5F:C4:DA:14:6C:19:AD:83:0E:E6:86:2B:6A
            X509v3 Authority Key Identifier: 
                keyid:79:02:16:CF:4A:A4:4B:68:14:15:80:F1:CA:4E:B0:2F:8E:B4:BA:5E

    Signature Algorithm: sha1WithRSAEncryption
         1e:b9:11:d2:bd:d1:5d:63:4e:12:45:43:55:5b:fd:3b:57:c4:
         f8:44:38:8a:2e:72:bf:39:ca:1f:89:c9:b3:e8:ca:99:67:95:
         e9:ca:08:02:ea:f2:6e:98:20:6f:59:78:1a:66:1f:33:1c:7b:
         80:72:52:eb:33:4e:1f:f8:a2:08:8a:05:65:44:d8:47:6a:d3:
         69:26:da:0a:0d:6d:b3:4b:14:30:77:e9:a2:ea:87:d0:6d:c6:
         05:1e:f9:9a:28:89:c1:71:a7:48:83:c6:b3:a8:39:e8:e6:fc:
         da:c9:25:e3:61:00:4a:ac:d6:ba:30:ee:06:23:75:19:6c:5f:
         df:9e:b0:a1:9e:b0:af:b1:5c:e2:d5:7b:14:47:5d:2f:88:5a:
         12:4d:a1:53:2f:35:d3:1a:fc:18:dd:95:cc:d8:7f:7d:2f:30:
         54:b5:10:d8:58:bf:73:2b:82:05:ef:b6:08:c5:f3:21:96:3d:
         9b:b3:e1:8c:c8:6d:bc:c8:d4:e1:29:4f:e4:79:87:c4:79:7b:
         5e:6b:27:25:bc:67:8c:88:dd:be:64:0b:f0:71:13:8f:c1:d2:
         28:91:7f:8c:d3:a6:c9:fc:f4:34:b8:ae:b4:73:93:5e:4b:76:
         e7:74:f3:1e:a5:6b:61:52:c4:7a:14:e3:28:6c:63:da:74:2a:
         b9:22:ae:db
-----BEGIN CERTIFICATE-----
MIID4TCCAsmgAwIBAgIBOTANBgkqhkiG9w0BAQUFADBxMQswCQYDVQQGEwJDTjEQ
MA4GA1UECAwHQkVJSklORzEMMAoGA1UECgwDUEtVMRYwFAYDVQQLDA1NaWNyb1Nv
ZnR3YXJlMQ4wDAYDVQQDDAVMSUhBTzEaMBgGCSqGSIb3DQEJARYLaUBkaWd2YS5j
b20wHhcNMTMwNzA4MDczMTA4WhcNMTQwNzA4MDczMTA4WjB6MQswCQYDVQQGEwJD
TjELMAkGA1UECBMCQkoxCzAJBgNVBAcTAkJKMQwwCgYDVQQKEwNQS1UxCzAJBgNV
BAsTAlNTMRUwEwYDVQQDDAxQS0NTIzEwIFRlc3QxHzAdBgkqhkiG9w0BCQEWEHpo
YW5neW9uZ0BxcS5jb20wggEiMA0GCSqGSIb3DQEBAQUAA4IBDwAwggEKAoIBAQCR
FnbxvcumUao8bAXn1IiWKZ4f2BoInrem85Hzo9sseIQ5Akriv1uvjjrGaC7RT2sn
40CNdr3IcDK6IzexEhdlGA0qpx4X6XiUmf5aiLuhQ1biPmDc1bMDP+YSeqMbUMd6
w9TDp+8v0yJi5Ct+HVza5o3wwHkaVr+OsS2yaXjT927N9Nj9G96cYZsWwHUs9Dav
76KmxQimBO08ZeIMOY6FzzO9i+YXmd7bftMN9V7a1DbtG+ooc+dTGArTv2uuMQwO
F3KVZKstMPl7Fr1btUgbaoLOSM8HVGpxvbr2R+qbEumlUhBOMt5xahHVfxuahIV7
SjhhXchy+3HSk9eOnT5dAgMBAAGjezB5MAkGA1UdEwQCMAAwLAYJYIZIAYb4QgEN
BB8WHU9wZW5TU0wgR2VuZXJhdGVkIENlcnRpZmljYXRlMB0GA1UdDgQWBBSEhs30
XSyCX8TaFGwZrYMO5oYrajAfBgNVHSMEGDAWgBR5AhbPSqRLaBQVgPHKTrAvjrS6
XjANBgkqhkiG9w0BAQUFAAOCAQEAHrkR0r3RXWNOEkVDVVv9O1fE+EQ4ii5yvznK
H4nJs+jKmWeV6coIAurybpggb1l4GmYfMxx7gHJS6zNOH/iiCIoFZUTYR2rTaSba
Cg1ts0sUMHfpouqH0G3GBR75miiJwXGnSIPGs6g56Ob82skl42EASqzWujDuBiN1
GWxf356woZ6wr7Fc4tV7FEddL4haEk2hUy810xr8GN2VzNh/fS8wVLUQ2Fi/cyuC
Be+2CMXzIZY9m7PhjMhtvMjU4SlP5HmHxHl7XmsnJbxnjIjdvmQL8HETj8HSKJF/
jNOmyfz0NLiutHOTXkt253TzHqVrYVLEehTjKGxj2nQquSKu2w==
-----END CERTIFICATE-----
