Certificate:
    Data:
        Version: 3 (0x2)
        Serial Number: 58 (0x3a)
    Signature Algorithm: sha1WithRSAEncryption
        Issuer: C=CN, ST=BEIJING, O=PKU, OU=MicroSoftware, CN=LIHAO/emailAddress=i@digva.com
        Validity
            Not Before: Jul  8 07:32:36 2013 GMT
            Not After : Jul  8 07:32:36 2014 GMT
        Subject: C=CN, ST=BJ, L=BJ, O=PKU, OU=SS, CN=PKCS#10 Test/emailAddress=zhangyong@qq.com
        Subject Public Key Info:
            Public Key Algorithm: rsaEncryption
                Public-Key: (2048 bit)
                Modulus:
                    00:91:16:76:f1:bd:cb:a6:51:aa:3c:6c:05:e7:d4:
                    88:96:29:9e:1f:d8:1a:08:9e:b7:a6:f3:91:f3:a3:
                    db:2c:78:84:39:02:4a:e2:bf:5b:af:8e:3a:c6:68:
                    2e:d1:4f:6b:27:e3:40:8d:76:bd:c8:70:32:ba:23:
                    37:b1:12:17:65:18:0d:2a:a7:1e:17:e9:78:94:99:
                    fe:5a:88:bb:a1:43:56:e2:3e:60:dc:d5:b3:03:3f:
                    e6:12:7a:a3:1b:50:c7:7a:c3:d4:c3:a7:ef:2f:d3:
                    22:62:e4:2b:7e:1d:5c:da:e6:8d:f0:c0:79:1a:56:
                    bf:8e:b1:2d:b2:69:78:d3:f7:6e:cd:f4:d8:fd:1b:
                    de:9c:61:9b:16:c0:75:2c:f4:36:af:ef:a2:a6:c5:
                    08:a6:04:ed:3c:65:e2:0c:39:8e:85:cf:33:bd:8b:
                    e6:17:99:de:db:7e:d3:0d:f5:5e:da:d4:36:ed:1b:
                    ea:28:73:e7:53:18:0a:d3:bf:6b:ae:31:0c:0e:17:
                    72:95:64:ab:2d:30:f9:7b:16:bd:5b:b5:48:1b:6a:
                    82:ce:48:cf:07:54:6a:71:bd:ba:f6:47:ea:9b:12:
                    e9:a5:52:10:4e:32:de:71:6a:11:d5:7f:1b:9a:84:
                    85:7b:4a:38:61:5d:c8:72:fb:71:d2:93:d7:8e:9d:
                    3e:5d
                Exponent: 65537 (0x10001)
        X509v3 extensions:
            X509v3 Basic Constraints: 
                CA:FALSE
            Netscape Comment: 
                OpenSSL Generated Certificate
            X509v3 Subject Key Identifier: 
                84:86:CD:F4:5D:2C:82:5F:C4:DA:14:6C:19:AD:83:0E:E6:86:2B:6A
            X509v3 Authority Key Identifier: 
                keyid:79:02:16:CF:4A:A4:4B:68:14:15:80:F1:CA:4E:B0:2F:8E:B4:BA:5E

    Signature Algorithm: sha1WithRSAEncryption
         41:d8:67:44:99:79:66:93:ee:d7:01:e0:15:b4:b4:dc:13:c3:
         10:db:d4:2e:4f:d3:a7:8c:ab:00:70:2b:00:3c:de:33:a2:f3:
         e8:1a:83:5d:f3:74:3a:c8:83:6e:8a:3c:7f:f1:ee:a5:3a:cf:
         19:c4:9e:ef:ce:3e:f9:51:7c:ec:3e:c5:3a:aa:98:ec:85:35:
         f4:8a:24:03:39:3b:17:95:96:27:10:4a:13:7f:2f:4a:0e:26:
         4e:28:e6:d3:a8:bf:3c:83:10:fe:ef:7b:ed:4c:48:9a:df:2a:
         cc:44:b8:af:71:64:1b:31:ca:b2:cf:34:c4:ee:80:ff:91:2a:
         5c:17:8d:95:af:77:4c:8d:12:35:45:2a:03:07:ea:18:e7:e7:
         58:be:38:88:29:64:78:73:2b:a0:85:83:8b:7b:32:84:b6:ab:
         46:ca:a0:3d:af:5f:98:1e:31:8c:3b:14:5b:e0:24:1f:fa:5a:
         fc:6d:8b:20:ab:2a:b3:f3:17:18:46:6d:9b:c5:10:e5:0f:47:
         2f:e8:e2:15:c4:7d:7f:cb:f4:1b:a5:43:07:1e:1d:6f:ab:2e:
         02:ce:73:37:fe:98:b0:18:3e:0d:8b:59:dc:5a:d9:1b:f4:5e:
         4f:3c:ea:65:89:e9:84:3a:eb:66:dd:09:eb:0d:e0:c3:a2:4d:
         78:8d:f0:1c
-----BEGIN CERTIFICATE-----
MIID4TCCAsmgAwIBAgIBOjANBgkqhkiG9w0BAQUFADBxMQswCQYDVQQGEwJDTjEQ
MA4GA1UECAwHQkVJSklORzEMMAoGA1UECgwDUEtVMRYwFAYDVQQLDA1NaWNyb1Nv
ZnR3YXJlMQ4wDAYDVQQDDAVMSUhBTzEaMBgGCSqGSIb3DQEJARYLaUBkaWd2YS5j
b20wHhcNMTMwNzA4MDczMjM2WhcNMTQwNzA4MDczMjM2WjB6MQswCQYDVQQGEwJD
TjELMAkGA1UECBMCQkoxCzAJBgNVBAcTAkJKMQwwCgYDVQQKEwNQS1UxCzAJBgNV
BAsTAlNTMRUwEwYDVQQDDAxQS0NTIzEwIFRlc3QxHzAdBgkqhkiG9w0BCQEWEHpo
YW5neW9uZ0BxcS5jb20wggEiMA0GCSqGSIb3DQEBAQUAA4IBDwAwggEKAoIBAQCR
FnbxvcumUao8bAXn1IiWKZ4f2BoInrem85Hzo9sseIQ5Akriv1uvjjrGaC7RT2sn
40CNdr3IcDK6IzexEhdlGA0qpx4X6XiUmf5aiLuhQ1biPmDc1bMDP+YSeqMbUMd6
w9TDp+8v0yJi5Ct+HVza5o3wwHkaVr+OsS2yaXjT927N9Nj9G96cYZsWwHUs9Dav
76KmxQimBO08ZeIMOY6FzzO9i+YXmd7bftMN9V7a1DbtG+ooc+dTGArTv2uuMQwO
F3KVZKstMPl7Fr1btUgbaoLOSM8HVGpxvbr2R+qbEumlUhBOMt5xahHVfxuahIV7
SjhhXchy+3HSk9eOnT5dAgMBAAGjezB5MAkGA1UdEwQCMAAwLAYJYIZIAYb4QgEN
BB8WHU9wZW5TU0wgR2VuZXJhdGVkIENlcnRpZmljYXRlMB0GA1UdDgQWBBSEhs30
XSyCX8TaFGwZrYMO5oYrajAfBgNVHSMEGDAWgBR5AhbPSqRLaBQVgPHKTrAvjrS6
XjANBgkqhkiG9w0BAQUFAAOCAQEAQdhnRJl5ZpPu1wHgFbS03BPDENvULk/Tp4yr
AHArADzeM6Lz6BqDXfN0OsiDboo8f/HupTrPGcSe784++VF87D7FOqqY7IU19Iok
Azk7F5WWJxBKE38vSg4mTijm06i/PIMQ/u977UxImt8qzES4r3FkGzHKss80xO6A
/5EqXBeNla93TI0SNUUqAwfqGOfnWL44iClkeHMroIWDi3syhLarRsqgPa9fmB4x
jDsUW+AkH/pa/G2LIKsqs/MXGEZtm8UQ5Q9HL+jiFcR9f8v0G6VDBx4db6suAs5z
N/6YsBg+DYtZ3FrZG/ReTzzqZYnphDrrZt0J6w3gw6JNeI3wHA==
-----END CERTIFICATE-----
