Certificate:
    Data:
        Version: 3 (0x2)
        Serial Number: 59 (0x3b)
    Signature Algorithm: sha1WithRSAEncryption
        Issuer: C=CN, ST=BEIJING, O=PKU, OU=MicroSoftware, CN=LIHAO/emailAddress=i@digva.com
        Validity
            Not Before: Jul  8 07:36:01 2013 GMT
            Not After : Jul  8 07:36:01 2014 GMT
        Subject: C=CN, ST=BJ, L=BJ, O=PKU, OU=SS, CN=PKCS#10 Test/emailAddress=zhangyong@qq.com
        Subject Public Key Info:
            Public Key Algorithm: rsaEncryption
                Public-Key: (2048 bit)
                Modulus:
                    00:91:16:76:f1:bd:cb:a6:51:aa:3c:6c:05:e7:d4:
                    88:96:29:9e:1f:d8:1a:08:9e:b7:a6:f3:91:f3:a3:
                    db:2c:78:84:39:02:4a:e2:bf:5b:af:8e:3a:c6:68:
                    2e:d1:4f:6b:27:e3:40:8d:76:bd:c8:70:32:ba:23:
                    37:b1:12:17:65:18:0d:2a:a7:1e:17:e9:78:94:99:
                    fe:5a:88:bb:a1:43:56:e2:3e:60:dc:d5:b3:03:3f:
                    e6:12:7a:a3:1b:50:c7:7a:c3:d4:c3:a7:ef:2f:d3:
                    22:62:e4:2b:7e:1d:5c:da:e6:8d:f0:c0:79:1a:56:
                    bf:8e:b1:2d:b2:69:78:d3:f7:6e:cd:f4:d8:fd:1b:
                    de:9c:61:9b:16:c0:75:2c:f4:36:af:ef:a2:a6:c5:
                    08:a6:04:ed:3c:65:e2:0c:39:8e:85:cf:33:bd:8b:
                    e6:17:99:de:db:7e:d3:0d:f5:5e:da:d4:36:ed:1b:
                    ea:28:73:e7:53:18:0a:d3:bf:6b:ae:31:0c:0e:17:
                    72:95:64:ab:2d:30:f9:7b:16:bd:5b:b5:48:1b:6a:
                    82:ce:48:cf:07:54:6a:71:bd:ba:f6:47:ea:9b:12:
                    e9:a5:52:10:4e:32:de:71:6a:11:d5:7f:1b:9a:84:
                    85:7b:4a:38:61:5d:c8:72:fb:71:d2:93:d7:8e:9d:
                    3e:5d
                Exponent: 65537 (0x10001)
        X509v3 extensions:
            X509v3 Basic Constraints: 
                CA:FALSE
            Netscape Comment: 
                OpenSSL Generated Certificate
            X509v3 Subject Key Identifier: 
                84:86:CD:F4:5D:2C:82:5F:C4:DA:14:6C:19:AD:83:0E:E6:86:2B:6A
            X509v3 Authority Key Identifier: 
                keyid:79:02:16:CF:4A:A4:4B:68:14:15:80:F1:CA:4E:B0:2F:8E:B4:BA:5E

    Signature Algorithm: sha1WithRSAEncryption
         91:f1:85:19:ba:1f:b2:5b:f5:a0:c0:57:94:4d:18:d1:ab:db:
         71:b7:13:50:2f:0e:25:b3:7e:ca:13:86:49:f6:07:46:bf:42:
         8b:12:a0:40:56:01:12:2f:41:09:84:e0:fe:33:f0:1c:d6:2d:
         a6:67:84:9f:8c:a0:6c:3b:bf:6d:9f:65:d0:ce:40:5a:c7:4a:
         a6:9e:36:3d:01:ea:15:03:9b:7f:02:b1:06:6d:e2:16:2c:92:
         a1:b4:a9:67:ed:e9:05:a6:48:6d:fd:56:13:5f:47:a4:14:44:
         93:20:9f:ae:17:f0:c4:cb:71:58:8c:60:93:da:e5:12:d5:f1:
         f7:76:3f:f8:e6:f1:4a:54:ed:7c:e2:89:88:5d:36:93:6e:63:
         1c:32:90:7e:65:54:6f:b2:d3:7b:d6:62:0e:1d:40:08:6f:8d:
         a3:96:84:e4:12:4f:20:d6:75:15:90:2f:ab:9b:e1:02:49:cc:
         68:67:77:ce:8b:39:19:0f:22:77:7e:77:a9:62:cc:06:20:38:
         b6:d8:d7:e7:ff:9b:b4:88:42:fb:6e:8b:2d:03:ca:00:69:ce:
         05:2c:32:1a:ed:bd:b2:60:73:9c:9d:af:17:5c:d0:1c:fd:55:
         7f:61:1a:60:2f:ca:0c:64:65:04:9e:ee:a5:fe:1e:4b:18:01:
         35:2d:ee:94
-----BEGIN CERTIFICATE-----
MIID4TCCAsmgAwIBAgIBOzANBgkqhkiG9w0BAQUFADBxMQswCQYDVQQGEwJDTjEQ
MA4GA1UECAwHQkVJSklORzEMMAoGA1UECgwDUEtVMRYwFAYDVQQLDA1NaWNyb1Nv
ZnR3YXJlMQ4wDAYDVQQDDAVMSUhBTzEaMBgGCSqGSIb3DQEJARYLaUBkaWd2YS5j
b20wHhcNMTMwNzA4MDczNjAxWhcNMTQwNzA4MDczNjAxWjB6MQswCQYDVQQGEwJD
TjELMAkGA1UECBMCQkoxCzAJBgNVBAcTAkJKMQwwCgYDVQQKEwNQS1UxCzAJBgNV
BAsTAlNTMRUwEwYDVQQDDAxQS0NTIzEwIFRlc3QxHzAdBgkqhkiG9w0BCQEWEHpo
YW5neW9uZ0BxcS5jb20wggEiMA0GCSqGSIb3DQEBAQUAA4IBDwAwggEKAoIBAQCR
FnbxvcumUao8bAXn1IiWKZ4f2BoInrem85Hzo9sseIQ5Akriv1uvjjrGaC7RT2sn
40CNdr3IcDK6IzexEhdlGA0qpx4X6XiUmf5aiLuhQ1biPmDc1bMDP+YSeqMbUMd6
w9TDp+8v0yJi5Ct+HVza5o3wwHkaVr+OsS2yaXjT927N9Nj9G96cYZsWwHUs9Dav
76KmxQimBO08ZeIMOY6FzzO9i+YXmd7bftMN9V7a1DbtG+ooc+dTGArTv2uuMQwO
F3KVZKstMPl7Fr1btUgbaoLOSM8HVGpxvbr2R+qbEumlUhBOMt5xahHVfxuahIV7
SjhhXchy+3HSk9eOnT5dAgMBAAGjezB5MAkGA1UdEwQCMAAwLAYJYIZIAYb4QgEN
BB8WHU9wZW5TU0wgR2VuZXJhdGVkIENlcnRpZmljYXRlMB0GA1UdDgQWBBSEhs30
XSyCX8TaFGwZrYMO5oYrajAfBgNVHSMEGDAWgBR5AhbPSqRLaBQVgPHKTrAvjrS6
XjANBgkqhkiG9w0BAQUFAAOCAQEAkfGFGbofslv1oMBXlE0Y0avbcbcTUC8OJbN+
yhOGSfYHRr9CixKgQFYBEi9BCYTg/jPwHNYtpmeEn4ygbDu/bZ9l0M5AWsdKpp42
PQHqFQObfwKxBm3iFiySobSpZ+3pBaZIbf1WE19HpBREkyCfrhfwxMtxWIxgk9rl
EtXx93Y/+ObxSlTtfOKJiF02k25jHDKQfmVUb7LTe9ZiDh1ACG+No5aE5BJPINZ1
FZAvq5vhAknMaGd3zos5GQ8id353qWLMBiA4ttjX5/+btIhC+26LLQPKAGnOBSwy
Gu29smBznJ2vF1zQHP1Vf2EaYC/KDGRlBJ7upf4eSxgBNS3ulA==
-----END CERTIFICATE-----
