Certificate:
    Data:
        Version: 3 (0x2)
        Serial Number: 60 (0x3c)
    Signature Algorithm: sha1WithRSAEncryption
        Issuer: C=CN, ST=BEIJING, O=PKU, OU=MicroSoftware, CN=LIHAO/emailAddress=i@digva.com
        Validity
            Not Before: Jul  8 07:37:23 2013 GMT
            Not After : Jul  8 07:37:23 2014 GMT
        Subject: C=CN, ST=BJ, L=BJ, O=PKU, OU=SS, CN=PKCS#10 Test/emailAddress=zhangyong@qq.com
        Subject Public Key Info:
            Public Key Algorithm: rsaEncryption
                Public-Key: (2048 bit)
                Modulus:
                    00:91:16:76:f1:bd:cb:a6:51:aa:3c:6c:05:e7:d4:
                    88:96:29:9e:1f:d8:1a:08:9e:b7:a6:f3:91:f3:a3:
                    db:2c:78:84:39:02:4a:e2:bf:5b:af:8e:3a:c6:68:
                    2e:d1:4f:6b:27:e3:40:8d:76:bd:c8:70:32:ba:23:
                    37:b1:12:17:65:18:0d:2a:a7:1e:17:e9:78:94:99:
                    fe:5a:88:bb:a1:43:56:e2:3e:60:dc:d5:b3:03:3f:
                    e6:12:7a:a3:1b:50:c7:7a:c3:d4:c3:a7:ef:2f:d3:
                    22:62:e4:2b:7e:1d:5c:da:e6:8d:f0:c0:79:1a:56:
                    bf:8e:b1:2d:b2:69:78:d3:f7:6e:cd:f4:d8:fd:1b:
                    de:9c:61:9b:16:c0:75:2c:f4:36:af:ef:a2:a6:c5:
                    08:a6:04:ed:3c:65:e2:0c:39:8e:85:cf:33:bd:8b:
                    e6:17:99:de:db:7e:d3:0d:f5:5e:da:d4:36:ed:1b:
                    ea:28:73:e7:53:18:0a:d3:bf:6b:ae:31:0c:0e:17:
                    72:95:64:ab:2d:30:f9:7b:16:bd:5b:b5:48:1b:6a:
                    82:ce:48:cf:07:54:6a:71:bd:ba:f6:47:ea:9b:12:
                    e9:a5:52:10:4e:32:de:71:6a:11:d5:7f:1b:9a:84:
                    85:7b:4a:38:61:5d:c8:72:fb:71:d2:93:d7:8e:9d:
                    3e:5d
                Exponent: 65537 (0x10001)
        X509v3 extensions:
            X509v3 Basic Constraints: 
                CA:FALSE
            Netscape Comment: 
                OpenSSL Generated Certificate
            X509v3 Subject Key Identifier: 
                84:86:CD:F4:5D:2C:82:5F:C4:DA:14:6C:19:AD:83:0E:E6:86:2B:6A
            X509v3 Authority Key Identifier: 
                keyid:79:02:16:CF:4A:A4:4B:68:14:15:80:F1:CA:4E:B0:2F:8E:B4:BA:5E

    Signature Algorithm: sha1WithRSAEncryption
         85:b8:a3:fb:f9:65:9d:66:78:1d:2a:a3:4e:6f:c9:4c:c1:15:
         83:db:60:7d:42:ec:5f:3c:fd:cd:12:44:34:18:ff:12:3f:cc:
         a7:93:61:df:4c:ee:18:ce:21:4c:19:9b:fb:30:d9:85:51:86:
         51:39:de:f0:f1:05:dc:ad:d9:33:0c:3a:23:2e:e4:3f:6e:94:
         8e:88:16:55:00:89:f4:26:f6:ab:ab:c6:18:5e:d4:35:a2:cd:
         cd:60:af:e4:7c:c0:2d:01:64:3b:4d:c6:3c:9d:57:8e:e8:2e:
         3e:a4:68:8d:c4:64:5e:8c:fe:0c:da:cb:1a:1b:cc:87:6d:0d:
         69:bd:bd:c4:ef:a1:f6:68:ed:cb:10:24:21:57:32:4a:2d:65:
         2b:5f:85:38:c4:a4:16:c3:3a:2d:0e:6e:d7:58:72:cc:9a:3a:
         f5:52:fe:95:94:35:8b:02:c6:fb:fb:55:e7:d0:86:db:d1:6e:
         c2:da:7a:79:9a:14:fc:bf:ea:02:33:c8:41:f5:51:cf:a0:c3:
         30:3b:1c:63:eb:60:0f:98:47:70:14:14:c2:61:20:18:24:80:
         36:fc:11:4e:c4:73:de:c4:a6:91:56:ab:1f:ca:3a:96:f2:a0:
         a3:de:0e:b3:bb:5c:fb:b7:ac:9b:26:8d:ff:a9:70:55:16:a7:
         ef:69:b4:fc
-----BEGIN CERTIFICATE-----
MIID4TCCAsmgAwIBAgIBPDANBgkqhkiG9w0BAQUFADBxMQswCQYDVQQGEwJDTjEQ
MA4GA1UECAwHQkVJSklORzEMMAoGA1UECgwDUEtVMRYwFAYDVQQLDA1NaWNyb1Nv
ZnR3YXJlMQ4wDAYDVQQDDAVMSUhBTzEaMBgGCSqGSIb3DQEJARYLaUBkaWd2YS5j
b20wHhcNMTMwNzA4MDczNzIzWhcNMTQwNzA4MDczNzIzWjB6MQswCQYDVQQGEwJD
TjELMAkGA1UECBMCQkoxCzAJBgNVBAcTAkJKMQwwCgYDVQQKEwNQS1UxCzAJBgNV
BAsTAlNTMRUwEwYDVQQDDAxQS0NTIzEwIFRlc3QxHzAdBgkqhkiG9w0BCQEWEHpo
YW5neW9uZ0BxcS5jb20wggEiMA0GCSqGSIb3DQEBAQUAA4IBDwAwggEKAoIBAQCR
FnbxvcumUao8bAXn1IiWKZ4f2BoInrem85Hzo9sseIQ5Akriv1uvjjrGaC7RT2sn
40CNdr3IcDK6IzexEhdlGA0qpx4X6XiUmf5aiLuhQ1biPmDc1bMDP+YSeqMbUMd6
w9TDp+8v0yJi5Ct+HVza5o3wwHkaVr+OsS2yaXjT927N9Nj9G96cYZsWwHUs9Dav
76KmxQimBO08ZeIMOY6FzzO9i+YXmd7bftMN9V7a1DbtG+ooc+dTGArTv2uuMQwO
F3KVZKstMPl7Fr1btUgbaoLOSM8HVGpxvbr2R+qbEumlUhBOMt5xahHVfxuahIV7
SjhhXchy+3HSk9eOnT5dAgMBAAGjezB5MAkGA1UdEwQCMAAwLAYJYIZIAYb4QgEN
BB8WHU9wZW5TU0wgR2VuZXJhdGVkIENlcnRpZmljYXRlMB0GA1UdDgQWBBSEhs30
XSyCX8TaFGwZrYMO5oYrajAfBgNVHSMEGDAWgBR5AhbPSqRLaBQVgPHKTrAvjrS6
XjANBgkqhkiG9w0BAQUFAAOCAQEAhbij+/llnWZ4HSqjTm/JTMEVg9tgfULsXzz9
zRJENBj/Ej/Mp5Nh30zuGM4hTBmb+zDZhVGGUTne8PEF3K3ZMww6Iy7kP26UjogW
VQCJ9Cb2q6vGGF7UNaLNzWCv5HzALQFkO03GPJ1XjuguPqRojcRkXoz+DNrLGhvM
h20Nab29xO+h9mjtyxAkIVcySi1lK1+FOMSkFsM6LQ5u11hyzJo69VL+lZQ1iwLG
+/tV59CG29Fuwtp6eZoU/L/qAjPIQfVRz6DDMDscY+tgD5hHcBQUwmEgGCSANvwR
TsRz3sSmkVarH8o6lvKgo94Os7tc+7esmyaN/6lwVRan72m0/A==
-----END CERTIFICATE-----
