Certificate:
    Data:
        Version: 3 (0x2)
        Serial Number: 61 (0x3d)
    Signature Algorithm: sha1WithRSAEncryption
        Issuer: C=CN, ST=BEIJING, O=PKU, OU=MicroSoftware, CN=LIHAO/emailAddress=i@digva.com
        Validity
            Not Before: Jul  8 07:40:04 2013 GMT
            Not After : Jul  8 07:40:04 2014 GMT
        Subject: C=CN, ST=BJ, L=BJ, O=PKU, OU=SS, CN=PKCS#10 Test/emailAddress=zhangyong@qq.com
        Subject Public Key Info:
            Public Key Algorithm: rsaEncryption
                Public-Key: (2048 bit)
                Modulus:
                    00:91:16:76:f1:bd:cb:a6:51:aa:3c:6c:05:e7:d4:
                    88:96:29:9e:1f:d8:1a:08:9e:b7:a6:f3:91:f3:a3:
                    db:2c:78:84:39:02:4a:e2:bf:5b:af:8e:3a:c6:68:
                    2e:d1:4f:6b:27:e3:40:8d:76:bd:c8:70:32:ba:23:
                    37:b1:12:17:65:18:0d:2a:a7:1e:17:e9:78:94:99:
                    fe:5a:88:bb:a1:43:56:e2:3e:60:dc:d5:b3:03:3f:
                    e6:12:7a:a3:1b:50:c7:7a:c3:d4:c3:a7:ef:2f:d3:
                    22:62:e4:2b:7e:1d:5c:da:e6:8d:f0:c0:79:1a:56:
                    bf:8e:b1:2d:b2:69:78:d3:f7:6e:cd:f4:d8:fd:1b:
                    de:9c:61:9b:16:c0:75:2c:f4:36:af:ef:a2:a6:c5:
                    08:a6:04:ed:3c:65:e2:0c:39:8e:85:cf:33:bd:8b:
                    e6:17:99:de:db:7e:d3:0d:f5:5e:da:d4:36:ed:1b:
                    ea:28:73:e7:53:18:0a:d3:bf:6b:ae:31:0c:0e:17:
                    72:95:64:ab:2d:30:f9:7b:16:bd:5b:b5:48:1b:6a:
                    82:ce:48:cf:07:54:6a:71:bd:ba:f6:47:ea:9b:12:
                    e9:a5:52:10:4e:32:de:71:6a:11:d5:7f:1b:9a:84:
                    85:7b:4a:38:61:5d:c8:72:fb:71:d2:93:d7:8e:9d:
                    3e:5d
                Exponent: 65537 (0x10001)
        X509v3 extensions:
            X509v3 Basic Constraints: 
                CA:FALSE
            Netscape Comment: 
                OpenSSL Generated Certificate
            X509v3 Subject Key Identifier: 
                84:86:CD:F4:5D:2C:82:5F:C4:DA:14:6C:19:AD:83:0E:E6:86:2B:6A
            X509v3 Authority Key Identifier: 
                keyid:79:02:16:CF:4A:A4:4B:68:14:15:80:F1:CA:4E:B0:2F:8E:B4:BA:5E

    Signature Algorithm: sha1WithRSAEncryption
         87:f8:75:43:f5:73:67:9a:99:16:b6:07:91:9c:71:eb:cb:c1:
         28:ef:c9:00:ff:23:a5:b4:d4:58:e0:1b:03:a7:df:e6:a1:02:
         a8:32:a5:ae:f8:49:ec:a5:46:d9:b6:3b:7a:a7:aa:e2:91:0f:
         f4:ca:5f:57:7e:61:44:98:05:8b:ef:c4:8f:9b:d6:73:f6:b9:
         37:50:08:5a:c0:90:c3:82:8d:48:06:f1:09:5f:09:66:6f:52:
         97:8e:89:b9:49:0a:3e:1a:97:dd:e3:c5:ff:e7:c3:96:c3:59:
         59:e9:18:23:de:ef:ca:75:4b:c6:e5:c4:65:08:a8:db:04:4f:
         de:52:59:58:5e:79:7e:24:ac:f7:17:10:0d:40:b5:67:19:2a:
         c5:07:bf:ee:ed:33:e6:35:57:6f:6c:9b:64:ec:24:10:47:5f:
         59:c3:41:98:dd:82:f6:14:f8:bf:ce:eb:e4:de:d3:35:60:c0:
         d3:0b:bf:f1:66:64:a1:51:09:fb:ed:ab:b8:d7:11:a8:ad:85:
         17:4e:2c:8c:cb:fd:3e:4c:57:ff:bb:90:d2:7f:49:9c:c9:d9:
         52:61:a4:78:74:a4:bf:f9:96:c9:fe:b4:04:4f:e4:99:71:eb:
         17:f2:b9:95:e3:10:81:78:b3:83:fc:c5:8f:2c:69:88:c0:9e:
         28:cd:c5:6d
-----BEGIN CERTIFICATE-----
MIID4TCCAsmgAwIBAgIBPTANBgkqhkiG9w0BAQUFADBxMQswCQYDVQQGEwJDTjEQ
MA4GA1UECAwHQkVJSklORzEMMAoGA1UECgwDUEtVMRYwFAYDVQQLDA1NaWNyb1Nv
ZnR3YXJlMQ4wDAYDVQQDDAVMSUhBTzEaMBgGCSqGSIb3DQEJARYLaUBkaWd2YS5j
b20wHhcNMTMwNzA4MDc0MDA0WhcNMTQwNzA4MDc0MDA0WjB6MQswCQYDVQQGEwJD
TjELMAkGA1UECBMCQkoxCzAJBgNVBAcTAkJKMQwwCgYDVQQKEwNQS1UxCzAJBgNV
BAsTAlNTMRUwEwYDVQQDDAxQS0NTIzEwIFRlc3QxHzAdBgkqhkiG9w0BCQEWEHpo
YW5neW9uZ0BxcS5jb20wggEiMA0GCSqGSIb3DQEBAQUAA4IBDwAwggEKAoIBAQCR
FnbxvcumUao8bAXn1IiWKZ4f2BoInrem85Hzo9sseIQ5Akriv1uvjjrGaC7RT2sn
40CNdr3IcDK6IzexEhdlGA0qpx4X6XiUmf5aiLuhQ1biPmDc1bMDP+YSeqMbUMd6
w9TDp+8v0yJi5Ct+HVza5o3wwHkaVr+OsS2yaXjT927N9Nj9G96cYZsWwHUs9Dav
76KmxQimBO08ZeIMOY6FzzO9i+YXmd7bftMN9V7a1DbtG+ooc+dTGArTv2uuMQwO
F3KVZKstMPl7Fr1btUgbaoLOSM8HVGpxvbr2R+qbEumlUhBOMt5xahHVfxuahIV7
SjhhXchy+3HSk9eOnT5dAgMBAAGjezB5MAkGA1UdEwQCMAAwLAYJYIZIAYb4QgEN
BB8WHU9wZW5TU0wgR2VuZXJhdGVkIENlcnRpZmljYXRlMB0GA1UdDgQWBBSEhs30
XSyCX8TaFGwZrYMO5oYrajAfBgNVHSMEGDAWgBR5AhbPSqRLaBQVgPHKTrAvjrS6
XjANBgkqhkiG9w0BAQUFAAOCAQEAh/h1Q/VzZ5qZFrYHkZxx68vBKO/JAP8jpbTU
WOAbA6ff5qECqDKlrvhJ7KVG2bY7eqeq4pEP9MpfV35hRJgFi+/Ej5vWc/a5N1AI
WsCQw4KNSAbxCV8JZm9Sl46JuUkKPhqX3ePF/+fDlsNZWekYI97vynVLxuXEZQio
2wRP3lJZWF55fiSs9xcQDUC1ZxkqxQe/7u0z5jVXb2ybZOwkEEdfWcNBmN2C9hT4
v87r5N7TNWDA0wu/8WZkoVEJ++2ruNcRqK2FF04sjMv9PkxX/7uQ0n9JnMnZUmGk
eHSkv/mWyf60BE/kmXHrF/K5leMQgXizg/zFjyxpiMCeKM3FbQ==
-----END CERTIFICATE-----
