Certificate:
    Data:
        Version: 3 (0x2)
        Serial Number: 62 (0x3e)
    Signature Algorithm: sha1WithRSAEncryption
        Issuer: C=CN, ST=BEIJING, O=PKU, OU=MicroSoftware, CN=LIHAO/emailAddress=i@digva.com
        Validity
            Not Before: Jul  8 08:12:17 2013 GMT
            Not After : Jul  8 08:12:17 2014 GMT
        Subject: C=CN, ST=BJ, L=BJ, O=PKU, OU=SS, CN=PKCS#10 Test/emailAddress=zhangyong@qq.com
        Subject Public Key Info:
            Public Key Algorithm: rsaEncryption
                Public-Key: (2048 bit)
                Modulus:
                    00:91:16:76:f1:bd:cb:a6:51:aa:3c:6c:05:e7:d4:
                    88:96:29:9e:1f:d8:1a:08:9e:b7:a6:f3:91:f3:a3:
                    db:2c:78:84:39:02:4a:e2:bf:5b:af:8e:3a:c6:68:
                    2e:d1:4f:6b:27:e3:40:8d:76:bd:c8:70:32:ba:23:
                    37:b1:12:17:65:18:0d:2a:a7:1e:17:e9:78:94:99:
                    fe:5a:88:bb:a1:43:56:e2:3e:60:dc:d5:b3:03:3f:
                    e6:12:7a:a3:1b:50:c7:7a:c3:d4:c3:a7:ef:2f:d3:
                    22:62:e4:2b:7e:1d:5c:da:e6:8d:f0:c0:79:1a:56:
                    bf:8e:b1:2d:b2:69:78:d3:f7:6e:cd:f4:d8:fd:1b:
                    de:9c:61:9b:16:c0:75:2c:f4:36:af:ef:a2:a6:c5:
                    08:a6:04:ed:3c:65:e2:0c:39:8e:85:cf:33:bd:8b:
                    e6:17:99:de:db:7e:d3:0d:f5:5e:da:d4:36:ed:1b:
                    ea:28:73:e7:53:18:0a:d3:bf:6b:ae:31:0c:0e:17:
                    72:95:64:ab:2d:30:f9:7b:16:bd:5b:b5:48:1b:6a:
                    82:ce:48:cf:07:54:6a:71:bd:ba:f6:47:ea:9b:12:
                    e9:a5:52:10:4e:32:de:71:6a:11:d5:7f:1b:9a:84:
                    85:7b:4a:38:61:5d:c8:72:fb:71:d2:93:d7:8e:9d:
                    3e:5d
                Exponent: 65537 (0x10001)
        X509v3 extensions:
            X509v3 Basic Constraints: 
                CA:FALSE
            Netscape Comment: 
                OpenSSL Generated Certificate
            X509v3 Subject Key Identifier: 
                84:86:CD:F4:5D:2C:82:5F:C4:DA:14:6C:19:AD:83:0E:E6:86:2B:6A
            X509v3 Authority Key Identifier: 
                keyid:79:02:16:CF:4A:A4:4B:68:14:15:80:F1:CA:4E:B0:2F:8E:B4:BA:5E

    Signature Algorithm: sha1WithRSAEncryption
         b7:f3:53:9b:d0:41:7d:8e:c2:d0:a8:d4:ce:b7:85:0f:5f:12:
         b1:2c:b6:2c:92:5d:32:ec:68:a3:74:da:bc:c6:ca:9c:45:4f:
         f1:2e:55:c0:28:98:b3:ba:06:70:b6:96:a0:73:a5:c0:57:d2:
         34:6a:d6:05:f9:6c:00:5f:8e:34:94:95:86:f5:00:34:a2:e3:
         e0:bd:fa:0c:0d:28:d0:7c:f8:73:e4:b5:3a:49:70:cc:64:b2:
         a6:d8:60:c3:fd:85:f3:16:18:68:66:21:67:89:70:42:e2:c3:
         0d:57:46:a8:0a:f3:d6:ed:a1:fa:3f:ea:11:03:73:c6:a9:2e:
         fd:95:cd:74:9b:bd:08:3c:ef:a4:02:fe:56:0e:89:f9:f3:a7:
         db:ca:3e:dc:34:81:ef:8b:48:73:5f:33:c4:f9:07:6f:f9:fd:
         cd:39:1a:84:8b:e8:05:cb:4c:13:38:2f:76:5b:db:9e:df:00:
         a6:a8:a5:e8:62:1b:d5:4c:62:4e:fe:a6:fc:56:ad:80:20:13:
         e5:63:34:5d:7f:88:07:34:f8:db:65:00:2a:34:71:9f:79:b5:
         33:dc:f7:a9:bb:15:7e:ef:b3:71:a0:8b:dc:41:9a:12:c4:a5:
         99:cf:90:3c:43:6c:3a:c6:0b:1e:c9:37:b2:7c:a7:ce:d4:b2:
         b0:5f:43:95
-----BEGIN CERTIFICATE-----
MIID4TCCAsmgAwIBAgIBPjANBgkqhkiG9w0BAQUFADBxMQswCQYDVQQGEwJDTjEQ
MA4GA1UECAwHQkVJSklORzEMMAoGA1UECgwDUEtVMRYwFAYDVQQLDA1NaWNyb1Nv
ZnR3YXJlMQ4wDAYDVQQDDAVMSUhBTzEaMBgGCSqGSIb3DQEJARYLaUBkaWd2YS5j
b20wHhcNMTMwNzA4MDgxMjE3WhcNMTQwNzA4MDgxMjE3WjB6MQswCQYDVQQGEwJD
TjELMAkGA1UECBMCQkoxCzAJBgNVBAcTAkJKMQwwCgYDVQQKEwNQS1UxCzAJBgNV
BAsTAlNTMRUwEwYDVQQDDAxQS0NTIzEwIFRlc3QxHzAdBgkqhkiG9w0BCQEWEHpo
YW5neW9uZ0BxcS5jb20wggEiMA0GCSqGSIb3DQEBAQUAA4IBDwAwggEKAoIBAQCR
FnbxvcumUao8bAXn1IiWKZ4f2BoInrem85Hzo9sseIQ5Akriv1uvjjrGaC7RT2sn
40CNdr3IcDK6IzexEhdlGA0qpx4X6XiUmf5aiLuhQ1biPmDc1bMDP+YSeqMbUMd6
w9TDp+8v0yJi5Ct+HVza5o3wwHkaVr+OsS2yaXjT927N9Nj9G96cYZsWwHUs9Dav
76KmxQimBO08ZeIMOY6FzzO9i+YXmd7bftMN9V7a1DbtG+ooc+dTGArTv2uuMQwO
F3KVZKstMPl7Fr1btUgbaoLOSM8HVGpxvbr2R+qbEumlUhBOMt5xahHVfxuahIV7
SjhhXchy+3HSk9eOnT5dAgMBAAGjezB5MAkGA1UdEwQCMAAwLAYJYIZIAYb4QgEN
BB8WHU9wZW5TU0wgR2VuZXJhdGVkIENlcnRpZmljYXRlMB0GA1UdDgQWBBSEhs30
XSyCX8TaFGwZrYMO5oYrajAfBgNVHSMEGDAWgBR5AhbPSqRLaBQVgPHKTrAvjrS6
XjANBgkqhkiG9w0BAQUFAAOCAQEAt/NTm9BBfY7C0KjUzreFD18SsSy2LJJdMuxo
o3TavMbKnEVP8S5VwCiYs7oGcLaWoHOlwFfSNGrWBflsAF+ONJSVhvUANKLj4L36
DA0o0Hz4c+S1OklwzGSypthgw/2F8xYYaGYhZ4lwQuLDDVdGqArz1u2h+j/qEQNz
xqku/ZXNdJu9CDzvpAL+Vg6J+fOn28o+3DSB74tIc18zxPkHb/n9zTkahIvoBctM
Ezgvdlvbnt8Apqil6GIb1UxiTv6m/FatgCAT5WM0XX+IBzT422UAKjRxn3m1M9z3
qbsVfu+zcaCL3EGaEsSlmc+QPENsOsYLHsk3snynztSysF9DlQ==
-----END CERTIFICATE-----
