Certificate:
    Data:
        Version: 3 (0x2)
        Serial Number: 63 (0x3f)
    Signature Algorithm: sha1WithRSAEncryption
        Issuer: C=CN, ST=BEIJING, O=PKU, OU=MicroSoftware, CN=LIHAO/emailAddress=i@digva.com
        Validity
            Not Before: Jul  8 08:17:18 2013 GMT
            Not After : Jul  8 08:17:18 2014 GMT
        Subject: C=CN, ST=BJ, L=BJ, O=PKU, OU=SS, CN=PKCS#10 Test/emailAddress=zhangyong@qq.com
        Subject Public Key Info:
            Public Key Algorithm: rsaEncryption
                Public-Key: (2048 bit)
                Modulus:
                    00:91:16:76:f1:bd:cb:a6:51:aa:3c:6c:05:e7:d4:
                    88:96:29:9e:1f:d8:1a:08:9e:b7:a6:f3:91:f3:a3:
                    db:2c:78:84:39:02:4a:e2:bf:5b:af:8e:3a:c6:68:
                    2e:d1:4f:6b:27:e3:40:8d:76:bd:c8:70:32:ba:23:
                    37:b1:12:17:65:18:0d:2a:a7:1e:17:e9:78:94:99:
                    fe:5a:88:bb:a1:43:56:e2:3e:60:dc:d5:b3:03:3f:
                    e6:12:7a:a3:1b:50:c7:7a:c3:d4:c3:a7:ef:2f:d3:
                    22:62:e4:2b:7e:1d:5c:da:e6:8d:f0:c0:79:1a:56:
                    bf:8e:b1:2d:b2:69:78:d3:f7:6e:cd:f4:d8:fd:1b:
                    de:9c:61:9b:16:c0:75:2c:f4:36:af:ef:a2:a6:c5:
                    08:a6:04:ed:3c:65:e2:0c:39:8e:85:cf:33:bd:8b:
                    e6:17:99:de:db:7e:d3:0d:f5:5e:da:d4:36:ed:1b:
                    ea:28:73:e7:53:18:0a:d3:bf:6b:ae:31:0c:0e:17:
                    72:95:64:ab:2d:30:f9:7b:16:bd:5b:b5:48:1b:6a:
                    82:ce:48:cf:07:54:6a:71:bd:ba:f6:47:ea:9b:12:
                    e9:a5:52:10:4e:32:de:71:6a:11:d5:7f:1b:9a:84:
                    85:7b:4a:38:61:5d:c8:72:fb:71:d2:93:d7:8e:9d:
                    3e:5d
                Exponent: 65537 (0x10001)
        X509v3 extensions:
            X509v3 Basic Constraints: 
                CA:FALSE
            Netscape Comment: 
                OpenSSL Generated Certificate
            X509v3 Subject Key Identifier: 
                84:86:CD:F4:5D:2C:82:5F:C4:DA:14:6C:19:AD:83:0E:E6:86:2B:6A
            X509v3 Authority Key Identifier: 
                keyid:79:02:16:CF:4A:A4:4B:68:14:15:80:F1:CA:4E:B0:2F:8E:B4:BA:5E

    Signature Algorithm: sha1WithRSAEncryption
         6e:af:fa:3d:8c:ba:05:90:bc:cb:61:5f:15:2e:e4:43:dd:dc:
         cd:e7:bf:b2:2c:8f:a0:51:9c:8c:31:9d:93:4d:e5:d5:02:ec:
         4d:30:16:00:61:09:49:ca:9d:70:ee:94:b6:4d:bf:b0:b0:c4:
         b7:3d:e3:15:4d:45:ef:3d:bb:bb:da:3c:1b:26:dd:2d:a4:77:
         5e:88:61:ba:ac:09:e1:4b:c0:b3:bf:cc:3e:f3:5c:fc:af:61:
         7d:c2:db:d6:03:a5:b5:0c:9e:7e:aa:79:a8:ef:0a:ff:9b:14:
         ff:d2:9b:96:ee:6b:df:73:d1:f7:4c:c2:17:6f:5a:d6:5a:28:
         5c:f0:ab:71:07:d1:f2:40:64:34:d9:f4:d2:a6:ec:f2:9f:81:
         04:a4:6e:6a:00:0c:f6:42:dc:15:70:79:50:97:fd:7f:f9:86:
         b1:e2:f3:97:c0:6b:43:9a:b4:be:6e:6a:b6:02:e0:30:1a:4d:
         ae:f8:e6:02:71:d0:b0:fd:2e:8d:1a:ed:f4:b7:a9:97:9a:52:
         fb:ce:cc:72:a8:7f:33:cc:b1:8e:9d:37:64:c4:76:ba:bf:7c:
         a2:8a:9e:51:06:51:c2:67:98:cd:42:96:f6:bd:1c:64:cf:c2:
         ad:d0:1b:8a:3d:8f:74:73:55:fd:cb:ba:23:09:68:40:5b:95:
         f7:a4:0c:c7
-----BEGIN CERTIFICATE-----
MIID4TCCAsmgAwIBAgIBPzANBgkqhkiG9w0BAQUFADBxMQswCQYDVQQGEwJDTjEQ
MA4GA1UECAwHQkVJSklORzEMMAoGA1UECgwDUEtVMRYwFAYDVQQLDA1NaWNyb1Nv
ZnR3YXJlMQ4wDAYDVQQDDAVMSUhBTzEaMBgGCSqGSIb3DQEJARYLaUBkaWd2YS5j
b20wHhcNMTMwNzA4MDgxNzE4WhcNMTQwNzA4MDgxNzE4WjB6MQswCQYDVQQGEwJD
TjELMAkGA1UECBMCQkoxCzAJBgNVBAcTAkJKMQwwCgYDVQQKEwNQS1UxCzAJBgNV
BAsTAlNTMRUwEwYDVQQDDAxQS0NTIzEwIFRlc3QxHzAdBgkqhkiG9w0BCQEWEHpo
YW5neW9uZ0BxcS5jb20wggEiMA0GCSqGSIb3DQEBAQUAA4IBDwAwggEKAoIBAQCR
FnbxvcumUao8bAXn1IiWKZ4f2BoInrem85Hzo9sseIQ5Akriv1uvjjrGaC7RT2sn
40CNdr3IcDK6IzexEhdlGA0qpx4X6XiUmf5aiLuhQ1biPmDc1bMDP+YSeqMbUMd6
w9TDp+8v0yJi5Ct+HVza5o3wwHkaVr+OsS2yaXjT927N9Nj9G96cYZsWwHUs9Dav
76KmxQimBO08ZeIMOY6FzzO9i+YXmd7bftMN9V7a1DbtG+ooc+dTGArTv2uuMQwO
F3KVZKstMPl7Fr1btUgbaoLOSM8HVGpxvbr2R+qbEumlUhBOMt5xahHVfxuahIV7
SjhhXchy+3HSk9eOnT5dAgMBAAGjezB5MAkGA1UdEwQCMAAwLAYJYIZIAYb4QgEN
BB8WHU9wZW5TU0wgR2VuZXJhdGVkIENlcnRpZmljYXRlMB0GA1UdDgQWBBSEhs30
XSyCX8TaFGwZrYMO5oYrajAfBgNVHSMEGDAWgBR5AhbPSqRLaBQVgPHKTrAvjrS6
XjANBgkqhkiG9w0BAQUFAAOCAQEAbq/6PYy6BZC8y2FfFS7kQ93czee/siyPoFGc
jDGdk03l1QLsTTAWAGEJScqdcO6Utk2/sLDEtz3jFU1F7z27u9o8GybdLaR3Xohh
uqwJ4UvAs7/MPvNc/K9hfcLb1gOltQyefqp5qO8K/5sU/9Kblu5r33PR90zCF29a
1looXPCrcQfR8kBkNNn00qbs8p+BBKRuagAM9kLcFXB5UJf9f/mGseLzl8BrQ5q0
vm5qtgLgMBpNrvjmAnHQsP0ujRrt9Lepl5pS+87Mcqh/M8yxjp03ZMR2ur98ooqe
UQZRwmeYzUKW9r0cZM/CrdAbij2PdHNV/cu6IwloQFuV96QMxw==
-----END CERTIFICATE-----
