Certificate:
    Data:
        Version: 3 (0x2)
        Serial Number: 64 (0x40)
    Signature Algorithm: sha1WithRSAEncryption
        Issuer: C=CN, ST=BEIJING, O=PKU, OU=MicroSoftware, CN=LIHAO/emailAddress=i@digva.com
        Validity
            Not Before: Jul  8 08:21:50 2013 GMT
            Not After : Jul  8 08:21:50 2014 GMT
        Subject: C=CN, ST=BJ, L=BJ, O=PKU, OU=SS, CN=PKCS#10 Test/emailAddress=zhangyong@qq.com
        Subject Public Key Info:
            Public Key Algorithm: rsaEncryption
                Public-Key: (2048 bit)
                Modulus:
                    00:91:16:76:f1:bd:cb:a6:51:aa:3c:6c:05:e7:d4:
                    88:96:29:9e:1f:d8:1a:08:9e:b7:a6:f3:91:f3:a3:
                    db:2c:78:84:39:02:4a:e2:bf:5b:af:8e:3a:c6:68:
                    2e:d1:4f:6b:27:e3:40:8d:76:bd:c8:70:32:ba:23:
                    37:b1:12:17:65:18:0d:2a:a7:1e:17:e9:78:94:99:
                    fe:5a:88:bb:a1:43:56:e2:3e:60:dc:d5:b3:03:3f:
                    e6:12:7a:a3:1b:50:c7:7a:c3:d4:c3:a7:ef:2f:d3:
                    22:62:e4:2b:7e:1d:5c:da:e6:8d:f0:c0:79:1a:56:
                    bf:8e:b1:2d:b2:69:78:d3:f7:6e:cd:f4:d8:fd:1b:
                    de:9c:61:9b:16:c0:75:2c:f4:36:af:ef:a2:a6:c5:
                    08:a6:04:ed:3c:65:e2:0c:39:8e:85:cf:33:bd:8b:
                    e6:17:99:de:db:7e:d3:0d:f5:5e:da:d4:36:ed:1b:
                    ea:28:73:e7:53:18:0a:d3:bf:6b:ae:31:0c:0e:17:
                    72:95:64:ab:2d:30:f9:7b:16:bd:5b:b5:48:1b:6a:
                    82:ce:48:cf:07:54:6a:71:bd:ba:f6:47:ea:9b:12:
                    e9:a5:52:10:4e:32:de:71:6a:11:d5:7f:1b:9a:84:
                    85:7b:4a:38:61:5d:c8:72:fb:71:d2:93:d7:8e:9d:
                    3e:5d
                Exponent: 65537 (0x10001)
        X509v3 extensions:
            X509v3 Basic Constraints: 
                CA:FALSE
            Netscape Comment: 
                OpenSSL Generated Certificate
            X509v3 Subject Key Identifier: 
                84:86:CD:F4:5D:2C:82:5F:C4:DA:14:6C:19:AD:83:0E:E6:86:2B:6A
            X509v3 Authority Key Identifier: 
                keyid:79:02:16:CF:4A:A4:4B:68:14:15:80:F1:CA:4E:B0:2F:8E:B4:BA:5E

    Signature Algorithm: sha1WithRSAEncryption
         71:fd:72:0d:cd:56:f5:cf:6f:2c:0f:2f:4d:2f:86:85:18:11:
         5c:90:c0:00:85:15:96:b2:c3:b7:57:a7:be:c1:18:3e:d1:4c:
         72:9b:50:73:e0:3a:45:a1:98:f2:62:e0:a1:81:76:10:61:d5:
         73:fe:79:53:1a:40:9b:d9:b3:56:92:72:6f:37:ce:4e:39:e4:
         e8:db:ee:47:f9:12:f7:b0:c8:40:ca:f9:41:d7:01:0f:00:5a:
         df:30:ca:38:e8:14:02:82:45:1c:92:e2:77:5a:a8:92:36:2b:
         a1:dd:75:dc:df:63:ee:95:a7:11:c1:fc:a0:a7:98:5d:bb:eb:
         d0:5c:c6:27:1c:85:23:bc:60:85:e1:73:ec:94:7a:bc:94:38:
         e6:37:b5:fa:fb:44:f3:26:08:1d:12:48:20:d6:82:37:51:6e:
         b0:5e:a2:26:d7:ed:93:af:e5:ea:9a:3c:93:19:71:8b:c3:ca:
         ad:e0:14:46:6c:e8:32:d7:7b:88:8e:c9:76:58:4f:31:ff:7f:
         81:09:db:62:9d:96:0b:c4:58:ff:2c:ef:c9:a0:3f:92:4b:b7:
         11:59:7a:89:90:d3:c9:6e:95:78:7f:b8:0e:3e:5f:a2:e8:e5:
         a3:6c:33:1d:f7:ee:15:4c:92:03:3d:93:38:8a:58:4a:b0:e2:
         1c:95:2a:8a
-----BEGIN CERTIFICATE-----
MIID4TCCAsmgAwIBAgIBQDANBgkqhkiG9w0BAQUFADBxMQswCQYDVQQGEwJDTjEQ
MA4GA1UECAwHQkVJSklORzEMMAoGA1UECgwDUEtVMRYwFAYDVQQLDA1NaWNyb1Nv
ZnR3YXJlMQ4wDAYDVQQDDAVMSUhBTzEaMBgGCSqGSIb3DQEJARYLaUBkaWd2YS5j
b20wHhcNMTMwNzA4MDgyMTUwWhcNMTQwNzA4MDgyMTUwWjB6MQswCQYDVQQGEwJD
TjELMAkGA1UECBMCQkoxCzAJBgNVBAcTAkJKMQwwCgYDVQQKEwNQS1UxCzAJBgNV
BAsTAlNTMRUwEwYDVQQDDAxQS0NTIzEwIFRlc3QxHzAdBgkqhkiG9w0BCQEWEHpo
YW5neW9uZ0BxcS5jb20wggEiMA0GCSqGSIb3DQEBAQUAA4IBDwAwggEKAoIBAQCR
FnbxvcumUao8bAXn1IiWKZ4f2BoInrem85Hzo9sseIQ5Akriv1uvjjrGaC7RT2sn
40CNdr3IcDK6IzexEhdlGA0qpx4X6XiUmf5aiLuhQ1biPmDc1bMDP+YSeqMbUMd6
w9TDp+8v0yJi5Ct+HVza5o3wwHkaVr+OsS2yaXjT927N9Nj9G96cYZsWwHUs9Dav
76KmxQimBO08ZeIMOY6FzzO9i+YXmd7bftMN9V7a1DbtG+ooc+dTGArTv2uuMQwO
F3KVZKstMPl7Fr1btUgbaoLOSM8HVGpxvbr2R+qbEumlUhBOMt5xahHVfxuahIV7
SjhhXchy+3HSk9eOnT5dAgMBAAGjezB5MAkGA1UdEwQCMAAwLAYJYIZIAYb4QgEN
BB8WHU9wZW5TU0wgR2VuZXJhdGVkIENlcnRpZmljYXRlMB0GA1UdDgQWBBSEhs30
XSyCX8TaFGwZrYMO5oYrajAfBgNVHSMEGDAWgBR5AhbPSqRLaBQVgPHKTrAvjrS6
XjANBgkqhkiG9w0BAQUFAAOCAQEAcf1yDc1W9c9vLA8vTS+GhRgRXJDAAIUVlrLD
t1envsEYPtFMcptQc+A6RaGY8mLgoYF2EGHVc/55UxpAm9mzVpJybzfOTjnk6Nvu
R/kS97DIQMr5QdcBDwBa3zDKOOgUAoJFHJLid1qokjYrod113N9j7pWnEcH8oKeY
Xbvr0FzGJxyFI7xgheFz7JR6vJQ45je1+vtE8yYIHRJIINaCN1FusF6iJtftk6/l
6po8kxlxi8PKreAURmzoMtd7iI7JdlhPMf9/gQnbYp2WC8RY/yzvyaA/kku3EVl6
iZDTyW6VeH+4Dj5foujlo2wzHffuFUySAz2TOIpYSrDiHJUqig==
-----END CERTIFICATE-----
