Certificate:
    Data:
        Version: 3 (0x2)
        Serial Number: 65 (0x41)
    Signature Algorithm: sha1WithRSAEncryption
        Issuer: C=CN, ST=BEIJING, O=PKU, OU=MicroSoftware, CN=LIHAO/emailAddress=i@digva.com
        Validity
            Not Before: Jul  8 08:23:07 2013 GMT
            Not After : Jul  8 08:23:07 2014 GMT
        Subject: C=CN, ST=BJ, L=BJ, O=PKU, OU=SS, CN=PKCS#10 Test/emailAddress=zhangyong@qq.com
        Subject Public Key Info:
            Public Key Algorithm: rsaEncryption
                Public-Key: (2048 bit)
                Modulus:
                    00:91:16:76:f1:bd:cb:a6:51:aa:3c:6c:05:e7:d4:
                    88:96:29:9e:1f:d8:1a:08:9e:b7:a6:f3:91:f3:a3:
                    db:2c:78:84:39:02:4a:e2:bf:5b:af:8e:3a:c6:68:
                    2e:d1:4f:6b:27:e3:40:8d:76:bd:c8:70:32:ba:23:
                    37:b1:12:17:65:18:0d:2a:a7:1e:17:e9:78:94:99:
                    fe:5a:88:bb:a1:43:56:e2:3e:60:dc:d5:b3:03:3f:
                    e6:12:7a:a3:1b:50:c7:7a:c3:d4:c3:a7:ef:2f:d3:
                    22:62:e4:2b:7e:1d:5c:da:e6:8d:f0:c0:79:1a:56:
                    bf:8e:b1:2d:b2:69:78:d3:f7:6e:cd:f4:d8:fd:1b:
                    de:9c:61:9b:16:c0:75:2c:f4:36:af:ef:a2:a6:c5:
                    08:a6:04:ed:3c:65:e2:0c:39:8e:85:cf:33:bd:8b:
                    e6:17:99:de:db:7e:d3:0d:f5:5e:da:d4:36:ed:1b:
                    ea:28:73:e7:53:18:0a:d3:bf:6b:ae:31:0c:0e:17:
                    72:95:64:ab:2d:30:f9:7b:16:bd:5b:b5:48:1b:6a:
                    82:ce:48:cf:07:54:6a:71:bd:ba:f6:47:ea:9b:12:
                    e9:a5:52:10:4e:32:de:71:6a:11:d5:7f:1b:9a:84:
                    85:7b:4a:38:61:5d:c8:72:fb:71:d2:93:d7:8e:9d:
                    3e:5d
                Exponent: 65537 (0x10001)
        X509v3 extensions:
            X509v3 Basic Constraints: 
                CA:FALSE
            Netscape Comment: 
                OpenSSL Generated Certificate
            X509v3 Subject Key Identifier: 
                84:86:CD:F4:5D:2C:82:5F:C4:DA:14:6C:19:AD:83:0E:E6:86:2B:6A
            X509v3 Authority Key Identifier: 
                keyid:79:02:16:CF:4A:A4:4B:68:14:15:80:F1:CA:4E:B0:2F:8E:B4:BA:5E

    Signature Algorithm: sha1WithRSAEncryption
         98:39:3f:1e:b0:72:df:54:7f:31:68:77:ef:b7:f3:2f:3f:5f:
         19:0a:b8:c4:31:e0:aa:b2:cb:c5:bc:90:8c:f4:81:17:97:e0:
         20:f5:32:78:78:83:6c:9f:c6:07:e3:75:37:8e:33:5a:dd:03:
         53:96:29:d9:24:c4:0a:72:11:97:de:a2:4e:09:7d:55:79:4c:
         ad:9d:47:fe:c1:8c:4d:0e:36:7c:ec:78:c8:0b:83:e8:91:7b:
         69:f4:cc:a7:0a:85:4b:33:87:73:b2:8c:67:94:ac:b3:c1:30:
         3f:a0:88:90:82:7d:47:ef:db:c6:a8:ed:d5:68:da:9a:82:c2:
         5b:37:1f:fd:f8:08:e7:ce:7e:18:22:b7:07:0b:73:63:ff:b4:
         9e:03:ab:76:d9:3f:db:95:71:a5:57:11:2c:72:9d:d7:04:02:
         b1:6d:0a:fd:c2:c3:d1:9c:5c:31:01:00:ad:34:26:03:3c:cf:
         2b:b7:c5:62:ec:de:3d:c3:95:eb:26:0a:d8:06:f3:89:b7:c1:
         fa:b9:ef:a4:9a:5e:53:ce:79:fb:69:2c:51:33:2a:d3:1f:20:
         3a:9d:69:30:37:86:e2:2f:e1:d4:ed:98:d3:4e:b3:23:59:a4:
         84:85:38:e2:8c:c1:bf:cc:9b:52:c6:82:9b:7b:f4:8a:4c:df:
         0b:55:f7:f3
-----BEGIN CERTIFICATE-----
MIID4TCCAsmgAwIBAgIBQTANBgkqhkiG9w0BAQUFADBxMQswCQYDVQQGEwJDTjEQ
MA4GA1UECAwHQkVJSklORzEMMAoGA1UECgwDUEtVMRYwFAYDVQQLDA1NaWNyb1Nv
ZnR3YXJlMQ4wDAYDVQQDDAVMSUhBTzEaMBgGCSqGSIb3DQEJARYLaUBkaWd2YS5j
b20wHhcNMTMwNzA4MDgyMzA3WhcNMTQwNzA4MDgyMzA3WjB6MQswCQYDVQQGEwJD
TjELMAkGA1UECBMCQkoxCzAJBgNVBAcTAkJKMQwwCgYDVQQKEwNQS1UxCzAJBgNV
BAsTAlNTMRUwEwYDVQQDDAxQS0NTIzEwIFRlc3QxHzAdBgkqhkiG9w0BCQEWEHpo
YW5neW9uZ0BxcS5jb20wggEiMA0GCSqGSIb3DQEBAQUAA4IBDwAwggEKAoIBAQCR
FnbxvcumUao8bAXn1IiWKZ4f2BoInrem85Hzo9sseIQ5Akriv1uvjjrGaC7RT2sn
40CNdr3IcDK6IzexEhdlGA0qpx4X6XiUmf5aiLuhQ1biPmDc1bMDP+YSeqMbUMd6
w9TDp+8v0yJi5Ct+HVza5o3wwHkaVr+OsS2yaXjT927N9Nj9G96cYZsWwHUs9Dav
76KmxQimBO08ZeIMOY6FzzO9i+YXmd7bftMN9V7a1DbtG+ooc+dTGArTv2uuMQwO
F3KVZKstMPl7Fr1btUgbaoLOSM8HVGpxvbr2R+qbEumlUhBOMt5xahHVfxuahIV7
SjhhXchy+3HSk9eOnT5dAgMBAAGjezB5MAkGA1UdEwQCMAAwLAYJYIZIAYb4QgEN
BB8WHU9wZW5TU0wgR2VuZXJhdGVkIENlcnRpZmljYXRlMB0GA1UdDgQWBBSEhs30
XSyCX8TaFGwZrYMO5oYrajAfBgNVHSMEGDAWgBR5AhbPSqRLaBQVgPHKTrAvjrS6
XjANBgkqhkiG9w0BAQUFAAOCAQEAmDk/HrBy31R/MWh377fzLz9fGQq4xDHgqrLL
xbyQjPSBF5fgIPUyeHiDbJ/GB+N1N44zWt0DU5Yp2STECnIRl96iTgl9VXlMrZ1H
/sGMTQ42fOx4yAuD6JF7afTMpwqFSzOHc7KMZ5Sss8EwP6CIkIJ9R+/bxqjt1Wja
moLCWzcf/fgI585+GCK3BwtzY/+0ngOrdtk/25VxpVcRLHKd1wQCsW0K/cLD0Zxc
MQEArTQmAzzPK7fFYuzePcOV6yYK2AbzibfB+rnvpJpeU855+2ksUTMq0x8gOp1p
MDeG4i/h1O2Y006zI1mkhIU44ozBv8ybUsaCm3v0ikzfC1X38w==
-----END CERTIFICATE-----
