Certificate:
    Data:
        Version: 3 (0x2)
        Serial Number: 66 (0x42)
    Signature Algorithm: sha1WithRSAEncryption
        Issuer: C=CN, ST=BEIJING, O=PKU, OU=MicroSoftware, CN=LIHAO/emailAddress=i@digva.com
        Validity
            Not Before: Jul  8 08:26:25 2013 GMT
            Not After : Jul  8 08:26:25 2014 GMT
        Subject: C=CN, ST=BJ, L=BJ, O=PKU, OU=SS, CN=PKCS#10 Test/emailAddress=zhangyong@qq.com
        Subject Public Key Info:
            Public Key Algorithm: rsaEncryption
                Public-Key: (2048 bit)
                Modulus:
                    00:91:16:76:f1:bd:cb:a6:51:aa:3c:6c:05:e7:d4:
                    88:96:29:9e:1f:d8:1a:08:9e:b7:a6:f3:91:f3:a3:
                    db:2c:78:84:39:02:4a:e2:bf:5b:af:8e:3a:c6:68:
                    2e:d1:4f:6b:27:e3:40:8d:76:bd:c8:70:32:ba:23:
                    37:b1:12:17:65:18:0d:2a:a7:1e:17:e9:78:94:99:
                    fe:5a:88:bb:a1:43:56:e2:3e:60:dc:d5:b3:03:3f:
                    e6:12:7a:a3:1b:50:c7:7a:c3:d4:c3:a7:ef:2f:d3:
                    22:62:e4:2b:7e:1d:5c:da:e6:8d:f0:c0:79:1a:56:
                    bf:8e:b1:2d:b2:69:78:d3:f7:6e:cd:f4:d8:fd:1b:
                    de:9c:61:9b:16:c0:75:2c:f4:36:af:ef:a2:a6:c5:
                    08:a6:04:ed:3c:65:e2:0c:39:8e:85:cf:33:bd:8b:
                    e6:17:99:de:db:7e:d3:0d:f5:5e:da:d4:36:ed:1b:
                    ea:28:73:e7:53:18:0a:d3:bf:6b:ae:31:0c:0e:17:
                    72:95:64:ab:2d:30:f9:7b:16:bd:5b:b5:48:1b:6a:
                    82:ce:48:cf:07:54:6a:71:bd:ba:f6:47:ea:9b:12:
                    e9:a5:52:10:4e:32:de:71:6a:11:d5:7f:1b:9a:84:
                    85:7b:4a:38:61:5d:c8:72:fb:71:d2:93:d7:8e:9d:
                    3e:5d
                Exponent: 65537 (0x10001)
        X509v3 extensions:
            X509v3 Basic Constraints: 
                CA:FALSE
            Netscape Comment: 
                OpenSSL Generated Certificate
            X509v3 Subject Key Identifier: 
                84:86:CD:F4:5D:2C:82:5F:C4:DA:14:6C:19:AD:83:0E:E6:86:2B:6A
            X509v3 Authority Key Identifier: 
                keyid:79:02:16:CF:4A:A4:4B:68:14:15:80:F1:CA:4E:B0:2F:8E:B4:BA:5E

    Signature Algorithm: sha1WithRSAEncryption
         3c:c0:22:84:5a:a7:3c:74:3f:0a:ad:2c:ad:5b:93:9c:9f:1e:
         43:1f:84:10:f8:10:a8:48:52:3c:69:e6:63:81:c2:c7:23:e5:
         2c:dc:68:8f:0d:58:37:43:94:da:66:40:83:bd:5b:70:8e:67:
         9a:96:e2:5e:5c:03:6e:02:f7:cb:f7:ac:7d:f6:9a:80:39:4c:
         10:74:73:8c:c3:dd:ae:fb:7b:52:8d:41:7d:22:d0:78:87:af:
         1a:d2:3a:d8:f0:04:78:65:f9:98:c4:84:cc:29:60:04:8b:8b:
         0b:1a:65:03:71:3f:19:0d:5a:50:f7:ef:7b:77:e4:28:9b:cb:
         a3:b6:5d:0b:4e:ba:79:39:b7:e5:ee:6f:3b:81:b0:19:ae:97:
         a2:6b:ef:1f:c3:64:75:c6:4f:bf:5e:10:93:9f:c3:e2:1c:4a:
         67:d7:d3:6a:cb:2b:40:de:76:93:63:44:4e:89:66:0c:e4:8c:
         b4:39:2d:c3:6a:3b:83:60:48:ea:13:c7:96:5b:d0:01:67:db:
         15:94:a1:78:73:e1:65:17:6f:aa:04:22:02:45:ab:65:1b:f2:
         a9:96:ac:c9:53:80:a2:d0:a7:df:3e:26:cf:a8:72:86:2f:a7:
         bf:2d:ed:84:34:93:83:86:ee:8e:a1:7b:99:b5:46:a2:2e:fd:
         16:e6:a8:89
-----BEGIN CERTIFICATE-----
MIID4TCCAsmgAwIBAgIBQjANBgkqhkiG9w0BAQUFADBxMQswCQYDVQQGEwJDTjEQ
MA4GA1UECAwHQkVJSklORzEMMAoGA1UECgwDUEtVMRYwFAYDVQQLDA1NaWNyb1Nv
ZnR3YXJlMQ4wDAYDVQQDDAVMSUhBTzEaMBgGCSqGSIb3DQEJARYLaUBkaWd2YS5j
b20wHhcNMTMwNzA4MDgyNjI1WhcNMTQwNzA4MDgyNjI1WjB6MQswCQYDVQQGEwJD
TjELMAkGA1UECBMCQkoxCzAJBgNVBAcTAkJKMQwwCgYDVQQKEwNQS1UxCzAJBgNV
BAsTAlNTMRUwEwYDVQQDDAxQS0NTIzEwIFRlc3QxHzAdBgkqhkiG9w0BCQEWEHpo
YW5neW9uZ0BxcS5jb20wggEiMA0GCSqGSIb3DQEBAQUAA4IBDwAwggEKAoIBAQCR
FnbxvcumUao8bAXn1IiWKZ4f2BoInrem85Hzo9sseIQ5Akriv1uvjjrGaC7RT2sn
40CNdr3IcDK6IzexEhdlGA0qpx4X6XiUmf5aiLuhQ1biPmDc1bMDP+YSeqMbUMd6
w9TDp+8v0yJi5Ct+HVza5o3wwHkaVr+OsS2yaXjT927N9Nj9G96cYZsWwHUs9Dav
76KmxQimBO08ZeIMOY6FzzO9i+YXmd7bftMN9V7a1DbtG+ooc+dTGArTv2uuMQwO
F3KVZKstMPl7Fr1btUgbaoLOSM8HVGpxvbr2R+qbEumlUhBOMt5xahHVfxuahIV7
SjhhXchy+3HSk9eOnT5dAgMBAAGjezB5MAkGA1UdEwQCMAAwLAYJYIZIAYb4QgEN
BB8WHU9wZW5TU0wgR2VuZXJhdGVkIENlcnRpZmljYXRlMB0GA1UdDgQWBBSEhs30
XSyCX8TaFGwZrYMO5oYrajAfBgNVHSMEGDAWgBR5AhbPSqRLaBQVgPHKTrAvjrS6
XjANBgkqhkiG9w0BAQUFAAOCAQEAPMAihFqnPHQ/Cq0srVuTnJ8eQx+EEPgQqEhS
PGnmY4HCxyPlLNxojw1YN0OU2mZAg71bcI5nmpbiXlwDbgL3y/esffaagDlMEHRz
jMPdrvt7Uo1BfSLQeIevGtI62PAEeGX5mMSEzClgBIuLCxplA3E/GQ1aUPfve3fk
KJvLo7ZdC066eTm35e5vO4GwGa6XomvvH8NkdcZPv14Qk5/D4hxKZ9fTassrQN52
k2NETolmDOSMtDktw2o7g2BI6hPHllvQAWfbFZSheHPhZRdvqgQiAkWrZRvyqZas
yVOAotCn3z4mz6hyhi+nvy3thDSTg4bujqF7mbVGoi79FuaoiQ==
-----END CERTIFICATE-----
