Certificate:
    Data:
        Version: 3 (0x2)
        Serial Number: 67 (0x43)
    Signature Algorithm: sha1WithRSAEncryption
        Issuer: C=CN, ST=BEIJING, O=PKU, OU=MicroSoftware, CN=LIHAO/emailAddress=i@digva.com
        Validity
            Not Before: Jul  9 11:51:10 2013 GMT
            Not After : Jul  9 11:51:10 2014 GMT
        Subject: C=bj, CN=openssl
        Subject Public Key Info:
            Public Key Algorithm: rsaEncryption
                Public-Key: (512 bit)
                Modulus:
                    00:bb:f4:99:58:71:fd:88:5e:1f:04:c2:7b:9b:44:
                    6f:2c:4e:47:00:ca:66:50:40:fe:9d:3a:71:60:f8:
                    68:ef:be:19:be:e4:5f:25:47:97:a4:d0:f1:ee:81:
                    ba:cc:4f:86:07:54:19:52:8c:68:24:64:0c:00:12:
                    95:0e:e5:8f:2f
                Exponent: 3 (0x3)
        X509v3 extensions:
            X509v3 Basic Constraints: 
                CA:FALSE
            Netscape Comment: 
                OpenSSL Generated Certificate
            X509v3 Subject Key Identifier: 
                29:3F:88:F5:48:87:DF:85:AC:20:DD:31:BF:78:24:95:B9:A5:BA:89
            X509v3 Authority Key Identifier: 
                keyid:79:02:16:CF:4A:A4:4B:68:14:15:80:F1:CA:4E:B0:2F:8E:B4:BA:5E

    Signature Algorithm: sha1WithRSAEncryption
         2d:28:6c:d0:19:8f:52:10:2f:40:7e:9a:af:af:89:77:12:a1:
         5a:3c:0b:df:a9:7d:1f:da:74:45:21:bd:70:ef:d7:d4:3b:da:
         42:59:b0:43:19:86:1e:95:a1:3c:68:78:a3:dd:8c:44:7e:e1:
         9d:1d:28:62:eb:b7:a9:8b:10:fd:8e:9a:7d:f2:c6:79:63:ea:
         ee:06:0f:a8:98:b0:ec:aa:a0:d7:3e:83:12:8d:a4:13:7e:5e:
         62:36:51:43:01:f4:50:08:c6:39:0a:a3:d3:b5:67:9d:58:26:
         d5:f2:70:a1:2f:b3:55:3c:cb:67:23:29:7f:dc:55:e5:10:f2:
         e6:90:4d:81:40:08:0a:cb:bd:d0:c6:a2:91:b2:e9:be:4d:df:
         6d:9d:22:c2:6b:70:63:5f:ea:7c:57:81:98:d0:37:93:f5:03:
         81:c8:16:75:a1:e8:3b:2c:50:32:6b:e2:08:20:a1:9b:89:1f:
         c0:3a:01:98:aa:bc:27:d7:ac:b2:77:61:f4:fc:66:bb:0c:8a:
         1b:24:4e:da:e8:ec:21:ef:26:d9:a1:bb:b7:28:d6:df:19:2a:
         4a:b6:37:34:bf:70:9c:94:f2:6c:9e:be:b5:36:2a:ff:81:51:
         5a:1e:80:a3:6f:c7:9a:d7:de:25:e1:26:63:0e:fc:40:d7:c0:
         26:59:0e:d4
-----BEGIN CERTIFICATE-----
MIICvDCCAaSgAwIBAgIBQzANBgkqhkiG9w0BAQUFADBxMQswCQYDVQQGEwJDTjEQ
MA4GA1UECAwHQkVJSklORzEMMAoGA1UECgwDUEtVMRYwFAYDVQQLDA1NaWNyb1Nv
ZnR3YXJlMQ4wDAYDVQQDDAVMSUhBTzEaMBgGCSqGSIb3DQEJARYLaUBkaWd2YS5j
b20wHhcNMTMwNzA5MTE1MTEwWhcNMTQwNzA5MTE1MTEwWjAfMQswCQYDVQQGDAJi
ajEQMA4GA1UEAwwHb3BlbnNzbDBaMA0GCSqGSIb3DQEBAQUAA0kAMEYCQQC79JlY
cf2IXh8EwnubRG8sTkcAymZQQP6dOnFg+Gjvvhm+5F8lR5ek0PHugbrMT4YHVBlS
jGgkZAwAEpUO5Y8vAgEDo3sweTAJBgNVHRMEAjAAMCwGCWCGSAGG+EIBDQQfFh1P
cGVuU1NMIEdlbmVyYXRlZCBDZXJ0aWZpY2F0ZTAdBgNVHQ4EFgQUKT+I9UiH34Ws
IN0xv3gklbmluokwHwYDVR0jBBgwFoAUeQIWz0qkS2gUFYDxyk6wL460ul4wDQYJ
KoZIhvcNAQEFBQADggEBAC0obNAZj1IQL0B+mq+viXcSoVo8C9+pfR/adEUhvXDv
19Q72kJZsEMZhh6VoTxoeKPdjER+4Z0dKGLrt6mLEP2Omn3yxnlj6u4GD6iYsOyq
oNc+gxKNpBN+XmI2UUMB9FAIxjkKo9O1Z51YJtXycKEvs1U8y2cjKX/cVeUQ8uaQ
TYFACArLvdDGopGy6b5N322dIsJrcGNf6nxXgZjQN5P1A4HIFnWh6DssUDJr4ggg
oZuJH8A6AZiqvCfXrLJ3YfT8ZrsMihskTtro7CHvJtmhu7co1t8ZKkq2NzS/cJyU
8myevrU2Kv+BUVoegKNvx5rX3iXhJmMO/EDXwCZZDtQ=
-----END CERTIFICATE-----
