Certificate:
    Data:
        Version: 3 (0x2)
        Serial Number: 68 (0x44)
    Signature Algorithm: sha1WithRSAEncryption
        Issuer: C=CN, ST=BEIJING, O=PKU, OU=MicroSoftware, CN=LIHAO/emailAddress=i@digva.com
        Validity
            Not Before: Jul  9 11:53:19 2013 GMT
            Not After : Jul  9 11:53:19 2014 GMT
        Subject: C=bj, CN=openssl
        Subject Public Key Info:
            Public Key Algorithm: rsaEncryption
                Public-Key: (512 bit)
                Modulus:
                    00:bb:f4:99:58:71:fd:88:5e:1f:04:c2:7b:9b:44:
                    6f:2c:4e:47:00:ca:66:50:40:fe:9d:3a:71:60:f8:
                    68:ef:be:19:be:e4:5f:25:47:97:a4:d0:f1:ee:81:
                    ba:cc:4f:86:07:54:19:52:8c:68:24:64:0c:00:12:
                    95:0e:e5:8f:2f
                Exponent: 3 (0x3)
        X509v3 extensions:
            X509v3 Basic Constraints: 
                CA:FALSE
            Netscape Comment: 
                OpenSSL Generated Certificate
            X509v3 Subject Key Identifier: 
                29:3F:88:F5:48:87:DF:85:AC:20:DD:31:BF:78:24:95:B9:A5:BA:89
            X509v3 Authority Key Identifier: 
                keyid:79:02:16:CF:4A:A4:4B:68:14:15:80:F1:CA:4E:B0:2F:8E:B4:BA:5E

    Signature Algorithm: sha1WithRSAEncryption
         4c:32:87:e9:a2:a9:3e:02:6f:73:e5:d4:1d:c4:62:4b:89:f9:
         f7:9f:27:64:d4:12:f6:a0:ed:67:f5:3e:18:25:59:65:9e:9e:
         1f:ac:a5:49:0b:75:b5:47:3d:a4:2d:25:8a:c5:f1:76:94:7d:
         c7:8c:b4:99:67:9a:ca:36:bf:ed:f9:48:8d:f4:cd:10:44:c1:
         d0:a8:be:9f:03:a9:02:0b:fc:82:2e:18:f5:38:23:6c:05:6d:
         58:be:5f:4f:d9:72:32:2e:99:e4:29:ab:60:7c:a5:72:72:34:
         80:53:a6:62:67:d6:7e:fc:3b:b6:1f:cd:13:33:e2:aa:23:5d:
         b9:70:e1:0c:f3:21:6c:e3:0e:2a:26:83:2d:b1:65:9b:68:e2:
         38:f1:8d:54:0e:0e:59:7d:7d:8a:9e:a8:fa:09:92:18:b8:c0:
         3d:ed:44:b1:9b:e5:b7:00:4d:fa:0a:cf:80:0a:b7:4c:e0:b8:
         40:38:29:b6:73:29:62:ed:38:05:c0:3b:d2:ca:98:6d:3b:d6:
         db:00:30:6f:61:b8:85:96:e8:b6:67:46:3f:ec:f3:eb:90:98:
         c7:8a:c2:a7:2e:16:83:71:38:75:37:26:85:5a:80:49:f0:1a:
         12:2e:27:86:75:a0:90:62:ba:44:66:ec:d0:17:d2:65:86:17:
         d5:fa:62:e2
-----BEGIN CERTIFICATE-----
MIICvDCCAaSgAwIBAgIBRDANBgkqhkiG9w0BAQUFADBxMQswCQYDVQQGEwJDTjEQ
MA4GA1UECAwHQkVJSklORzEMMAoGA1UECgwDUEtVMRYwFAYDVQQLDA1NaWNyb1Nv
ZnR3YXJlMQ4wDAYDVQQDDAVMSUhBTzEaMBgGCSqGSIb3DQEJARYLaUBkaWd2YS5j
b20wHhcNMTMwNzA5MTE1MzE5WhcNMTQwNzA5MTE1MzE5WjAfMQswCQYDVQQGDAJi
ajEQMA4GA1UEAwwHb3BlbnNzbDBaMA0GCSqGSIb3DQEBAQUAA0kAMEYCQQC79JlY
cf2IXh8EwnubRG8sTkcAymZQQP6dOnFg+Gjvvhm+5F8lR5ek0PHugbrMT4YHVBlS
jGgkZAwAEpUO5Y8vAgEDo3sweTAJBgNVHRMEAjAAMCwGCWCGSAGG+EIBDQQfFh1P
cGVuU1NMIEdlbmVyYXRlZCBDZXJ0aWZpY2F0ZTAdBgNVHQ4EFgQUKT+I9UiH34Ws
IN0xv3gklbmluokwHwYDVR0jBBgwFoAUeQIWz0qkS2gUFYDxyk6wL460ul4wDQYJ
KoZIhvcNAQEFBQADggEBAEwyh+miqT4Cb3Pl1B3EYkuJ+fefJ2TUEvag7Wf1Phgl
WWWenh+spUkLdbVHPaQtJYrF8XaUfceMtJlnmso2v+35SI30zRBEwdCovp8DqQIL
/IIuGPU4I2wFbVi+X0/ZcjIumeQpq2B8pXJyNIBTpmJn1n78O7YfzRMz4qojXblw
4QzzIWzjDiomgy2xZZto4jjxjVQODll9fYqeqPoJkhi4wD3tRLGb5bcATfoKz4AK
t0zguEA4KbZzKWLtOAXAO9LKmG071tsAMG9huIWW6LZnRj/s8+uQmMeKwqcuFoNx
OHU3JoVagEnwGhIuJ4Z1oJBiukRm7NAX0mWGF9X6YuI=
-----END CERTIFICATE-----
