Certificate:
    Data:
        Version: 3 (0x2)
        Serial Number: 69 (0x45)
    Signature Algorithm: sha1WithRSAEncryption
        Issuer: C=CN, ST=BEIJING, O=PKU, OU=MicroSoftware, CN=LIHAO/emailAddress=i@digva.com
        Validity
            Not Before: Jul  9 13:22:06 2013 GMT
            Not After : Jul  9 13:22:06 2014 GMT
        Subject: C=bj, CN=openssl/emailAddress=dannylsl@sina.com
        Subject Public Key Info:
            Public Key Algorithm: rsaEncryption
                Public-Key: (512 bit)
                Modulus:
                    00:bd:e9:d6:84:b0:ad:a3:1e:ef:fb:40:9d:d2:58:
                    f3:7d:0c:f5:13:51:1f:e9:7f:49:b8:04:8d:e0:a7:
                    a7:20:9c:fb:02:92:02:d0:c4:81:fe:bb:5a:cf:2f:
                    36:a8:c7:44:bb:04:81:6f:6c:5c:2c:a6:5e:5a:23:
                    86:8d:49:2b:ed
                Exponent: 3 (0x3)
        X509v3 extensions:
            X509v3 Basic Constraints: 
                CA:FALSE
            Netscape Comment: 
                OpenSSL Generated Certificate
            X509v3 Subject Key Identifier: 
                9C:4B:7C:93:9C:B6:BD:9E:04:D7:67:BC:3D:EF:A7:00:B4:1A:6A:69
            X509v3 Authority Key Identifier: 
                keyid:79:02:16:CF:4A:A4:4B:68:14:15:80:F1:CA:4E:B0:2F:8E:B4:BA:5E

    Signature Algorithm: sha1WithRSAEncryption
         68:3e:02:5a:68:db:70:11:46:d2:fb:27:db:be:de:63:29:6f:
         53:46:51:e9:89:62:0b:29:7e:32:18:e2:1a:fc:c1:a3:30:19:
         24:69:ea:59:b3:5b:ca:1d:21:a5:26:e0:06:37:db:22:a2:55:
         b9:30:5e:5f:df:63:72:b0:ff:f2:7e:fe:16:da:ef:15:ca:fd:
         71:bc:57:70:f7:c8:c9:2e:73:17:4c:12:ec:2b:0b:c8:19:41:
         81:a3:8c:3f:df:43:95:3b:81:04:ca:4d:4b:85:02:48:b1:12:
         ed:9d:37:e6:ae:84:7b:4b:42:f4:ca:d6:a1:41:f2:55:aa:e2:
         cd:16:2c:9d:c4:0d:cf:d2:3d:77:5e:a6:69:8d:5a:b6:69:f7:
         1c:9f:76:f2:10:9c:54:2c:21:9a:f4:3c:82:fd:e9:0f:03:d7:
         81:d4:97:fd:61:e6:6d:cc:98:a0:e8:74:c7:a7:1a:0c:c0:80:
         72:91:9a:7e:9f:09:87:ba:fd:f2:5f:e2:89:f8:81:a2:24:f2:
         e3:d0:92:64:09:df:ce:f6:5a:26:6e:ff:d3:8f:20:01:20:db:
         ad:6f:c4:47:8e:52:48:09:da:38:0e:7e:94:28:d3:dd:c6:28:
         78:a3:30:7c:6e:83:81:59:80:cd:24:60:82:3d:05:15:db:1a:
         66:a2:9d:c5
-----BEGIN CERTIFICATE-----
MIIC3jCCAcagAwIBAgIBRTANBgkqhkiG9w0BAQUFADBxMQswCQYDVQQGEwJDTjEQ
MA4GA1UECAwHQkVJSklORzEMMAoGA1UECgwDUEtVMRYwFAYDVQQLDA1NaWNyb1Nv
ZnR3YXJlMQ4wDAYDVQQDDAVMSUhBTzEaMBgGCSqGSIb3DQEJARYLaUBkaWd2YS5j
b20wHhcNMTMwNzA5MTMyMjA2WhcNMTQwNzA5MTMyMjA2WjBBMQswCQYDVQQGDAJi
ajEQMA4GA1UEAwwHb3BlbnNzbDEgMB4GCSqGSIb3DQEJARYRZGFubnlsc2xAc2lu
YS5jb20wWjANBgkqhkiG9w0BAQEFAANJADBGAkEAvenWhLCtox7v+0Cd0ljzfQz1
E1Ef6X9JuASN4KenIJz7ApIC0MSB/rtazy82qMdEuwSBb2xcLKZeWiOGjUkr7QIB
A6N7MHkwCQYDVR0TBAIwADAsBglghkgBhvhCAQ0EHxYdT3BlblNTTCBHZW5lcmF0
ZWQgQ2VydGlmaWNhdGUwHQYDVR0OBBYEFJxLfJOctr2eBNdnvD3vpwC0GmppMB8G
A1UdIwQYMBaAFHkCFs9KpEtoFBWA8cpOsC+OtLpeMA0GCSqGSIb3DQEBBQUAA4IB
AQBoPgJaaNtwEUbS+yfbvt5jKW9TRlHpiWILKX4yGOIa/MGjMBkkaepZs1vKHSGl
JuAGN9siolW5MF5f32NysP/yfv4W2u8Vyv1xvFdw98jJLnMXTBLsKwvIGUGBo4w/
30OVO4EEyk1LhQJIsRLtnTfmroR7S0L0ytahQfJVquLNFiydxA3P0j13XqZpjVq2
afccn3byEJxULCGa9DyC/ekPA9eB1Jf9YeZtzJig6HTHpxoMwIBykZp+nwmHuv3y
X+KJ+IGiJPLj0JJkCd/O9lombv/TjyABINutb8RHjlJICdo4Dn6UKNPdxih4ozB8
boOBWYDNJGCCPQUV2xpmop3F
-----END CERTIFICATE-----
