Certificate:
    Data:
        Version: 3 (0x2)
        Serial Number: 70 (0x46)
    Signature Algorithm: sha1WithRSAEncryption
        Issuer: C=CN, ST=BEIJING, O=PKU, OU=MicroSoftware, CN=LIHAO/emailAddress=i@digva.com
        Validity
            Not Before: Jul  9 13:27:21 2013 GMT
            Not After : Jul  9 13:27:21 2014 GMT
        Subject: C=bj, CN=openssl/emailAddress=dannylsl@sina.com
        Subject Public Key Info:
            Public Key Algorithm: rsaEncryption
                Public-Key: (512 bit)
                Modulus:
                    00:bd:e9:d6:84:b0:ad:a3:1e:ef:fb:40:9d:d2:58:
                    f3:7d:0c:f5:13:51:1f:e9:7f:49:b8:04:8d:e0:a7:
                    a7:20:9c:fb:02:92:02:d0:c4:81:fe:bb:5a:cf:2f:
                    36:a8:c7:44:bb:04:81:6f:6c:5c:2c:a6:5e:5a:23:
                    86:8d:49:2b:ed
                Exponent: 3 (0x3)
        X509v3 extensions:
            X509v3 Basic Constraints: 
                CA:FALSE
            Netscape Comment: 
                OpenSSL Generated Certificate
            X509v3 Subject Key Identifier: 
                9C:4B:7C:93:9C:B6:BD:9E:04:D7:67:BC:3D:EF:A7:00:B4:1A:6A:69
            X509v3 Authority Key Identifier: 
                keyid:79:02:16:CF:4A:A4:4B:68:14:15:80:F1:CA:4E:B0:2F:8E:B4:BA:5E

    Signature Algorithm: sha1WithRSAEncryption
         08:a0:75:82:d1:85:5b:c8:51:a9:50:3b:50:1c:22:f5:af:10:
         38:a6:6f:32:fc:ca:55:68:ba:1d:82:e3:d9:1d:29:7a:9a:41:
         58:15:10:32:b7:56:22:a6:fc:38:8f:3b:88:57:72:fe:18:73:
         1b:3f:7f:77:d8:53:2e:f0:2f:b1:5f:df:67:c0:4e:fb:23:24:
         bf:ed:bc:6c:50:1b:0b:98:86:16:e0:f8:e5:d3:33:c3:59:e7:
         43:93:3f:75:8d:19:91:af:a2:1b:44:cb:4e:75:52:ca:c1:48:
         0b:07:45:c3:ad:0c:28:d6:5e:00:c5:d2:00:2a:28:e6:b7:d7:
         80:3d:7d:53:1d:b9:b3:51:a8:08:76:4c:1c:c1:7a:7f:18:cc:
         5b:14:90:76:07:48:22:4f:7d:97:72:fb:b0:53:cb:a8:fb:af:
         c7:47:f2:90:58:ef:a0:cb:a7:04:a7:30:67:32:ce:00:a4:08:
         6e:71:b0:76:e5:e9:2b:9b:94:4a:e1:32:46:d9:96:96:31:11:
         a6:a3:8c:1e:48:f9:51:59:24:cd:9f:e6:e0:bd:67:34:f9:56:
         9a:b6:65:5f:40:b2:4d:99:24:b1:85:16:2f:0b:f5:32:29:e6:
         07:96:86:79:63:a5:d3:de:8b:6f:c5:37:c7:ae:27:5a:33:6f:
         50:21:2e:d7
-----BEGIN CERTIFICATE-----
MIIC3jCCAcagAwIBAgIBRjANBgkqhkiG9w0BAQUFADBxMQswCQYDVQQGEwJDTjEQ
MA4GA1UECAwHQkVJSklORzEMMAoGA1UECgwDUEtVMRYwFAYDVQQLDA1NaWNyb1Nv
ZnR3YXJlMQ4wDAYDVQQDDAVMSUhBTzEaMBgGCSqGSIb3DQEJARYLaUBkaWd2YS5j
b20wHhcNMTMwNzA5MTMyNzIxWhcNMTQwNzA5MTMyNzIxWjBBMQswCQYDVQQGDAJi
ajEQMA4GA1UEAwwHb3BlbnNzbDEgMB4GCSqGSIb3DQEJARYRZGFubnlsc2xAc2lu
YS5jb20wWjANBgkqhkiG9w0BAQEFAANJADBGAkEAvenWhLCtox7v+0Cd0ljzfQz1
E1Ef6X9JuASN4KenIJz7ApIC0MSB/rtazy82qMdEuwSBb2xcLKZeWiOGjUkr7QIB
A6N7MHkwCQYDVR0TBAIwADAsBglghkgBhvhCAQ0EHxYdT3BlblNTTCBHZW5lcmF0
ZWQgQ2VydGlmaWNhdGUwHQYDVR0OBBYEFJxLfJOctr2eBNdnvD3vpwC0GmppMB8G
A1UdIwQYMBaAFHkCFs9KpEtoFBWA8cpOsC+OtLpeMA0GCSqGSIb3DQEBBQUAA4IB
AQAIoHWC0YVbyFGpUDtQHCL1rxA4pm8y/MpVaLodguPZHSl6mkFYFRAyt1Yipvw4
jzuIV3L+GHMbP3932FMu8C+xX99nwE77IyS/7bxsUBsLmIYW4Pjl0zPDWedDkz91
jRmRr6IbRMtOdVLKwUgLB0XDrQwo1l4AxdIAKijmt9eAPX1THbmzUagIdkwcwXp/
GMxbFJB2B0giT32XcvuwU8uo+6/HR/KQWO+gy6cEpzBnMs4ApAhucbB25ekrm5RK
4TJG2ZaWMRGmo4weSPlRWSTNn+bgvWc0+VaatmVfQLJNmSSxhRYvC/UyKeYHloZ5
Y6XT3otvxTfHridaM29QIS7X
-----END CERTIFICATE-----
