Certificate:
    Data:
        Version: 3 (0x2)
        Serial Number: 71 (0x47)
    Signature Algorithm: sha1WithRSAEncryption
        Issuer: C=CN, ST=BEIJING, O=PKU, OU=MicroSoftware, CN=LIHAO/emailAddress=i@digva.com
        Validity
            Not Before: Jul  9 13:33:41 2013 GMT
            Not After : Jul  9 13:33:41 2014 GMT
        Subject: C=bj, CN=openssl/emailAddress=dannylsl@sina.com
        Subject Public Key Info:
            Public Key Algorithm: rsaEncryption
                Public-Key: (512 bit)
                Modulus:
                    00:bd:e9:d6:84:b0:ad:a3:1e:ef:fb:40:9d:d2:58:
                    f3:7d:0c:f5:13:51:1f:e9:7f:49:b8:04:8d:e0:a7:
                    a7:20:9c:fb:02:92:02:d0:c4:81:fe:bb:5a:cf:2f:
                    36:a8:c7:44:bb:04:81:6f:6c:5c:2c:a6:5e:5a:23:
                    86:8d:49:2b:ed
                Exponent: 3 (0x3)
        X509v3 extensions:
            X509v3 Basic Constraints: 
                CA:FALSE
            Netscape Comment: 
                OpenSSL Generated Certificate
            X509v3 Subject Key Identifier: 
                9C:4B:7C:93:9C:B6:BD:9E:04:D7:67:BC:3D:EF:A7:00:B4:1A:6A:69
            X509v3 Authority Key Identifier: 
                keyid:79:02:16:CF:4A:A4:4B:68:14:15:80:F1:CA:4E:B0:2F:8E:B4:BA:5E

    Signature Algorithm: sha1WithRSAEncryption
         3f:78:2f:98:49:fd:88:cc:92:73:46:68:ef:44:e1:02:22:e9:
         0c:13:b8:07:38:28:fc:cd:c1:9f:65:43:98:24:d8:1a:f4:27:
         cb:c5:ff:c8:8a:37:df:40:2d:3e:84:0b:a1:4a:68:f2:d0:e0:
         0d:74:1c:16:1f:3d:1a:a4:1f:d0:fc:cd:07:7b:db:c7:b6:d8:
         45:4c:e0:91:5d:0e:5a:50:3f:fd:fd:26:64:b5:fb:9b:27:22:
         87:4a:28:f4:a7:13:8d:19:b7:c9:9a:d3:d4:2d:87:48:26:5e:
         92:ae:65:87:b4:a3:69:a3:4a:66:7f:d6:65:21:be:0a:41:2a:
         82:3c:ca:a8:ac:3b:43:9a:83:b5:bd:c5:6a:89:da:34:94:b6:
         97:72:4d:b0:fe:1a:af:90:86:0f:2d:07:f1:a8:e6:e5:3a:74:
         7d:66:17:ae:75:61:0b:36:75:3b:85:ad:2a:f9:21:96:18:7a:
         68:cb:e9:4b:18:90:cc:a1:04:aa:37:49:58:c1:b9:19:42:c6:
         2d:1b:da:88:6f:af:e0:19:55:7d:d7:ad:bd:53:bb:97:ec:6f:
         13:66:da:cb:1f:30:8d:f7:41:26:f4:dd:18:7a:57:9b:84:ce:
         ff:7d:73:c3:f3:8d:eb:d6:ab:8a:8c:d2:3b:80:d4:4a:c5:d4:
         35:81:58:c4
-----BEGIN CERTIFICATE-----
MIIC3jCCAcagAwIBAgIBRzANBgkqhkiG9w0BAQUFADBxMQswCQYDVQQGEwJDTjEQ
MA4GA1UECAwHQkVJSklORzEMMAoGA1UECgwDUEtVMRYwFAYDVQQLDA1NaWNyb1Nv
ZnR3YXJlMQ4wDAYDVQQDDAVMSUhBTzEaMBgGCSqGSIb3DQEJARYLaUBkaWd2YS5j
b20wHhcNMTMwNzA5MTMzMzQxWhcNMTQwNzA5MTMzMzQxWjBBMQswCQYDVQQGDAJi
ajEQMA4GA1UEAwwHb3BlbnNzbDEgMB4GCSqGSIb3DQEJARYRZGFubnlsc2xAc2lu
YS5jb20wWjANBgkqhkiG9w0BAQEFAANJADBGAkEAvenWhLCtox7v+0Cd0ljzfQz1
E1Ef6X9JuASN4KenIJz7ApIC0MSB/rtazy82qMdEuwSBb2xcLKZeWiOGjUkr7QIB
A6N7MHkwCQYDVR0TBAIwADAsBglghkgBhvhCAQ0EHxYdT3BlblNTTCBHZW5lcmF0
ZWQgQ2VydGlmaWNhdGUwHQYDVR0OBBYEFJxLfJOctr2eBNdnvD3vpwC0GmppMB8G
A1UdIwQYMBaAFHkCFs9KpEtoFBWA8cpOsC+OtLpeMA0GCSqGSIb3DQEBBQUAA4IB
AQA/eC+YSf2IzJJzRmjvROECIukME7gHOCj8zcGfZUOYJNga9CfLxf/IijffQC0+
hAuhSmjy0OANdBwWHz0apB/Q/M0He9vHtthFTOCRXQ5aUD/9/SZktfubJyKHSij0
pxONGbfJmtPULYdIJl6SrmWHtKNpo0pmf9ZlIb4KQSqCPMqorDtDmoO1vcVqido0
lLaXck2w/hqvkIYPLQfxqOblOnR9ZheudWELNnU7ha0q+SGWGHpoy+lLGJDMoQSq
N0lYwbkZQsYtG9qIb6/gGVV91629U7uX7G8TZtrLHzCN90Em9N0YelebhM7/fXPD
843r1quKjNI7gNRKxdQ1gVjE
-----END CERTIFICATE-----
