Certificate:
    Data:
        Version: 3 (0x2)
        Serial Number: 72 (0x48)
    Signature Algorithm: sha1WithRSAEncryption
        Issuer: C=CN, ST=BEIJING, O=PKU, OU=MicroSoftware, CN=LIHAO/emailAddress=i@digva.com
        Validity
            Not Before: Jul 12 04:33:54 2013 GMT
            Not After : Jul 12 04:33:54 2014 GMT
        Subject: C=CN, ST=Beijing, L=Beijing, O=SSPKU1360, OU=SSPKU, CN=openssl/emailAddress=dannylsl@sina.com
        Subject Public Key Info:
            Public Key Algorithm: rsaEncryption
                Public-Key: (512 bit)
                Modulus:
                    00:c0:1a:8f:97:22:e7:99:07:8d:9f:a7:6e:94:96:
                    24:b4:f2:36:37:21:b1:7e:7d:81:f0:6c:3e:db:17:
                    4a:72:fb:22:28:30:98:60:6c:e9:df:b7:d5:80:c3:
                    22:78:25:a0:75:79:c4:3e:66:b0:72:1e:8d:cc:80:
                    5d:8c:7e:b7:59
                Exponent: 3 (0x3)
        X509v3 extensions:
            X509v3 Basic Constraints: 
                CA:FALSE
            Netscape Comment: 
                OpenSSL Generated Certificate
            X509v3 Subject Key Identifier: 
                49:42:C5:FF:67:C9:2B:6B:F7:0A:F7:CB:75:CB:D6:C7:31:FE:10:4F
            X509v3 Authority Key Identifier: 
                keyid:79:02:16:CF:4A:A4:4B:68:14:15:80:F1:CA:4E:B0:2F:8E:B4:BA:5E

    Signature Algorithm: sha1WithRSAEncryption
         04:ab:af:03:16:4c:45:d6:af:b1:c7:2d:10:ff:b0:41:99:18:
         c7:39:48:27:bf:ad:91:72:ce:b5:61:30:8c:2f:a0:8e:fd:e8:
         20:b1:9f:f3:68:ac:29:9c:5b:f1:a9:cc:34:97:4f:19:6a:f0:
         f9:73:17:12:27:5d:bb:4f:df:94:7a:46:74:ae:3f:9f:6e:fb:
         2e:71:8c:98:55:8c:e8:a2:66:bd:84:3c:06:77:f9:bc:f5:77:
         ea:52:e1:5d:62:b7:4b:bd:63:06:ba:28:de:98:55:4e:bc:20:
         8f:09:4d:be:9f:95:94:1c:2d:a3:38:81:7b:dd:20:a1:ed:e4:
         91:68:8f:e1:c3:c7:2b:9c:ac:39:26:a5:fe:27:7c:ac:8d:c2:
         bf:80:60:06:1c:fb:fd:61:79:2c:1a:2b:d1:14:06:d9:ab:76:
         2a:00:64:26:38:60:4d:48:61:0d:20:c4:fe:99:f2:2f:0e:b2:
         66:7c:db:52:54:3c:ab:ca:bf:d3:48:b8:01:31:81:b8:24:6e:
         4b:1b:6d:7e:7e:98:65:3c:fc:6b:aa:fe:32:f9:bb:0c:6e:33:
         cb:4c:9c:cd:94:74:a8:9f:88:13:82:03:36:5a:38:0b:03:45:
         d5:e7:0b:d7:2d:ca:69:02:10:e1:9c:fb:ba:59:60:47:df:97:
         fa:49:bd:3a
-----BEGIN CERTIFICATE-----
MIIDJzCCAg+gAwIBAgIBSDANBgkqhkiG9w0BAQUFADBxMQswCQYDVQQGEwJDTjEQ
MA4GA1UECAwHQkVJSklORzEMMAoGA1UECgwDUEtVMRYwFAYDVQQLDA1NaWNyb1Nv
ZnR3YXJlMQ4wDAYDVQQDDAVMSUhBTzEaMBgGCSqGSIb3DQEJARYLaUBkaWd2YS5j
b20wHhcNMTMwNzEyMDQzMzU0WhcNMTQwNzEyMDQzMzU0WjCBiTELMAkGA1UEBgwC
Q04xEDAOBgNVBAgMB0JlaWppbmcxEDAOBgNVBAcMB0JlaWppbmcxEjAQBgNVBAoM
CVNTUEtVMTM2MDEOMAwGA1UECwwFU1NQS1UxEDAOBgNVBAMMB29wZW5zc2wxIDAe
BgkqhkiG9w0BCQEWEWRhbm55bHNsQHNpbmEuY29tMFowDQYJKoZIhvcNAQEBBQAD
SQAwRgJBAMAaj5ci55kHjZ+nbpSWJLTyNjchsX59gfBsPtsXSnL7IigwmGBs6d+3
1YDDIngloHV5xD5msHIejcyAXYx+t1kCAQOjezB5MAkGA1UdEwQCMAAwLAYJYIZI
AYb4QgENBB8WHU9wZW5TU0wgR2VuZXJhdGVkIENlcnRpZmljYXRlMB0GA1UdDgQW
BBRJQsX/Z8kra/cK98t1y9bHMf4QTzAfBgNVHSMEGDAWgBR5AhbPSqRLaBQVgPHK
TrAvjrS6XjANBgkqhkiG9w0BAQUFAAOCAQEABKuvAxZMRdavscctEP+wQZkYxzlI
J7+tkXLOtWEwjC+gjv3oILGf82isKZxb8anMNJdPGWrw+XMXEiddu0/flHpGdK4/
n277LnGMmFWM6KJmvYQ8Bnf5vPV36lLhXWK3S71jBroo3phVTrwgjwlNvp+VlBwt
oziBe90goe3kkWiP4cPHK5ysOSal/id8rI3Cv4BgBhz7/WF5LBor0RQG2at2KgBk
JjhgTUhhDSDE/pnyLw6yZnzbUlQ8q8q/00i4ATGBuCRuSxttfn6YZTz8a6r+Mvm7
DG4zy0yczZR0qJ+IE4IDNlo4CwNF1ecL1y3KaQIQ4Zz7ullgR9+X+km9Og==
-----END CERTIFICATE-----
