Certificate:
    Data:
        Version: 3 (0x2)
        Serial Number: 73 (0x49)
    Signature Algorithm: sha1WithRSAEncryption
        Issuer: C=CN, ST=BEIJING, O=PKU, OU=MicroSoftware, CN=LIHAO/emailAddress=i@digva.com
        Validity
            Not Before: Jul 12 04:36:43 2013 GMT
            Not After : Jul 12 04:36:43 2014 GMT
        Subject: C=CN, ST=Beijing, L=Beijing, O=SSPKU1360, OU=SSPKU, CN=openssl/emailAddress=dannylsl@sina.com
        Subject Public Key Info:
            Public Key Algorithm: rsaEncryption
                Public-Key: (512 bit)
                Modulus:
                    00:c0:1a:8f:97:22:e7:99:07:8d:9f:a7:6e:94:96:
                    24:b4:f2:36:37:21:b1:7e:7d:81:f0:6c:3e:db:17:
                    4a:72:fb:22:28:30:98:60:6c:e9:df:b7:d5:80:c3:
                    22:78:25:a0:75:79:c4:3e:66:b0:72:1e:8d:cc:80:
                    5d:8c:7e:b7:59
                Exponent: 3 (0x3)
        X509v3 extensions:
            X509v3 Basic Constraints: 
                CA:FALSE
            Netscape Comment: 
                OpenSSL Generated Certificate
            X509v3 Subject Key Identifier: 
                49:42:C5:FF:67:C9:2B:6B:F7:0A:F7:CB:75:CB:D6:C7:31:FE:10:4F
            X509v3 Authority Key Identifier: 
                keyid:79:02:16:CF:4A:A4:4B:68:14:15:80:F1:CA:4E:B0:2F:8E:B4:BA:5E

    Signature Algorithm: sha1WithRSAEncryption
         6d:e7:70:af:85:c1:42:88:28:a6:89:ce:5b:27:c8:de:c0:0b:
         6f:cb:ce:46:ce:cf:d6:92:5e:48:6d:f6:74:4c:3e:f4:22:5d:
         d8:e9:ff:25:34:fb:6a:ea:8b:bc:28:fa:5d:40:9e:40:fd:3e:
         9c:c9:97:59:51:f2:6c:96:b8:7b:d8:c3:10:59:f0:d9:01:17:
         4b:d3:05:b1:69:03:28:5a:98:c0:85:3c:0d:2e:90:25:8a:c2:
         52:ed:96:86:5a:0d:f3:50:a5:12:1c:d8:e7:50:da:87:44:f6:
         0f:31:20:c5:86:08:54:02:17:89:cc:0e:bd:d2:7a:0e:02:89:
         a3:d8:2a:51:91:66:2e:18:27:08:88:2b:15:ed:d2:59:bf:73:
         8b:18:fa:ff:51:ff:80:3c:10:a3:f4:60:e2:1b:6d:ce:9a:5c:
         34:03:52:c3:f1:59:c5:2a:1f:fd:6f:2d:84:36:03:91:67:87:
         2b:86:d3:e6:d2:c3:41:87:bd:7e:60:f5:4b:82:31:ab:3c:51:
         7f:09:66:70:66:dc:33:bb:16:88:06:13:f8:a0:7c:1c:14:92:
         c8:d9:10:4d:6d:8c:88:4a:eb:85:73:f0:a4:34:50:68:7e:98:
         a9:33:55:6d:14:bd:c5:40:b8:2c:61:b6:bb:5c:77:b1:3c:a0:
         41:d6:71:76
-----BEGIN CERTIFICATE-----
MIIDJzCCAg+gAwIBAgIBSTANBgkqhkiG9w0BAQUFADBxMQswCQYDVQQGEwJDTjEQ
MA4GA1UECAwHQkVJSklORzEMMAoGA1UECgwDUEtVMRYwFAYDVQQLDA1NaWNyb1Nv
ZnR3YXJlMQ4wDAYDVQQDDAVMSUhBTzEaMBgGCSqGSIb3DQEJARYLaUBkaWd2YS5j
b20wHhcNMTMwNzEyMDQzNjQzWhcNMTQwNzEyMDQzNjQzWjCBiTELMAkGA1UEBgwC
Q04xEDAOBgNVBAgMB0JlaWppbmcxEDAOBgNVBAcMB0JlaWppbmcxEjAQBgNVBAoM
CVNTUEtVMTM2MDEOMAwGA1UECwwFU1NQS1UxEDAOBgNVBAMMB29wZW5zc2wxIDAe
BgkqhkiG9w0BCQEWEWRhbm55bHNsQHNpbmEuY29tMFowDQYJKoZIhvcNAQEBBQAD
SQAwRgJBAMAaj5ci55kHjZ+nbpSWJLTyNjchsX59gfBsPtsXSnL7IigwmGBs6d+3
1YDDIngloHV5xD5msHIejcyAXYx+t1kCAQOjezB5MAkGA1UdEwQCMAAwLAYJYIZI
AYb4QgENBB8WHU9wZW5TU0wgR2VuZXJhdGVkIENlcnRpZmljYXRlMB0GA1UdDgQW
BBRJQsX/Z8kra/cK98t1y9bHMf4QTzAfBgNVHSMEGDAWgBR5AhbPSqRLaBQVgPHK
TrAvjrS6XjANBgkqhkiG9w0BAQUFAAOCAQEAbedwr4XBQogoponOWyfI3sALb8vO
Rs7P1pJeSG32dEw+9CJd2On/JTT7auqLvCj6XUCeQP0+nMmXWVHybJa4e9jDEFnw
2QEXS9MFsWkDKFqYwIU8DS6QJYrCUu2WhloN81ClEhzY51Dah0T2DzEgxYYIVAIX
icwOvdJ6DgKJo9gqUZFmLhgnCIgrFe3SWb9zixj6/1H/gDwQo/Rg4httzppcNANS
w/FZxSof/W8thDYDkWeHK4bT5tLDQYe9fmD1S4IxqzxRfwlmcGbcM7sWiAYT+KB8
HBSSyNkQTW2MiErrhXPwpDRQaH6YqTNVbRS9xUC4LGG2u1x3sTygQdZxdg==
-----END CERTIFICATE-----
