Certificate:
    Data:
        Version: 3 (0x2)
        Serial Number: 74 (0x4a)
    Signature Algorithm: sha1WithRSAEncryption
        Issuer: C=CN, ST=BEIJING, O=PKU, OU=MicroSoftware, CN=LIHAO/emailAddress=i@digva.com
        Validity
            Not Before: Jul 12 04:37:28 2013 GMT
            Not After : Jul 12 04:37:28 2014 GMT
        Subject: C=CN, ST=Beijing, L=Beijing, O=SSPKU1360, OU=SSPKU, CN=openssl/emailAddress=dannylsl@sina.com
        Subject Public Key Info:
            Public Key Algorithm: rsaEncryption
                Public-Key: (512 bit)
                Modulus:
                    00:c0:1a:8f:97:22:e7:99:07:8d:9f:a7:6e:94:96:
                    24:b4:f2:36:37:21:b1:7e:7d:81:f0:6c:3e:db:17:
                    4a:72:fb:22:28:30:98:60:6c:e9:df:b7:d5:80:c3:
                    22:78:25:a0:75:79:c4:3e:66:b0:72:1e:8d:cc:80:
                    5d:8c:7e:b7:59
                Exponent: 3 (0x3)
        X509v3 extensions:
            X509v3 Basic Constraints: 
                CA:FALSE
            Netscape Comment: 
                OpenSSL Generated Certificate
            X509v3 Subject Key Identifier: 
                49:42:C5:FF:67:C9:2B:6B:F7:0A:F7:CB:75:CB:D6:C7:31:FE:10:4F
            X509v3 Authority Key Identifier: 
                keyid:79:02:16:CF:4A:A4:4B:68:14:15:80:F1:CA:4E:B0:2F:8E:B4:BA:5E

    Signature Algorithm: sha1WithRSAEncryption
         9b:07:09:68:32:e3:da:02:1b:7a:86:ac:ec:c8:1f:44:c5:ef:
         31:c7:da:31:95:e8:1b:8a:7c:ca:51:0a:5c:4c:fa:d0:c1:6e:
         9b:34:78:fb:2d:f0:cb:73:be:a0:c1:3f:ff:23:ad:81:82:95:
         f5:ab:60:78:56:ab:6d:e9:c7:22:a2:d9:eb:4c:4d:ed:48:bc:
         75:70:1d:f7:a6:c5:6d:31:f7:44:db:51:28:bc:58:de:1b:da:
         4d:97:de:4c:58:50:ec:2e:7d:77:13:0b:4b:6e:ae:05:97:27:
         4e:93:83:df:5b:ce:b6:b1:ec:c6:2b:a1:04:89:01:4a:12:8b:
         38:3d:b1:ad:ba:05:86:2b:89:58:f9:ca:00:ed:99:11:e3:86:
         84:73:de:6c:42:85:c4:fc:93:89:71:b2:63:23:fa:45:3b:1f:
         ae:4e:ec:a9:52:80:68:ae:1d:c1:92:20:85:37:30:d3:dc:2f:
         ba:71:b0:b5:fc:57:46:95:4e:43:7e:e0:f7:c6:c0:9f:47:f6:
         1b:96:81:f7:fa:f9:73:f0:03:38:31:4e:69:7d:19:31:e1:47:
         43:58:54:34:fd:f0:5d:57:fe:17:d1:3f:33:7d:9a:6d:33:8e:
         b7:2b:0e:0f:eb:8b:54:5c:bc:48:22:20:b3:3a:0d:5e:3a:74:
         07:cf:1b:2e
-----BEGIN CERTIFICATE-----
MIIDJzCCAg+gAwIBAgIBSjANBgkqhkiG9w0BAQUFADBxMQswCQYDVQQGEwJDTjEQ
MA4GA1UECAwHQkVJSklORzEMMAoGA1UECgwDUEtVMRYwFAYDVQQLDA1NaWNyb1Nv
ZnR3YXJlMQ4wDAYDVQQDDAVMSUhBTzEaMBgGCSqGSIb3DQEJARYLaUBkaWd2YS5j
b20wHhcNMTMwNzEyMDQzNzI4WhcNMTQwNzEyMDQzNzI4WjCBiTELMAkGA1UEBgwC
Q04xEDAOBgNVBAgMB0JlaWppbmcxEDAOBgNVBAcMB0JlaWppbmcxEjAQBgNVBAoM
CVNTUEtVMTM2MDEOMAwGA1UECwwFU1NQS1UxEDAOBgNVBAMMB29wZW5zc2wxIDAe
BgkqhkiG9w0BCQEWEWRhbm55bHNsQHNpbmEuY29tMFowDQYJKoZIhvcNAQEBBQAD
SQAwRgJBAMAaj5ci55kHjZ+nbpSWJLTyNjchsX59gfBsPtsXSnL7IigwmGBs6d+3
1YDDIngloHV5xD5msHIejcyAXYx+t1kCAQOjezB5MAkGA1UdEwQCMAAwLAYJYIZI
AYb4QgENBB8WHU9wZW5TU0wgR2VuZXJhdGVkIENlcnRpZmljYXRlMB0GA1UdDgQW
BBRJQsX/Z8kra/cK98t1y9bHMf4QTzAfBgNVHSMEGDAWgBR5AhbPSqRLaBQVgPHK
TrAvjrS6XjANBgkqhkiG9w0BAQUFAAOCAQEAmwcJaDLj2gIbeoas7MgfRMXvMcfa
MZXoG4p8ylEKXEz60MFumzR4+y3wy3O+oME//yOtgYKV9atgeFarbenHIqLZ60xN
7Ui8dXAd96bFbTH3RNtRKLxY3hvaTZfeTFhQ7C59dxMLS26uBZcnTpOD31vOtrHs
xiuhBIkBShKLOD2xrboFhiuJWPnKAO2ZEeOGhHPebEKFxPyTiXGyYyP6RTsfrk7s
qVKAaK4dwZIghTcw09wvunGwtfxXRpVOQ37g98bAn0f2G5aB9/r5c/ADODFOaX0Z
MeFHQ1hUNP3wXVf+F9E/M32abTOOtysOD+uLVFy8SCIgszoNXjp0B88bLg==
-----END CERTIFICATE-----
