Certificate:
    Data:
        Version: 3 (0x2)
        Serial Number: 75 (0x4b)
    Signature Algorithm: sha1WithRSAEncryption
        Issuer: C=CN, ST=BEIJING, O=PKU, OU=MicroSoftware, CN=LIHAO/emailAddress=i@digva.com
        Validity
            Not Before: Jul 12 04:56:23 2013 GMT
            Not After : Jul 12 04:56:23 2014 GMT
        Subject: ST=Beijing, L=Beijing, O=SSPKU1360, OU=SSPKU, CN=openssl/emailAddress=dannylsl@sina.com
        Subject Public Key Info:
            Public Key Algorithm: rsaEncryption
                Public-Key: (512 bit)
                Modulus:
                    00:b6:aa:c7:c8:f8:d7:97:b5:13:56:63:56:a8:ba:
                    85:44:51:7a:bb:86:4b:e4:5a:86:9c:dd:26:37:ab:
                    c5:e7:22:0c:14:d9:57:e8:6f:8d:5f:c4:41:1d:e8:
                    9b:8c:13:9e:4f:23:47:40:cd:35:40:b2:62:d5:0a:
                    5d:4d:8c:1b:75
                Exponent: 3 (0x3)
        X509v3 extensions:
            X509v3 Basic Constraints: 
                CA:FALSE
            Netscape Comment: 
                OpenSSL Generated Certificate
            X509v3 Subject Key Identifier: 
                82:23:EC:E8:55:E5:ED:F1:C3:8B:73:B7:5E:F2:A2:88:DC:C9:E0:73
            X509v3 Authority Key Identifier: 
                keyid:79:02:16:CF:4A:A4:4B:68:14:15:80:F1:CA:4E:B0:2F:8E:B4:BA:5E

    Signature Algorithm: sha1WithRSAEncryption
         37:cf:96:7f:c5:ae:7a:d3:ca:b7:f5:3f:de:c3:aa:d7:e8:60:
         3a:de:2c:40:38:c0:a7:aa:93:59:bc:68:7a:c1:e2:df:7b:fe:
         38:4c:4b:ae:cf:ca:94:51:5d:97:78:26:b6:dd:df:a3:80:85:
         4b:76:2e:7a:fc:21:d3:c8:ab:c9:19:af:e6:d7:cc:a6:55:40:
         8d:e8:5c:6a:9e:2c:46:5e:89:f7:f1:f5:20:ea:13:67:26:50:
         96:a5:17:48:fa:c1:bc:36:35:23:98:42:16:a1:c1:cc:8a:f2:
         cb:20:e0:06:2a:c5:e9:36:8d:ab:04:74:61:46:b4:21:f1:17:
         88:0d:69:ba:46:99:a4:ec:15:99:a1:cf:55:19:e0:40:da:0d:
         b6:f3:6e:fe:2a:78:75:88:25:9e:f4:01:8b:38:63:fb:90:ab:
         c2:24:93:fb:be:6b:2d:4c:31:81:9e:99:71:4d:74:b1:a8:af:
         74:61:3c:67:45:63:8e:bb:b2:3b:89:20:1f:76:6b:de:10:4d:
         59:da:8b:13:4f:ff:47:1e:be:4e:4f:94:5b:64:db:f8:95:2f:
         93:29:26:7a:bb:1d:ba:9f:ee:bf:f0:95:9b:58:32:21:4d:97:
         f7:a9:fe:bf:11:11:d3:80:38:30:2f:e7:3a:63:47:24:58:24:
         cd:e5:4b:e9
-----BEGIN CERTIFICATE-----
MIIDGTCCAgGgAwIBAgIBSzANBgkqhkiG9w0BAQUFADBxMQswCQYDVQQGEwJDTjEQ
MA4GA1UECAwHQkVJSklORzEMMAoGA1UECgwDUEtVMRYwFAYDVQQLDA1NaWNyb1Nv
ZnR3YXJlMQ4wDAYDVQQDDAVMSUhBTzEaMBgGCSqGSIb3DQEJARYLaUBkaWd2YS5j
b20wHhcNMTMwNzEyMDQ1NjIzWhcNMTQwNzEyMDQ1NjIzWjB8MRAwDgYDVQQIDAdC
ZWlqaW5nMRAwDgYDVQQHDAdCZWlqaW5nMRIwEAYDVQQKDAlTU1BLVTEzNjAxDjAM
BgNVBAsMBVNTUEtVMRAwDgYDVQQDDAdvcGVuc3NsMSAwHgYJKoZIhvcNAQkBFhFk
YW5ueWxzbEBzaW5hLmNvbTBaMA0GCSqGSIb3DQEBAQUAA0kAMEYCQQC2qsfI+NeX
tRNWY1aouoVEUXq7hkvkWoac3SY3q8XnIgwU2Vfob41fxEEd6JuME55PI0dAzTVA
smLVCl1NjBt1AgEDo3sweTAJBgNVHRMEAjAAMCwGCWCGSAGG+EIBDQQfFh1PcGVu
U1NMIEdlbmVyYXRlZCBDZXJ0aWZpY2F0ZTAdBgNVHQ4EFgQUgiPs6FXl7fHDi3O3
XvKiiNzJ4HMwHwYDVR0jBBgwFoAUeQIWz0qkS2gUFYDxyk6wL460ul4wDQYJKoZI
hvcNAQEFBQADggEBADfPln/FrnrTyrf1P97DqtfoYDreLEA4wKeqk1m8aHrB4t97
/jhMS67PypRRXZd4Jrbd36OAhUt2Lnr8IdPIq8kZr+bXzKZVQI3oXGqeLEZeiffx
9SDqE2cmUJalF0j6wbw2NSOYQhahwcyK8ssg4AYqxek2jasEdGFGtCHxF4gNabpG
maTsFZmhz1UZ4EDaDbbzbv4qeHWIJZ70AYs4Y/uQq8Ikk/u+ay1MMYGemXFNdLGo
r3RhPGdFY467sjuJIB92a94QTVnaixNP/0cevk5PlFtk2/iVL5MpJnq7Hbqf7r/w
lZtYMiFNl/ep/r8REdOAODAv5zpjRyRYJM3lS+k=
-----END CERTIFICATE-----
