Certificate:
    Data:
        Version: 3 (0x2)
        Serial Number: 76 (0x4c)
    Signature Algorithm: sha1WithRSAEncryption
        Issuer: C=CN, ST=BEIJING, O=PKU, OU=MicroSoftware, CN=LIHAO/emailAddress=i@digva.com
        Validity
            Not Before: Jul 12 05:05:05 2013 GMT
            Not After : Jul 12 05:05:05 2014 GMT
        Subject: C=US, ST=Beijing, L=Beijing, O=SSPKU1360, OU=SSPKU, CN=openssl/emailAddress=dannylsl@sina.com
        Subject Public Key Info:
            Public Key Algorithm: rsaEncryption
                Public-Key: (512 bit)
                Modulus:
                    00:b1:73:1d:95:ed:fb:4d:5f:9e:6e:86:19:7a:32:
                    4f:2f:e2:d5:21:2b:5e:61:43:77:ed:46:b8:cb:dc:
                    2d:9f:72:05:0e:15:97:6f:51:b3:7d:ca:68:ef:90:
                    c9:94:98:93:c3:6f:d3:be:af:40:20:91:9e:ab:59:
                    0c:e8:ea:fe:e9
                Exponent: 3 (0x3)
        X509v3 extensions:
            X509v3 Basic Constraints: 
                CA:FALSE
            Netscape Comment: 
                OpenSSL Generated Certificate
            X509v3 Subject Key Identifier: 
                B5:3F:EF:6B:9E:D9:1A:F2:28:62:2C:EC:AB:01:4A:E1:EC:55:00:AA
            X509v3 Authority Key Identifier: 
                keyid:79:02:16:CF:4A:A4:4B:68:14:15:80:F1:CA:4E:B0:2F:8E:B4:BA:5E

    Signature Algorithm: sha1WithRSAEncryption
         0a:8e:9b:63:e6:bd:b3:9c:b9:0e:54:e5:81:a2:35:d9:11:a4:
         9e:af:1f:59:99:8f:4a:ce:8f:88:72:b1:44:c3:e9:a3:f7:94:
         35:85:f5:2b:17:4f:3c:af:e3:04:3c:d4:e0:96:13:ce:2b:d2:
         16:91:3f:12:0c:bc:7b:d3:79:55:8b:2c:5b:d5:01:01:ee:2b:
         09:ca:bf:5c:ce:b8:db:58:b4:28:76:f9:51:68:27:1d:04:af:
         75:d2:d4:28:49:53:64:bf:7d:c1:ad:71:09:cf:2f:9c:24:71:
         f6:ae:9d:3a:57:63:f7:9f:1d:72:0d:15:8c:56:37:ca:aa:51:
         cb:90:3a:d3:20:45:77:c8:c4:6d:42:79:11:dc:4a:2c:26:73:
         df:85:ad:cd:17:cc:97:35:fb:91:48:5f:aa:a6:61:5c:53:00:
         4f:4f:3e:61:72:17:cb:ac:ee:55:f8:59:75:28:9b:58:7e:81:
         28:45:11:20:6a:5a:b9:5f:3a:53:0d:6b:58:02:6a:ba:bd:d8:
         c1:6e:0a:d9:75:9c:5e:20:bd:dd:b1:06:76:62:d1:f6:f4:44:
         be:87:b5:ad:66:65:fc:7e:af:0f:40:8d:11:66:ba:7f:28:f8:
         de:05:e3:41:3b:98:ab:52:1b:9d:55:13:2e:00:45:99:86:d1:
         6a:0a:34:de
-----BEGIN CERTIFICATE-----
MIIDJzCCAg+gAwIBAgIBTDANBgkqhkiG9w0BAQUFADBxMQswCQYDVQQGEwJDTjEQ
MA4GA1UECAwHQkVJSklORzEMMAoGA1UECgwDUEtVMRYwFAYDVQQLDA1NaWNyb1Nv
ZnR3YXJlMQ4wDAYDVQQDDAVMSUhBTzEaMBgGCSqGSIb3DQEJARYLaUBkaWd2YS5j
b20wHhcNMTMwNzEyMDUwNTA1WhcNMTQwNzEyMDUwNTA1WjCBiTELMAkGA1UEBgwC
VVMxEDAOBgNVBAgMB0JlaWppbmcxEDAOBgNVBAcMB0JlaWppbmcxEjAQBgNVBAoM
CVNTUEtVMTM2MDEOMAwGA1UECwwFU1NQS1UxEDAOBgNVBAMMB29wZW5zc2wxIDAe
BgkqhkiG9w0BCQEWEWRhbm55bHNsQHNpbmEuY29tMFowDQYJKoZIhvcNAQEBBQAD
SQAwRgJBALFzHZXt+01fnm6GGXoyTy/i1SErXmFDd+1GuMvcLZ9yBQ4Vl29Rs33K
aO+QyZSYk8Nv076vQCCRnqtZDOjq/ukCAQOjezB5MAkGA1UdEwQCMAAwLAYJYIZI
AYb4QgENBB8WHU9wZW5TU0wgR2VuZXJhdGVkIENlcnRpZmljYXRlMB0GA1UdDgQW
BBS1P+9rntka8ihiLOyrAUrh7FUAqjAfBgNVHSMEGDAWgBR5AhbPSqRLaBQVgPHK
TrAvjrS6XjANBgkqhkiG9w0BAQUFAAOCAQEACo6bY+a9s5y5DlTlgaI12RGknq8f
WZmPSs6PiHKxRMPpo/eUNYX1KxdPPK/jBDzU4JYTzivSFpE/Egy8e9N5VYssW9UB
Ae4rCcq/XM6421i0KHb5UWgnHQSvddLUKElTZL99wa1xCc8vnCRx9q6dOldj958d
cg0VjFY3yqpRy5A60yBFd8jEbUJ5EdxKLCZz34WtzRfMlzX7kUhfqqZhXFMAT08+
YXIXy6zuVfhZdSibWH6BKEURIGpauV86Uw1rWAJqur3YwW4K2XWcXiC93bEGdmLR
9vREvoe1rWZl/H6vD0CNEWa6fyj43gXjQTuYq1IbnVUTLgBFmYbRago03g==
-----END CERTIFICATE-----
