Certificate:
    Data:
        Version: 3 (0x2)
        Serial Number: 77 (0x4d)
    Signature Algorithm: sha1WithRSAEncryption
        Issuer: C=CN, ST=BEIJING, O=PKU, OU=MicroSoftware, CN=LIHAO/emailAddress=i@digva.com
        Validity
            Not Before: Jul 12 11:31:34 2013 GMT
            Not After : Jul 12 11:31:34 2014 GMT
        Subject: C=CN, ST=Beijing, L=24 JinYuan Road,DaXing District, O=SSPKU 1360, OU=SSPKU, CN=OPENSSL TEST/emailAddress=dannylsl@hot
        Subject Public Key Info:
            Public Key Algorithm: rsaEncryption
                Public-Key: (512 bit)
                Modulus:
                    00:b9:ba:0b:20:a2:9a:37:42:5c:f7:ca:45:54:87:
                    8f:9c:9c:a1:ab:ee:c5:a7:d0:6f:6e:fd:e3:6e:b4:
                    11:20:95:12:0a:e8:4a:03:98:3a:d7:20:b6:00:9c:
                    95:77:91:3f:7e:0a:e7:1f:c8:f7:e0:67:8b:6e:40:
                    bb:d4:50:88:a7
                Exponent: 3 (0x3)
        X509v3 extensions:
            X509v3 Basic Constraints: 
                CA:FALSE
            Netscape Comment: 
                OpenSSL Generated Certificate
            X509v3 Subject Key Identifier: 
                E6:3F:91:FC:71:23:BC:CA:EC:85:7F:6D:BC:40:02:E7:CA:CD:27:8E
            X509v3 Authority Key Identifier: 
                keyid:79:02:16:CF:4A:A4:4B:68:14:15:80:F1:CA:4E:B0:2F:8E:B4:BA:5E

    Signature Algorithm: sha1WithRSAEncryption
         76:09:8a:ea:f3:49:bb:89:4e:a2:5f:b0:34:c1:b2:8d:af:00:
         54:82:7f:b0:ee:21:50:d9:aa:d4:2b:53:1f:96:3c:d3:7a:c1:
         41:d7:c8:14:45:90:8d:8a:dd:22:ad:f8:c4:e0:88:6f:48:23:
         60:2e:72:d7:af:be:96:cc:99:5c:82:52:ea:fb:82:74:58:3b:
         85:1f:dc:18:72:13:6d:44:ae:9c:0d:24:89:bd:7d:28:4c:2c:
         09:64:a4:0e:9d:39:2b:18:51:be:de:1d:a1:70:3e:de:63:2a:
         b6:ad:6d:09:f1:48:f2:55:da:9d:d0:11:d7:38:16:33:3e:4b:
         7e:5c:ad:7d:ad:74:ad:8b:ba:c3:f1:91:55:3c:b3:21:dd:ec:
         63:e2:74:68:56:b1:37:46:28:7b:48:65:2b:ea:b0:4a:67:a0:
         5b:26:14:aa:f0:00:85:5f:0a:d6:fd:bd:6a:d4:10:82:c4:a8:
         a8:f4:56:5d:08:bf:a3:b0:03:10:43:22:b7:27:58:90:cf:39:
         ee:d2:29:a5:77:d4:55:aa:01:d5:b1:e7:ee:e6:f9:3f:9d:14:
         19:28:5e:b2:e3:4d:70:14:19:5b:f7:79:d0:bd:18:37:b1:c8:
         93:ba:00:d8:54:01:c1:12:08:5e:0e:75:45:ee:b5:cc:d4:27:
         96:eb:b6:8d
-----BEGIN CERTIFICATE-----
MIIDQDCCAiigAwIBAgIBTTANBgkqhkiG9w0BAQUFADBxMQswCQYDVQQGEwJDTjEQ
MA4GA1UECAwHQkVJSklORzEMMAoGA1UECgwDUEtVMRYwFAYDVQQLDA1NaWNyb1Nv
ZnR3YXJlMQ4wDAYDVQQDDAVMSUhBTzEaMBgGCSqGSIb3DQEJARYLaUBkaWd2YS5j
b20wHhcNMTMwNzEyMTEzMTM0WhcNMTQwNzEyMTEzMTM0WjCBojELMAkGA1UEBgwC
Q04xEDAOBgNVBAgMB0JlaWppbmcxKDAmBgNVBAcMHzI0IEppbll1YW4gUm9hZCxE
YVhpbmcgRGlzdHJpY3QxEzARBgNVBAoMClNTUEtVIDEzNjAxDjAMBgNVBAsMBVNT
UEtVMRUwEwYDVQQDDAxPUEVOU1NMIFRFU1QxGzAZBgkqhkiG9w0BCQEWDGRhbm55
bHNsQGhvdDBaMA0GCSqGSIb3DQEBAQUAA0kAMEYCQQC5ugsgopo3Qlz3ykVUh4+c
nKGr7sWn0G9u/eNutBEglRIK6EoDmDrXILYAnJV3kT9+CucfyPfgZ4tuQLvUUIin
AgEDo3sweTAJBgNVHRMEAjAAMCwGCWCGSAGG+EIBDQQfFh1PcGVuU1NMIEdlbmVy
YXRlZCBDZXJ0aWZpY2F0ZTAdBgNVHQ4EFgQU5j+R/HEjvMrshX9tvEAC58rNJ44w
HwYDVR0jBBgwFoAUeQIWz0qkS2gUFYDxyk6wL460ul4wDQYJKoZIhvcNAQEFBQAD
ggEBAHYJiurzSbuJTqJfsDTBso2vAFSCf7DuIVDZqtQrUx+WPNN6wUHXyBRFkI2K
3SKt+MTgiG9II2AuctevvpbMmVyCUur7gnRYO4Uf3BhyE21ErpwNJIm9fShMLAlk
pA6dOSsYUb7eHaFwPt5jKratbQnxSPJV2p3QEdc4FjM+S35crX2tdK2LusPxkVU8
syHd7GPidGhWsTdGKHtIZSvqsEpnoFsmFKrwAIVfCtb9vWrUEILEqKj0Vl0Iv6Ow
AxBDIrcnWJDPOe7SKaV31FWqAdWx5+7m+T+dFBkoXrLjTXAUGVv3edC9GDexyJO6
ANhUAcESCF4OdUXutczUJ5brto0=
-----END CERTIFICATE-----
