Certificate:
    Data:
        Version: 3 (0x2)
        Serial Number: 78 (0x4e)
    Signature Algorithm: sha1WithRSAEncryption
        Issuer: C=CN, ST=BEIJING, O=PKU, OU=MicroSoftware, CN=LIHAO/emailAddress=i@digva.com
        Validity
            Not Before: Jul 12 11:34:58 2013 GMT
            Not After : Jul 12 11:34:58 2014 GMT
        Subject: C=CN, ST=Beijing, L=24 JinYuan, O=SSPKU 1360, OU=SSPKU, CN=OPENSSL TEST/emailAddress=dannylsl@hot
        Subject Public Key Info:
            Public Key Algorithm: rsaEncryption
                Public-Key: (512 bit)
                Modulus:
                    00:b6:e5:05:b5:fc:7a:90:0d:8a:02:98:75:1f:28:
                    1a:b4:ac:9a:48:c9:e4:e9:7e:f1:91:09:d1:17:60:
                    67:46:cf:13:e2:7b:58:87:fb:62:74:18:77:b1:14:
                    19:38:b9:d0:89:84:e0:50:46:d2:6e:5c:b5:e7:52:
                    fa:65:0e:58:3f
                Exponent: 3 (0x3)
        X509v3 extensions:
            X509v3 Basic Constraints: 
                CA:FALSE
            Netscape Comment: 
                OpenSSL Generated Certificate
            X509v3 Subject Key Identifier: 
                FD:A4:2D:32:0B:68:D3:D6:15:FA:E3:45:1A:3E:B6:DC:91:EE:92:1D
            X509v3 Authority Key Identifier: 
                keyid:79:02:16:CF:4A:A4:4B:68:14:15:80:F1:CA:4E:B0:2F:8E:B4:BA:5E

    Signature Algorithm: sha1WithRSAEncryption
         98:60:64:65:10:cc:f9:9c:16:ff:88:55:5a:dd:e9:ad:7c:ca:
         04:ca:20:8a:14:77:3d:4e:4d:b4:e6:ff:ef:70:1c:11:7e:4a:
         28:05:7b:ac:69:15:2c:b4:36:de:38:3c:06:5b:1d:80:4a:25:
         10:8d:6b:08:bf:de:2b:cb:ca:92:a8:e1:b8:9c:bb:7e:59:de:
         14:3a:94:00:0a:f7:a3:86:e7:76:05:87:43:6a:8d:53:03:1f:
         7a:ec:18:d0:55:bd:17:bd:15:02:ec:bb:d7:ae:12:03:67:13:
         33:91:43:c2:6a:5f:ab:cd:07:bc:d3:15:4a:96:01:a2:1e:60:
         bf:3c:e1:bb:39:67:4e:72:c5:84:8c:b3:17:3c:03:eb:44:86:
         e3:08:5c:08:ae:78:57:a5:da:5a:d0:c1:d0:d4:38:71:18:26:
         6f:78:9b:c9:78:b9:31:fa:01:bb:29:c9:21:e8:19:b4:ae:2e:
         34:ae:71:76:a4:9e:b0:74:9b:60:1a:05:32:fc:a5:2c:88:63:
         d5:ce:45:c0:8f:9b:f1:51:54:71:dc:43:df:e5:62:32:00:7e:
         29:e8:21:22:b5:a1:78:4b:84:ec:67:42:26:04:24:13:60:95:
         59:8a:4f:c7:6a:d0:b4:b5:e4:56:f0:80:7c:55:d0:fa:b4:e6:
         e5:2c:59:b7
-----BEGIN CERTIFICATE-----
MIIDKzCCAhOgAwIBAgIBTjANBgkqhkiG9w0BAQUFADBxMQswCQYDVQQGEwJDTjEQ
MA4GA1UECAwHQkVJSklORzEMMAoGA1UECgwDUEtVMRYwFAYDVQQLDA1NaWNyb1Nv
ZnR3YXJlMQ4wDAYDVQQDDAVMSUhBTzEaMBgGCSqGSIb3DQEJARYLaUBkaWd2YS5j
b20wHhcNMTMwNzEyMTEzNDU4WhcNMTQwNzEyMTEzNDU4WjCBjTELMAkGA1UEBgwC
Q04xEDAOBgNVBAgMB0JlaWppbmcxEzARBgNVBAcMCjI0IEppbll1YW4xEzARBgNV
BAoMClNTUEtVIDEzNjAxDjAMBgNVBAsMBVNTUEtVMRUwEwYDVQQDDAxPUEVOU1NM
IFRFU1QxGzAZBgkqhkiG9w0BCQEWDGRhbm55bHNsQGhvdDBaMA0GCSqGSIb3DQEB
AQUAA0kAMEYCQQC25QW1/HqQDYoCmHUfKBq0rJpIyeTpfvGRCdEXYGdGzxPie1iH
+2J0GHexFBk4udCJhOBQRtJuXLXnUvplDlg/AgEDo3sweTAJBgNVHRMEAjAAMCwG
CWCGSAGG+EIBDQQfFh1PcGVuU1NMIEdlbmVyYXRlZCBDZXJ0aWZpY2F0ZTAdBgNV
HQ4EFgQU/aQtMgto09YV+uNFGj623JHukh0wHwYDVR0jBBgwFoAUeQIWz0qkS2gU
FYDxyk6wL460ul4wDQYJKoZIhvcNAQEFBQADggEBAJhgZGUQzPmcFv+IVVrd6a18
ygTKIIoUdz1OTbTm/+9wHBF+SigFe6xpFSy0Nt44PAZbHYBKJRCNawi/3ivLypKo
4bicu35Z3hQ6lAAK96OG53YFh0NqjVMDH3rsGNBVvRe9FQLsu9euEgNnEzORQ8Jq
X6vNB7zTFUqWAaIeYL884bs5Z05yxYSMsxc8A+tEhuMIXAiueFel2lrQwdDUOHEY
Jm94m8l4uTH6AbspySHoGbSuLjSucXaknrB0m2AaBTL8pSyIY9XORcCPm/FRVHHc
Q9/lYjIAfinoISK1oXhLhOxnQiYEJBNglVmKT8dq0LS15FbwgHxV0Pq05uUsWbc=
-----END CERTIFICATE-----
