Certificate:
    Data:
        Version: 3 (0x2)
        Serial Number: 79 (0x4f)
    Signature Algorithm: sha1WithRSAEncryption
        Issuer: C=CN, ST=BEIJING, O=PKU, OU=MicroSoftware, CN=LIHAO/emailAddress=i@digva.com
        Validity
            Not Before: Jul 12 11:37:34 2013 GMT
            Not After : Jul 12 11:37:34 2014 GMT
        Subject: C=CN, ST=Beijing, L=24 JinYuan, O=SSPKU 1360, OU=SSPKU, CN=OPENSSL TEST/emailAddress=dannylsl@hot
        Subject Public Key Info:
            Public Key Algorithm: rsaEncryption
                Public-Key: (512 bit)
                Modulus:
                    00:b6:e5:05:b5:fc:7a:90:0d:8a:02:98:75:1f:28:
                    1a:b4:ac:9a:48:c9:e4:e9:7e:f1:91:09:d1:17:60:
                    67:46:cf:13:e2:7b:58:87:fb:62:74:18:77:b1:14:
                    19:38:b9:d0:89:84:e0:50:46:d2:6e:5c:b5:e7:52:
                    fa:65:0e:58:3f
                Exponent: 3 (0x3)
        X509v3 extensions:
            X509v3 Basic Constraints: 
                CA:FALSE
            Netscape Comment: 
                OpenSSL Generated Certificate
            X509v3 Subject Key Identifier: 
                FD:A4:2D:32:0B:68:D3:D6:15:FA:E3:45:1A:3E:B6:DC:91:EE:92:1D
            X509v3 Authority Key Identifier: 
                keyid:79:02:16:CF:4A:A4:4B:68:14:15:80:F1:CA:4E:B0:2F:8E:B4:BA:5E

    Signature Algorithm: sha1WithRSAEncryption
         2f:5a:f0:f1:47:fa:4f:90:f3:db:95:38:0a:5e:3b:c0:c5:55:
         b6:0a:80:77:47:da:ac:06:0f:44:54:49:6a:3a:a1:56:94:4c:
         6a:48:c1:78:37:8f:83:4b:2d:02:8f:d2:f6:9c:ca:28:a5:ce:
         98:b1:27:26:b9:9e:79:9f:81:05:f9:d1:37:44:99:ad:5a:84:
         7d:66:e1:d5:88:e7:45:36:22:3a:d4:54:63:94:0c:a1:96:fa:
         a5:02:66:62:eb:77:37:13:b9:7f:34:b5:a5:6c:3e:bb:1f:86:
         22:7d:64:fb:d5:20:b0:e9:6a:5c:0b:1a:63:ff:88:5c:f6:b0:
         8b:62:dc:83:78:d9:c4:f3:77:ca:8e:71:fb:2f:16:40:99:4c:
         65:ae:c6:2b:4b:d8:fb:7a:14:0e:26:1a:3a:13:aa:45:a9:3c:
         ea:5f:bc:28:53:00:bc:57:44:49:eb:a0:f6:98:9b:f3:f2:a8:
         d6:04:c0:9b:45:f1:32:e0:fe:da:3f:18:e3:d8:17:44:f6:1b:
         f1:9a:ff:a9:4e:d8:77:23:1f:54:4b:aa:15:1e:4c:9c:db:52:
         74:92:66:ad:a6:d2:ed:d1:ca:7b:11:e7:6d:a2:63:d5:2d:09:
         77:49:e0:db:90:f8:08:79:d5:88:ee:9f:b4:1a:7e:4b:b7:63:
         21:9b:ac:40
-----BEGIN CERTIFICATE-----
MIIDKzCCAhOgAwIBAgIBTzANBgkqhkiG9w0BAQUFADBxMQswCQYDVQQGEwJDTjEQ
MA4GA1UECAwHQkVJSklORzEMMAoGA1UECgwDUEtVMRYwFAYDVQQLDA1NaWNyb1Nv
ZnR3YXJlMQ4wDAYDVQQDDAVMSUhBTzEaMBgGCSqGSIb3DQEJARYLaUBkaWd2YS5j
b20wHhcNMTMwNzEyMTEzNzM0WhcNMTQwNzEyMTEzNzM0WjCBjTELMAkGA1UEBgwC
Q04xEDAOBgNVBAgMB0JlaWppbmcxEzARBgNVBAcMCjI0IEppbll1YW4xEzARBgNV
BAoMClNTUEtVIDEzNjAxDjAMBgNVBAsMBVNTUEtVMRUwEwYDVQQDDAxPUEVOU1NM
IFRFU1QxGzAZBgkqhkiG9w0BCQEWDGRhbm55bHNsQGhvdDBaMA0GCSqGSIb3DQEB
AQUAA0kAMEYCQQC25QW1/HqQDYoCmHUfKBq0rJpIyeTpfvGRCdEXYGdGzxPie1iH
+2J0GHexFBk4udCJhOBQRtJuXLXnUvplDlg/AgEDo3sweTAJBgNVHRMEAjAAMCwG
CWCGSAGG+EIBDQQfFh1PcGVuU1NMIEdlbmVyYXRlZCBDZXJ0aWZpY2F0ZTAdBgNV
HQ4EFgQU/aQtMgto09YV+uNFGj623JHukh0wHwYDVR0jBBgwFoAUeQIWz0qkS2gU
FYDxyk6wL460ul4wDQYJKoZIhvcNAQEFBQADggEBAC9a8PFH+k+Q89uVOApeO8DF
VbYKgHdH2qwGD0RUSWo6oVaUTGpIwXg3j4NLLQKP0vacyiilzpixJya5nnmfgQX5
0TdEma1ahH1m4dWI50U2IjrUVGOUDKGW+qUCZmLrdzcTuX80taVsPrsfhiJ9ZPvV
ILDpalwLGmP/iFz2sIti3IN42cTzd8qOcfsvFkCZTGWuxitL2Pt6FA4mGjoTqkWp
POpfvChTALxXREnroPaYm/PyqNYEwJtF8TLg/to/GOPYF0T2G/Ga/6lO2HcjH1RL
qhUeTJzbUnSSZq2m0u3RynsR522iY9UtCXdJ4NuQ+Ah51Yjun7Qafku3YyGbrEA=
-----END CERTIFICATE-----
