Certificate:
    Data:
        Version: 3 (0x2)
        Serial Number: 80 (0x50)
    Signature Algorithm: sha1WithRSAEncryption
        Issuer: C=CN, ST=BEIJING, O=PKU, OU=MicroSoftware, CN=LIHAO/emailAddress=i@digva.com
        Validity
            Not Before: Jul 12 11:45:26 2013 GMT
            Not After : Jul 12 11:45:26 2014 GMT
        Subject: C=CN, ST=Beijing, L=24 JinYuan, O=SSPKU 1360, OU=SSPKU, CN=OPENSSL TEST/emailAddress=dannylsl@hotmail.com
        Subject Public Key Info:
            Public Key Algorithm: rsaEncryption
                Public-Key: (512 bit)
                Modulus:
                    00:bb:63:5d:87:ee:68:65:7e:bc:47:fb:40:c8:92:
                    1f:81:99:d1:6b:d6:67:6f:2e:7d:9e:74:04:4a:0e:
                    d4:ab:07:4e:84:89:0e:13:7f:6a:e5:76:53:27:26:
                    42:ea:a3:f1:6e:ec:57:ce:68:a1:fb:19:f2:3f:85:
                    07:6b:93:74:37
                Exponent: 3 (0x3)
        X509v3 extensions:
            X509v3 Basic Constraints: 
                CA:FALSE
            Netscape Comment: 
                OpenSSL Generated Certificate
            X509v3 Subject Key Identifier: 
                12:49:BB:DB:B2:CF:44:F6:6E:A3:CA:B6:BC:57:B7:78:E1:B3:FB:F9
            X509v3 Authority Key Identifier: 
                keyid:79:02:16:CF:4A:A4:4B:68:14:15:80:F1:CA:4E:B0:2F:8E:B4:BA:5E

    Signature Algorithm: sha1WithRSAEncryption
         ad:1e:59:63:11:88:c1:10:8f:60:4b:a0:86:57:46:d8:97:e0:
         7d:ad:e0:73:dc:a6:9e:9d:32:5d:6c:45:c5:b9:6b:a8:20:4e:
         45:56:39:52:d8:fc:cc:26:31:b8:ac:f8:d9:8d:cd:6a:e8:1c:
         b7:10:4a:cb:f6:ab:d8:3d:ed:67:aa:f1:a9:22:fa:b7:92:0b:
         8e:b9:1b:36:41:3b:7a:fa:d3:9d:96:f4:a6:d7:44:27:06:2d:
         f6:94:2f:c5:9f:37:4a:47:d3:4a:46:32:42:d9:b0:d4:e3:ec:
         77:f7:a0:e1:5d:bb:c9:d5:e2:c0:6f:b3:30:2f:9c:d5:36:96:
         6f:17:ea:9e:d3:8d:13:03:5c:61:fb:3d:2c:09:18:87:d1:de:
         54:5d:30:68:de:40:51:e4:b6:71:d4:47:03:c9:47:23:aa:7d:
         37:21:a3:30:0f:b7:c4:b2:57:06:3c:ae:d6:ee:7a:a4:4e:4d:
         48:47:ee:30:36:e9:f6:43:1b:c5:56:f7:53:52:e5:9c:1e:a4:
         ef:b8:0d:24:d4:88:97:e3:a9:f9:79:49:80:f2:08:27:7f:5b:
         58:55:33:a1:70:77:1f:6e:6c:9c:34:9c:b6:aa:ad:0c:d4:79:
         bb:37:a0:2b:3b:11:15:4d:95:94:2b:d1:6f:59:cd:b6:ce:e3:
         ae:ce:80:41
-----BEGIN CERTIFICATE-----
MIIDMzCCAhugAwIBAgIBUDANBgkqhkiG9w0BAQUFADBxMQswCQYDVQQGEwJDTjEQ
MA4GA1UECAwHQkVJSklORzEMMAoGA1UECgwDUEtVMRYwFAYDVQQLDA1NaWNyb1Nv
ZnR3YXJlMQ4wDAYDVQQDDAVMSUhBTzEaMBgGCSqGSIb3DQEJARYLaUBkaWd2YS5j
b20wHhcNMTMwNzEyMTE0NTI2WhcNMTQwNzEyMTE0NTI2WjCBlTELMAkGA1UEBgwC
Q04xEDAOBgNVBAgMB0JlaWppbmcxEzARBgNVBAcMCjI0IEppbll1YW4xEzARBgNV
BAoMClNTUEtVIDEzNjAxDjAMBgNVBAsMBVNTUEtVMRUwEwYDVQQDDAxPUEVOU1NM
IFRFU1QxIzAhBgkqhkiG9w0BCQEWFGRhbm55bHNsQGhvdG1haWwuY29tMFowDQYJ
KoZIhvcNAQEBBQADSQAwRgJBALtjXYfuaGV+vEf7QMiSH4GZ0WvWZ28ufZ50BEoO
1KsHToSJDhN/auV2UycmQuqj8W7sV85oofsZ8j+FB2uTdDcCAQOjezB5MAkGA1Ud
EwQCMAAwLAYJYIZIAYb4QgENBB8WHU9wZW5TU0wgR2VuZXJhdGVkIENlcnRpZmlj
YXRlMB0GA1UdDgQWBBQSSbvbss9E9m6jyra8V7d44bP7+TAfBgNVHSMEGDAWgBR5
AhbPSqRLaBQVgPHKTrAvjrS6XjANBgkqhkiG9w0BAQUFAAOCAQEArR5ZYxGIwRCP
YEughldG2Jfgfa3gc9ymnp0yXWxFxblrqCBORVY5Utj8zCYxuKz42Y3NaugctxBK
y/ar2D3tZ6rxqSL6t5ILjrkbNkE7evrTnZb0ptdEJwYt9pQvxZ83SkfTSkYyQtmw
1OPsd/eg4V27ydXiwG+zMC+c1TaWbxfqntONEwNcYfs9LAkYh9HeVF0waN5AUeS2
cdRHA8lHI6p9NyGjMA+3xLJXBjyu1u56pE5NSEfuMDbp9kMbxVb3U1LlnB6k77gN
JNSIl+Op+XlJgPIIJ39bWFUzoXB3H25snDSctqqtDNR5uzegKzsRFU2VlCvRb1nN
ts7jrs6AQQ==
-----END CERTIFICATE-----
