Certificate:
    Data:
        Version: 3 (0x2)
        Serial Number: 81 (0x51)
    Signature Algorithm: sha1WithRSAEncryption
        Issuer: C=CN, ST=BEIJING, O=PKU, OU=MicroSoftware, CN=LIHAO/emailAddress=i@digva.com
        Validity
            Not Before: Jul 12 11:47:20 2013 GMT
            Not After : Jul 12 11:47:20 2014 GMT
        Subject: C=CN, ST=Beijing, L=24 JinYuan, O=SSPKU 1360, OU=SSPKU, CN=OPENSSL TEST/emailAddress=dannylsl@hotmail.com
        Subject Public Key Info:
            Public Key Algorithm: rsaEncryption
                Public-Key: (512 bit)
                Modulus:
                    00:bb:63:5d:87:ee:68:65:7e:bc:47:fb:40:c8:92:
                    1f:81:99:d1:6b:d6:67:6f:2e:7d:9e:74:04:4a:0e:
                    d4:ab:07:4e:84:89:0e:13:7f:6a:e5:76:53:27:26:
                    42:ea:a3:f1:6e:ec:57:ce:68:a1:fb:19:f2:3f:85:
                    07:6b:93:74:37
                Exponent: 3 (0x3)
        X509v3 extensions:
            X509v3 Basic Constraints: 
                CA:FALSE
            Netscape Comment: 
                OpenSSL Generated Certificate
            X509v3 Subject Key Identifier: 
                12:49:BB:DB:B2:CF:44:F6:6E:A3:CA:B6:BC:57:B7:78:E1:B3:FB:F9
            X509v3 Authority Key Identifier: 
                keyid:79:02:16:CF:4A:A4:4B:68:14:15:80:F1:CA:4E:B0:2F:8E:B4:BA:5E

    Signature Algorithm: sha1WithRSAEncryption
         19:90:22:64:17:bb:2d:ff:51:1f:28:c8:bf:34:05:d4:34:82:
         05:bc:20:a0:00:68:77:50:14:74:fa:c0:bf:0c:cd:2d:df:ba:
         37:2c:92:5c:f7:d9:81:71:fc:40:23:2e:1c:36:c6:aa:e8:76:
         af:bf:5c:bc:2c:f2:cf:29:ed:ae:06:b6:51:a4:63:80:3d:c1:
         ae:34:ac:99:ae:f2:62:c7:91:55:3e:76:51:62:3a:7a:bb:01:
         c8:58:0b:2d:30:98:22:b3:84:bc:ad:e0:bd:f1:a5:bd:32:9f:
         52:5d:59:f4:2f:85:6f:04:c8:2e:b9:b5:98:70:30:01:c7:8a:
         dc:3d:fc:a2:6b:e5:94:33:e4:ac:5d:aa:44:38:b0:4c:a1:8c:
         cb:7d:27:51:f5:09:af:26:d5:b1:9c:e6:d6:6b:43:a9:0e:02:
         da:b5:05:92:42:28:fb:ec:e4:43:8d:52:61:83:14:9f:41:9e:
         00:ff:85:0c:5b:e6:85:25:14:9b:48:4b:cd:10:7e:b3:bd:26:
         2a:cd:74:e3:eb:e1:dc:91:13:c2:b6:ea:3c:a0:40:34:b2:00:
         0f:c9:1a:ff:38:d8:d1:82:8e:46:a0:a4:be:c4:f8:8a:cb:0e:
         ac:c3:ae:4b:c3:e2:e3:0b:33:21:d4:88:ba:44:b5:17:28:37:
         65:7e:ea:5e
-----BEGIN CERTIFICATE-----
MIIDMzCCAhugAwIBAgIBUTANBgkqhkiG9w0BAQUFADBxMQswCQYDVQQGEwJDTjEQ
MA4GA1UECAwHQkVJSklORzEMMAoGA1UECgwDUEtVMRYwFAYDVQQLDA1NaWNyb1Nv
ZnR3YXJlMQ4wDAYDVQQDDAVMSUhBTzEaMBgGCSqGSIb3DQEJARYLaUBkaWd2YS5j
b20wHhcNMTMwNzEyMTE0NzIwWhcNMTQwNzEyMTE0NzIwWjCBlTELMAkGA1UEBgwC
Q04xEDAOBgNVBAgMB0JlaWppbmcxEzARBgNVBAcMCjI0IEppbll1YW4xEzARBgNV
BAoMClNTUEtVIDEzNjAxDjAMBgNVBAsMBVNTUEtVMRUwEwYDVQQDDAxPUEVOU1NM
IFRFU1QxIzAhBgkqhkiG9w0BCQEWFGRhbm55bHNsQGhvdG1haWwuY29tMFowDQYJ
KoZIhvcNAQEBBQADSQAwRgJBALtjXYfuaGV+vEf7QMiSH4GZ0WvWZ28ufZ50BEoO
1KsHToSJDhN/auV2UycmQuqj8W7sV85oofsZ8j+FB2uTdDcCAQOjezB5MAkGA1Ud
EwQCMAAwLAYJYIZIAYb4QgENBB8WHU9wZW5TU0wgR2VuZXJhdGVkIENlcnRpZmlj
YXRlMB0GA1UdDgQWBBQSSbvbss9E9m6jyra8V7d44bP7+TAfBgNVHSMEGDAWgBR5
AhbPSqRLaBQVgPHKTrAvjrS6XjANBgkqhkiG9w0BAQUFAAOCAQEAGZAiZBe7Lf9R
HyjIvzQF1DSCBbwgoABod1AUdPrAvwzNLd+6NyySXPfZgXH8QCMuHDbGquh2r79c
vCzyzyntrga2UaRjgD3BrjSsma7yYseRVT52UWI6ersByFgLLTCYIrOEvK3gvfGl
vTKfUl1Z9C+FbwTILrm1mHAwAceK3D38omvllDPkrF2qRDiwTKGMy30nUfUJrybV
sZzm1mtDqQ4C2rUFkkIo++zkQ41SYYMUn0GeAP+FDFvmhSUUm0hLzRB+s70mKs10
4+vh3JETwrbqPKBANLIAD8ka/zjY0YKORqCkvsT4issOrMOuS8Pi4wszIdSIukS1
Fyg3ZX7qXg==
-----END CERTIFICATE-----
