Certificate:
    Data:
        Version: 3 (0x2)
        Serial Number: 82 (0x52)
    Signature Algorithm: sha1WithRSAEncryption
        Issuer: C=CN, ST=BEIJING, O=PKU, OU=MicroSoftware, CN=LIHAO/emailAddress=i@digva.com
        Validity
            Not Before: Jul 12 11:51:08 2013 GMT
            Not After : Jul 12 11:51:08 2014 GMT
        Subject: C=HL, ST=Heilongjiang, L=24 JinYuan Road, O=SSPKU, OU=Peking University, CN=XiaoRua/emailAddress=sanpuyouyou@163.com
        Subject Public Key Info:
            Public Key Algorithm: rsaEncryption
                Public-Key: (512 bit)
                Modulus:
                    00:a8:1a:e5:fc:48:83:e7:70:79:34:b0:72:1e:77:
                    f0:3b:7d:49:35:4e:9f:da:15:2c:56:18:d3:44:4d:
                    80:d2:24:67:a4:17:9c:fc:ca:8d:98:7c:41:a0:d5:
                    58:a8:bd:2d:37:66:42:49:19:21:0c:17:c7:d1:88:
                    6d:d6:55:a6:99
                Exponent: 3 (0x3)
        X509v3 extensions:
            X509v3 Basic Constraints: 
                CA:FALSE
            Netscape Comment: 
                OpenSSL Generated Certificate
            X509v3 Subject Key Identifier: 
                A7:7E:1F:B0:8C:75:36:CF:6E:94:A4:8B:B6:FA:60:D4:A4:6F:42:FB
            X509v3 Authority Key Identifier: 
                keyid:79:02:16:CF:4A:A4:4B:68:14:15:80:F1:CA:4E:B0:2F:8E:B4:BA:5E

    Signature Algorithm: sha1WithRSAEncryption
         63:dc:e1:a9:cf:07:95:73:fa:36:a8:16:0d:2c:2a:ae:1f:aa:
         da:0d:70:24:af:e9:ed:f1:7a:c8:9e:fb:cb:90:3a:f8:d8:cc:
         eb:c0:50:2b:2c:11:6d:2e:d8:a2:75:e6:0a:01:ba:93:0b:19:
         03:54:52:f8:30:b5:db:c7:80:8f:4e:fe:76:cb:41:c2:37:5e:
         31:a5:e6:8c:3d:2b:4f:3d:37:9b:72:de:fb:5d:5c:04:b5:fc:
         ed:c3:ef:a8:40:fb:1c:b5:6c:f6:fa:ca:84:69:46:f4:f3:92:
         15:03:7a:ca:fd:32:50:5a:9a:5c:4e:f4:80:3f:3b:3e:67:22:
         d5:f8:95:41:14:5d:36:5d:23:78:7b:5b:aa:3e:3e:fb:7e:5d:
         78:69:f8:c7:b2:9f:0f:89:4e:cb:68:3d:d7:5c:77:a8:47:38:
         dd:a2:94:5a:7e:02:17:df:11:0b:6c:61:ae:70:cd:22:ae:27:
         37:5a:02:2d:49:14:52:6d:d0:0d:d7:6b:fc:3e:9c:09:b5:84:
         e3:e9:09:ce:e9:f3:00:1f:cd:cc:72:8d:0f:71:98:5b:01:3f:
         5c:a3:91:37:22:c3:f8:9f:04:67:f9:ce:6a:52:e4:e4:4f:4f:
         3a:3f:b6:3f:b2:94:9d:5c:77:c7:e7:c1:f9:48:23:1a:af:79:
         81:c8:1a:9a
-----BEGIN CERTIFICATE-----
MIIDPjCCAiagAwIBAgIBUjANBgkqhkiG9w0BAQUFADBxMQswCQYDVQQGEwJDTjEQ
MA4GA1UECAwHQkVJSklORzEMMAoGA1UECgwDUEtVMRYwFAYDVQQLDA1NaWNyb1Nv
ZnR3YXJlMQ4wDAYDVQQDDAVMSUhBTzEaMBgGCSqGSIb3DQEJARYLaUBkaWd2YS5j
b20wHhcNMTMwNzEyMTE1MTA4WhcNMTQwNzEyMTE1MTA4WjCBoDELMAkGA1UEBgwC
SEwxFTATBgNVBAgMDEhlaWxvbmdqaWFuZzEYMBYGA1UEBwwPMjQgSmluWXVhbiBS
b2FkMQ4wDAYDVQQKDAVTU1BLVTEaMBgGA1UECwwRUGVraW5nIFVuaXZlcnNpdHkx
EDAOBgNVBAMMB1hpYW9SdWExIjAgBgkqhkiG9w0BCQEWE3NhbnB1eW91eW91QDE2
My5jb20wWjANBgkqhkiG9w0BAQEFAANJADBGAkEAqBrl/EiD53B5NLByHnfwO31J
NU6f2hUsVhjTRE2A0iRnpBec/MqNmHxBoNVYqL0tN2ZCSRkhDBfH0Yht1lWmmQIB
A6N7MHkwCQYDVR0TBAIwADAsBglghkgBhvhCAQ0EHxYdT3BlblNTTCBHZW5lcmF0
ZWQgQ2VydGlmaWNhdGUwHQYDVR0OBBYEFKd+H7CMdTbPbpSki7b6YNSkb0L7MB8G
A1UdIwQYMBaAFHkCFs9KpEtoFBWA8cpOsC+OtLpeMA0GCSqGSIb3DQEBBQUAA4IB
AQBj3OGpzweVc/o2qBYNLCquH6raDXAkr+nt8XrInvvLkDr42MzrwFArLBFtLtii
deYKAbqTCxkDVFL4MLXbx4CPTv52y0HCN14xpeaMPStPPTebct77XVwEtfztw++o
QPsctWz2+sqEaUb085IVA3rK/TJQWppcTvSAPzs+ZyLV+JVBFF02XSN4e1uqPj77
fl14afjHsp8PiU7LaD3XXHeoRzjdopRafgIX3xELbGGucM0iric3WgItSRRSbdAN
12v8PpwJtYTj6QnO6fMAH83Mco0PcZhbAT9co5E3IsP4nwRn+c5qUuTkT086P7Y/
spSdXHfH58H5SCMar3mByBqa
-----END CERTIFICATE-----
