Certificate:
    Data:
        Version: 3 (0x2)
        Serial Number: 83 (0x53)
    Signature Algorithm: sha1WithRSAEncryption
        Issuer: C=CN, ST=BEIJING, O=PKU, OU=MicroSoftware, CN=LIHAO/emailAddress=i@digva.com
        Validity
            Not Before: Jul 12 11:52:02 2013 GMT
            Not After : Jul 12 11:52:02 2014 GMT
        Subject: C=HL, ST=Heilongjiang, L=24 JinYuan Road, O=SSPKU, OU=Peking University, CN=XiaoRua/emailAddress=sanpuyouyou@163.com
        Subject Public Key Info:
            Public Key Algorithm: rsaEncryption
                Public-Key: (512 bit)
                Modulus:
                    00:a8:1a:e5:fc:48:83:e7:70:79:34:b0:72:1e:77:
                    f0:3b:7d:49:35:4e:9f:da:15:2c:56:18:d3:44:4d:
                    80:d2:24:67:a4:17:9c:fc:ca:8d:98:7c:41:a0:d5:
                    58:a8:bd:2d:37:66:42:49:19:21:0c:17:c7:d1:88:
                    6d:d6:55:a6:99
                Exponent: 3 (0x3)
        X509v3 extensions:
            X509v3 Basic Constraints: 
                CA:FALSE
            Netscape Comment: 
                OpenSSL Generated Certificate
            X509v3 Subject Key Identifier: 
                A7:7E:1F:B0:8C:75:36:CF:6E:94:A4:8B:B6:FA:60:D4:A4:6F:42:FB
            X509v3 Authority Key Identifier: 
                keyid:79:02:16:CF:4A:A4:4B:68:14:15:80:F1:CA:4E:B0:2F:8E:B4:BA:5E

    Signature Algorithm: sha1WithRSAEncryption
         37:e4:71:ec:67:df:fc:31:7f:c5:cb:43:fe:75:a4:57:85:b5:
         a5:33:26:fc:df:94:34:50:6f:f3:06:ea:d8:0c:2c:74:ba:56:
         8c:8a:ed:6f:7d:b5:37:38:da:6e:b6:69:15:dc:51:80:89:0e:
         37:3c:e3:90:9e:77:10:4b:d0:7b:8d:6c:47:21:61:b7:02:74:
         9f:e3:a6:ca:c8:46:49:9f:7f:4f:3d:e4:db:2e:6e:5d:d6:d7:
         af:b0:33:26:5e:75:cd:da:c0:e0:c1:2b:fc:7b:76:e4:ea:21:
         47:90:57:84:04:90:4c:ef:b8:e4:ac:ff:3d:35:cd:a4:a3:9a:
         7b:00:ae:f2:30:b2:a2:39:30:9e:ba:3d:58:eb:2c:a7:b8:e5:
         49:79:52:a4:85:ff:16:8c:62:59:c5:78:3f:ff:c7:3d:ff:12:
         66:51:4b:21:4a:38:d2:8d:a2:b1:8d:8c:5d:14:8b:d3:6a:c4:
         f8:5f:fc:5a:24:6b:b9:d4:c1:07:95:6c:93:9b:73:0b:69:25:
         87:ad:8f:5d:77:70:60:10:53:1d:f4:66:d4:7f:d5:32:2e:5e:
         56:a5:99:8f:2a:e5:e8:21:b7:70:6f:86:ef:3a:3b:42:2a:96:
         c1:17:31:42:d0:3c:75:d4:f6:07:8f:d4:12:af:09:a6:1a:6b:
         0c:b4:14:ce
-----BEGIN CERTIFICATE-----
MIIDPjCCAiagAwIBAgIBUzANBgkqhkiG9w0BAQUFADBxMQswCQYDVQQGEwJDTjEQ
MA4GA1UECAwHQkVJSklORzEMMAoGA1UECgwDUEtVMRYwFAYDVQQLDA1NaWNyb1Nv
ZnR3YXJlMQ4wDAYDVQQDDAVMSUhBTzEaMBgGCSqGSIb3DQEJARYLaUBkaWd2YS5j
b20wHhcNMTMwNzEyMTE1MjAyWhcNMTQwNzEyMTE1MjAyWjCBoDELMAkGA1UEBgwC
SEwxFTATBgNVBAgMDEhlaWxvbmdqaWFuZzEYMBYGA1UEBwwPMjQgSmluWXVhbiBS
b2FkMQ4wDAYDVQQKDAVTU1BLVTEaMBgGA1UECwwRUGVraW5nIFVuaXZlcnNpdHkx
EDAOBgNVBAMMB1hpYW9SdWExIjAgBgkqhkiG9w0BCQEWE3NhbnB1eW91eW91QDE2
My5jb20wWjANBgkqhkiG9w0BAQEFAANJADBGAkEAqBrl/EiD53B5NLByHnfwO31J
NU6f2hUsVhjTRE2A0iRnpBec/MqNmHxBoNVYqL0tN2ZCSRkhDBfH0Yht1lWmmQIB
A6N7MHkwCQYDVR0TBAIwADAsBglghkgBhvhCAQ0EHxYdT3BlblNTTCBHZW5lcmF0
ZWQgQ2VydGlmaWNhdGUwHQYDVR0OBBYEFKd+H7CMdTbPbpSki7b6YNSkb0L7MB8G
A1UdIwQYMBaAFHkCFs9KpEtoFBWA8cpOsC+OtLpeMA0GCSqGSIb3DQEBBQUAA4IB
AQA35HHsZ9/8MX/Fy0P+daRXhbWlMyb835Q0UG/zBurYDCx0ulaMiu1vfbU3ONpu
tmkV3FGAiQ43POOQnncQS9B7jWxHIWG3AnSf46bKyEZJn39PPeTbLm5d1tevsDMm
XnXN2sDgwSv8e3bk6iFHkFeEBJBM77jkrP89Nc2ko5p7AK7yMLKiOTCeuj1Y6yyn
uOVJeVKkhf8WjGJZxXg//8c9/xJmUUshSjjSjaKxjYxdFIvTasT4X/xaJGu51MEH
lWyTm3MLaSWHrY9dd3BgEFMd9GbUf9UyLl5WpZmPKuXoIbdwb4bvOjtCKpbBFzFC
0Dx11PYHj9QSrwmmGmsMtBTO
-----END CERTIFICATE-----
