Certificate:
    Data:
        Version: 3 (0x2)
        Serial Number: 84 (0x54)
    Signature Algorithm: sha1WithRSAEncryption
        Issuer: C=CN, ST=BEIJING, O=PKU, OU=MicroSoftware, CN=LIHAO/emailAddress=i@digva.com
        Validity
            Not Before: Jul 12 14:21:03 2013 GMT
            Not After : Jul 12 14:21:03 2014 GMT
        Subject: C=HL, ST=Heilongjiang, L=24 JinYuan Road, O=SSPKU, OU=Peking University, CN=Zengtianning/emailAddress=sanpuyouyou@163.com
        Subject Public Key Info:
            Public Key Algorithm: rsaEncryption
                Public-Key: (512 bit)
                Modulus:
                    00:c8:78:35:f5:b5:41:ba:f3:eb:61:9f:7d:87:5a:
                    da:07:22:2f:51:bc:e4:3b:2e:eb:f1:5a:7d:63:c3:
                    ea:c0:db:97:10:3b:81:7b:e1:1f:22:07:8f:4e:2d:
                    04:13:70:d0:52:72:74:ea:28:84:22:f7:c9:b1:21:
                    9f:fb:08:ef:e9
                Exponent: 3 (0x3)
        X509v3 extensions:
            X509v3 Basic Constraints: 
                CA:FALSE
            Netscape Comment: 
                OpenSSL Generated Certificate
            X509v3 Subject Key Identifier: 
                D4:A1:E0:C7:30:48:F2:BA:6C:2A:48:99:B3:09:CF:D8:1D:DF:81:9E
            X509v3 Authority Key Identifier: 
                keyid:79:02:16:CF:4A:A4:4B:68:14:15:80:F1:CA:4E:B0:2F:8E:B4:BA:5E

    Signature Algorithm: sha1WithRSAEncryption
         69:c5:6d:ca:d1:d6:3c:f1:d5:23:2c:27:b2:cf:83:38:a0:1a:
         54:11:4b:52:34:e6:1c:21:5e:26:d1:6b:c6:36:40:85:dd:81:
         73:c3:75:7b:73:26:0f:41:2a:bb:83:30:69:58:d0:da:83:35:
         2b:97:bf:52:2c:60:19:21:56:e5:58:fa:49:f5:4c:ee:d1:34:
         4f:63:50:47:d7:e7:31:74:11:76:75:31:8e:58:7f:14:9f:9d:
         9a:be:2b:3a:a6:96:91:e8:da:7b:a4:9b:06:df:62:b3:69:f6:
         21:ff:79:89:5d:1f:8e:27:f9:45:e7:cf:7d:b1:ff:5a:a8:75:
         27:41:64:d4:c3:b5:47:c3:b2:86:dc:75:8b:a4:a8:82:ba:76:
         32:b0:b9:6b:1f:60:22:2b:3d:f0:7f:66:15:02:cd:cc:e8:1c:
         4d:90:b4:26:68:c8:21:19:15:6a:af:a1:c9:8a:1f:17:e7:b2:
         23:00:c2:d2:c5:28:70:0f:35:a8:d0:a6:73:8d:fe:06:99:76:
         a3:0a:14:b7:5d:f2:2b:c1:06:54:ef:91:ca:f1:50:cd:0d:43:
         16:3b:e6:b3:61:3b:77:e7:61:56:2e:3a:ab:ed:47:66:48:d3:
         74:88:54:04:c9:9b:1a:cb:8e:66:c4:79:6c:79:8f:a4:71:41:
         e1:25:2d:54
-----BEGIN CERTIFICATE-----
MIIDQzCCAiugAwIBAgIBVDANBgkqhkiG9w0BAQUFADBxMQswCQYDVQQGEwJDTjEQ
MA4GA1UECAwHQkVJSklORzEMMAoGA1UECgwDUEtVMRYwFAYDVQQLDA1NaWNyb1Nv
ZnR3YXJlMQ4wDAYDVQQDDAVMSUhBTzEaMBgGCSqGSIb3DQEJARYLaUBkaWd2YS5j
b20wHhcNMTMwNzEyMTQyMTAzWhcNMTQwNzEyMTQyMTAzWjCBpTELMAkGA1UEBgwC
SEwxFTATBgNVBAgMDEhlaWxvbmdqaWFuZzEYMBYGA1UEBwwPMjQgSmluWXVhbiBS
b2FkMQ4wDAYDVQQKDAVTU1BLVTEaMBgGA1UECwwRUGVraW5nIFVuaXZlcnNpdHkx
FTATBgNVBAMMDFplbmd0aWFubmluZzEiMCAGCSqGSIb3DQEJARYTc2FucHV5b3V5
b3VAMTYzLmNvbTBaMA0GCSqGSIb3DQEBAQUAA0kAMEYCQQDIeDX1tUG68+thn32H
WtoHIi9RvOQ7LuvxWn1jw+rA25cQO4F74R8iB49OLQQTcNBScnTqKIQi98mxIZ/7
CO/pAgEDo3sweTAJBgNVHRMEAjAAMCwGCWCGSAGG+EIBDQQfFh1PcGVuU1NMIEdl
bmVyYXRlZCBDZXJ0aWZpY2F0ZTAdBgNVHQ4EFgQU1KHgxzBI8rpsKkiZswnP2B3f
gZ4wHwYDVR0jBBgwFoAUeQIWz0qkS2gUFYDxyk6wL460ul4wDQYJKoZIhvcNAQEF
BQADggEBAGnFbcrR1jzx1SMsJ7LPgzigGlQRS1I05hwhXibRa8Y2QIXdgXPDdXtz
Jg9BKruDMGlY0NqDNSuXv1IsYBkhVuVY+kn1TO7RNE9jUEfX5zF0EXZ1MY5YfxSf
nZq+KzqmlpHo2nukmwbfYrNp9iH/eYldH44n+UXnz32x/1qodSdBZNTDtUfDsobc
dYukqIK6djKwuWsfYCIrPfB/ZhUCzczoHE2QtCZoyCEZFWqvocmKHxfnsiMAwtLF
KHAPNajQpnON/gaZdqMKFLdd8ivBBlTvkcrxUM0NQxY75rNhO3fnYVYuOqvtR2ZI
03SIVATJmxrLjmbEeWx5j6RxQeElLVQ=
-----END CERTIFICATE-----
