Certificate:
    Data:
        Version: 3 (0x2)
        Serial Number: 85 (0x55)
    Signature Algorithm: sha1WithRSAEncryption
        Issuer: C=CN, ST=BEIJING, O=PKU, OU=MicroSoftware, CN=LIHAO/emailAddress=i@digva.com
        Validity
            Not Before: Jul 12 14:23:21 2013 GMT
            Not After : Jul 12 14:23:21 2014 GMT
        Subject: C=HL, ST=Heilongjiang, L=24 JinYuan Road, O=SSPKU, OU=Peking University, CN=Zengtianning/emailAddress=sanpuyouyou@163.com
        Subject Public Key Info:
            Public Key Algorithm: rsaEncryption
                Public-Key: (512 bit)
                Modulus:
                    00:c8:78:35:f5:b5:41:ba:f3:eb:61:9f:7d:87:5a:
                    da:07:22:2f:51:bc:e4:3b:2e:eb:f1:5a:7d:63:c3:
                    ea:c0:db:97:10:3b:81:7b:e1:1f:22:07:8f:4e:2d:
                    04:13:70:d0:52:72:74:ea:28:84:22:f7:c9:b1:21:
                    9f:fb:08:ef:e9
                Exponent: 3 (0x3)
        X509v3 extensions:
            X509v3 Basic Constraints: 
                CA:FALSE
            Netscape Comment: 
                OpenSSL Generated Certificate
            X509v3 Subject Key Identifier: 
                D4:A1:E0:C7:30:48:F2:BA:6C:2A:48:99:B3:09:CF:D8:1D:DF:81:9E
            X509v3 Authority Key Identifier: 
                keyid:79:02:16:CF:4A:A4:4B:68:14:15:80:F1:CA:4E:B0:2F:8E:B4:BA:5E

    Signature Algorithm: sha1WithRSAEncryption
         b4:ec:4b:f8:d7:35:49:3d:96:8f:0d:18:16:4b:6d:6d:f2:64:
         18:07:dd:f7:b0:c1:8b:f9:a0:c2:b9:09:4b:13:79:20:43:1c:
         e7:9e:5d:5e:0f:9b:c3:32:23:9f:a6:1e:57:8a:50:d0:13:ec:
         46:24:18:bf:0b:ef:22:d6:6a:b6:9f:d1:9b:87:e9:db:27:ba:
         32:e9:38:8f:65:cd:2b:86:29:31:9b:4c:c3:37:2f:a4:a5:c2:
         2b:ac:bd:8d:93:db:20:c1:ac:48:fe:29:e5:92:2e:ba:58:90:
         93:d6:a3:85:4d:61:ab:aa:86:74:94:e7:22:83:c2:c3:eb:db:
         19:f1:40:44:72:6e:16:03:f0:8c:61:4b:43:eb:b8:e1:24:22:
         2d:f3:8f:6e:a3:20:c7:fc:71:75:c2:db:03:5b:57:03:d0:c8:
         3e:4b:b6:4c:83:8c:c5:4f:62:36:b7:25:7b:6a:16:96:3a:1c:
         30:a6:04:35:14:6d:84:58:dd:81:5e:ae:d0:6c:83:ef:6c:f3:
         e0:95:45:01:e3:43:99:ff:5d:83:25:22:ff:d5:46:b6:54:79:
         d5:c8:2f:2d:7d:59:aa:f5:a7:9c:63:a7:c4:d1:cc:6a:ad:ea:
         bd:98:35:d9:76:d2:16:f1:05:27:31:2c:14:09:a0:7c:d1:fb:
         c6:c8:df:60
-----BEGIN CERTIFICATE-----
MIIDQzCCAiugAwIBAgIBVTANBgkqhkiG9w0BAQUFADBxMQswCQYDVQQGEwJDTjEQ
MA4GA1UECAwHQkVJSklORzEMMAoGA1UECgwDUEtVMRYwFAYDVQQLDA1NaWNyb1Nv
ZnR3YXJlMQ4wDAYDVQQDDAVMSUhBTzEaMBgGCSqGSIb3DQEJARYLaUBkaWd2YS5j
b20wHhcNMTMwNzEyMTQyMzIxWhcNMTQwNzEyMTQyMzIxWjCBpTELMAkGA1UEBgwC
SEwxFTATBgNVBAgMDEhlaWxvbmdqaWFuZzEYMBYGA1UEBwwPMjQgSmluWXVhbiBS
b2FkMQ4wDAYDVQQKDAVTU1BLVTEaMBgGA1UECwwRUGVraW5nIFVuaXZlcnNpdHkx
FTATBgNVBAMMDFplbmd0aWFubmluZzEiMCAGCSqGSIb3DQEJARYTc2FucHV5b3V5
b3VAMTYzLmNvbTBaMA0GCSqGSIb3DQEBAQUAA0kAMEYCQQDIeDX1tUG68+thn32H
WtoHIi9RvOQ7LuvxWn1jw+rA25cQO4F74R8iB49OLQQTcNBScnTqKIQi98mxIZ/7
CO/pAgEDo3sweTAJBgNVHRMEAjAAMCwGCWCGSAGG+EIBDQQfFh1PcGVuU1NMIEdl
bmVyYXRlZCBDZXJ0aWZpY2F0ZTAdBgNVHQ4EFgQU1KHgxzBI8rpsKkiZswnP2B3f
gZ4wHwYDVR0jBBgwFoAUeQIWz0qkS2gUFYDxyk6wL460ul4wDQYJKoZIhvcNAQEF
BQADggEBALTsS/jXNUk9lo8NGBZLbW3yZBgH3fewwYv5oMK5CUsTeSBDHOeeXV4P
m8MyI5+mHleKUNAT7EYkGL8L7yLWaraf0ZuH6dsnujLpOI9lzSuGKTGbTMM3L6Sl
wiusvY2T2yDBrEj+KeWSLrpYkJPWo4VNYauqhnSU5yKDwsPr2xnxQERybhYD8Ixh
S0PruOEkIi3zj26jIMf8cXXC2wNbVwPQyD5LtkyDjMVPYja3JXtqFpY6HDCmBDUU
bYRY3YFertBsg+9s8+CVRQHjQ5n/XYMlIv/VRrZUedXILy19War1p5xjp8TRzGqt
6r2YNdl20hbxBScxLBQJoHzR+8bI32A=
-----END CERTIFICATE-----
